---
triple:          'arm64-apple-darwin'
binary-path:     gdsl
relocations:
  - { offsetInCU: 0x3B, offset: 0x3B, size: 0x8, addend: 0x0, symName: _.str, symObjAddr: 0x2F07E0, symBinAddr: 0x1002F4CE0, symSize: 0x0 }
  - { offsetInCU: 0x6B, offset: 0x6B, size: 0x8, addend: 0x0, symName: _.str.1, symObjAddr: 0x2F46C0, symBinAddr: 0x1002F8BC0, symSize: 0x0 }
  - { offsetInCU: 0x88, offset: 0x88, size: 0x8, addend: 0x0, symName: _.str.2, symObjAddr: 0x2F46E0, symBinAddr: 0x1002F8BE0, symSize: 0x0 }
  - { offsetInCU: 0xAE, offset: 0xAE, size: 0x8, addend: 0x0, symName: __ZN4sgenL8STANDARDE, symObjAddr: 0xB08E60, symBinAddr: 0x1003D0D60, symSize: 0x0 }
  - { offsetInCU: 0x119, offset: 0x119, size: 0x8, addend: 0x0, symName: __ZN4sgenL6RANDOME, symObjAddr: 0xB08EA0, symBinAddr: 0x1003D0DA0, symSize: 0x0 }
  - { offsetInCU: 0x132, offset: 0x132, size: 0x8, addend: 0x0, symName: __ZN4sgenL21AVAL_WEST_TAMOR_FIRSTE, symObjAddr: 0xB08EE0, symBinAddr: 0x1003D0DE0, symSize: 0x0 }
  - { offsetInCU: 0x14B, offset: 0x14B, size: 0x8, addend: 0x0, symName: __ZN4sgenL23AVAL_CENTRAL_FIRST_MALEE, symObjAddr: 0xB08F20, symBinAddr: 0x1003D0E20, symSize: 0x0 }
  - { offsetInCU: 0x164, offset: 0x164, size: 0x8, addend: 0x0, symName: __ZN4sgenL23AVAL_WESTERN_FIRST_MALEE, symObjAddr: 0xB08F60, symBinAddr: 0x1003D0E60, symSize: 0x0 }
  - { offsetInCU: 0x17D, offset: 0x17D, size: 0x8, addend: 0x0, symName: __ZN4sgenL25AVAL_CENTRAL_FIRST_FEMALEE, symObjAddr: 0xB08FA0, symBinAddr: 0x1003D0EA0, symSize: 0x0 }
  - { offsetInCU: 0x196, offset: 0x196, size: 0x8, addend: 0x0, symName: __ZN4sgenL17AVAL_CENTRAL_LASTE, symObjAddr: 0xB08FE0, symBinAddr: 0x1003D0EE0, symSize: 0x0 }
  - { offsetInCU: 0x4489, offset: 0x4489, size: 0x8, addend: 0x0, symName: __ZNSt3__16chronomiB8ue170006IxNS_5ratioILl1ELl1000000000EEExS3_EENS_11common_typeIJNS0_8durationIT_T0_EENS5_IT1_T2_EEEE4typeERKS8_RKSB_, symObjAddr: 0x4BDDC, symBinAddr: 0x10004D0CC, symSize: 0x334 }
  - { offsetInCU: 0x4540, offset: 0x4540, size: 0x8, addend: 0x0, symName: __ZNSt3__16chrono13duration_castB8ue170006INS0_8durationIxNS_5ratioILl1ELl1000000000EEEEExS4_EENS_9enable_ifIXsr13__is_durationIT_EE5valueES7_E4typeERKNS2_IT0_T1_EE, symObjAddr: 0x4B538, symBinAddr: 0x10004C828, symSize: 0x27C }
  - { offsetInCU: 0x4588, offset: 0x4588, size: 0x8, addend: 0x0, symName: __ZNSt3__16chronomiB8ue170006INS0_12steady_clockENS0_8durationIxNS_5ratioILl1ELl1000000000EEEEES6_EENS_11common_typeIJT0_T1_EE4typeERKNS0_10time_pointIT_S8_EERKNSC_ISD_S9_EE, symObjAddr: 0x4B7B4, symBinAddr: 0x10004CAA4, symSize: 0x338 }
  - { offsetInCU: 0x1638D, offset: 0x1638D, size: 0x8, addend: 0x0, symName: __ZNSt3__110__function10__not_nullB8ue170006IN5Acorn8TypePool9make_funcMUlvE_EEEbRKT_, symObjAddr: 0x2E30C, symBinAddr: 0x10002F5FC, symSize: 0x18 }
  - { offsetInCU: 0x163BE, offset: 0x163BE, size: 0x8, addend: 0x0, symName: __ZNSt3__110__function10__not_nullB8ue170006IZN5Acorn5StageC1EvEUlRNS2_7ContextEE_EEbRKT_, symObjAddr: 0x5F0B8, symBinAddr: 0x1000603A8, symSize: 0x18 }
  - { offsetInCU: 0x163EF, offset: 0x163EF, size: 0x8, addend: 0x0, symName: __ZNSt3__110__function10__not_nullB8ue170006IZN5Acorn13Compiler_Unit9add_tokenEcRKNS_12basic_stringIcNS_11char_traitsIcEENS_9allocatorIcEEEEEUlRNS2_7ContextEE_EEbRKT_, symObjAddr: 0x712F0, symBinAddr: 0x1000725E0, symSize: 0x18 }
  - { offsetInCU: 0x16420, offset: 0x16420, size: 0x8, addend: 0x0, symName: __ZNSt3__110__function10__not_nullB8ue170006IZN5Acorn13Compiler_Unit19add_binary_operatorEcRKNS_12basic_stringIcNS_11char_traitsIcEENS_9allocatorIcEEEEiEUlRNS2_7ContextEE_EEbRKT_, symObjAddr: 0x791F4, symBinAddr: 0x10007A4E4, symSize: 0x18 }
  - { offsetInCU: 0x16451, offset: 0x16451, size: 0x8, addend: 0x0, symName: __ZNSt3__110__function10__not_nullB8ue170006IZN5Acorn13Compiler_Unit13init_literalsEvEUlRNS2_7ContextEE_EEbRKT_, symObjAddr: 0x8E2F0, symBinAddr: 0x10008F5E0, symSize: 0x18 }
  - { offsetInCU: 0x16482, offset: 0x16482, size: 0x8, addend: 0x0, symName: __ZNSt3__110__function10__not_nullB8ue170006IZN5Acorn13Compiler_Unit13init_literalsEvEUlRNS2_7ContextEE0_EEbRKT_, symObjAddr: 0x93834, symBinAddr: 0x100094B24, symSize: 0x18 }
  - { offsetInCU: 0x164B3, offset: 0x164B3, size: 0x8, addend: 0x0, symName: __ZNSt3__110__function10__not_nullB8ue170006IZN5Acorn13Compiler_Unit13init_literalsEvEUlRNS2_7ContextEE1_EEbRKT_, symObjAddr: 0x98D78, symBinAddr: 0x10009A068, symSize: 0x18 }
  - { offsetInCU: 0x164E4, offset: 0x164E4, size: 0x8, addend: 0x0, symName: __ZNSt3__110__function10__not_nullB8ue170006IZN5Acorn13Compiler_Unit13init_literalsEvEUlRNS2_7ContextEE2_EEbRKT_, symObjAddr: 0x9E5B8, symBinAddr: 0x10009F8A8, symSize: 0x18 }
  - { offsetInCU: 0x16515, offset: 0x16515, size: 0x8, addend: 0x0, symName: __ZNSt3__110__function10__not_nullB8ue170006IZN5Acorn13Compiler_Unit13init_literalsEvEUlRNS2_7ContextEE3_EEbRKT_, symObjAddr: 0xA3AB8, symBinAddr: 0x1000A4DA8, symSize: 0x18 }
  - { offsetInCU: 0x16546, offset: 0x16546, size: 0x8, addend: 0x0, symName: __ZNSt3__110__function10__not_nullB8ue170006IZN5Acorn13Compiler_Unit13init_literalsEvEUlRNS2_7ContextEE4_EEbRKT_, symObjAddr: 0xA9038, symBinAddr: 0x1000AA328, symSize: 0x18 }
  - { offsetInCU: 0x16577, offset: 0x16577, size: 0x8, addend: 0x0, symName: __ZNSt3__110__function10__not_nullB8ue170006IZN5Acorn13Compiler_Unit13init_literalsEvEUlRNS2_7ContextEE5_EEbRKT_, symObjAddr: 0xAE860, symBinAddr: 0x1000AFB50, symSize: 0x18 }
  - { offsetInCU: 0x165A8, offset: 0x165A8, size: 0x8, addend: 0x0, symName: __ZNSt3__110__function10__not_nullB8ue170006IZN5Acorn13Compiler_Unit13init_literalsEvEUlRNS2_7ContextEE6_EEbRKT_, symObjAddr: 0xB51E8, symBinAddr: 0x1000B64D8, symSize: 0x18 }
  - { offsetInCU: 0x165D9, offset: 0x165D9, size: 0x8, addend: 0x0, symName: __ZNSt3__110__function10__not_nullB8ue170006IZN5Acorn13Compiler_Unit13init_literalsEvEUlRNS2_7ContextEE7_EEbRKT_, symObjAddr: 0xBABE0, symBinAddr: 0x1000BBED0, symSize: 0x18 }
  - { offsetInCU: 0x1660A, offset: 0x1660A, size: 0x8, addend: 0x0, symName: __ZNSt3__110__function10__not_nullB8ue170006IZN5Acorn13Compiler_Unit13init_literalsEvEUlRNS2_7ContextEE8_EEbRKT_, symObjAddr: 0xC0524, symBinAddr: 0x1000C1814, symSize: 0x18 }
  - { offsetInCU: 0x1663B, offset: 0x1663B, size: 0x8, addend: 0x0, symName: __ZNSt3__110__function10__not_nullB8ue170006IZN5Acorn13Compiler_Unit14init_tokenizerEvEUlRNS2_7ContextEE_EEbRKT_, symObjAddr: 0xC8278, symBinAddr: 0x1000C9568, symSize: 0x18 }
  - { offsetInCU: 0x1666C, offset: 0x1666C, size: 0x8, addend: 0x0, symName: __ZNSt3__110__function10__not_nullB8ue170006IZN5Acorn13Compiler_Unit14init_tokenizerEvEUlRNS2_7ContextEE0_EEbRKT_, symObjAddr: 0xCE714, symBinAddr: 0x1000CFA04, symSize: 0x18 }
  - { offsetInCU: 0x1669D, offset: 0x1669D, size: 0x8, addend: 0x0, symName: __ZNSt3__110__function10__not_nullB8ue170006IZN5Acorn13Compiler_Unit16add_string_tokenEcmmEUlRNS2_7ContextEE_EEbRKT_, symObjAddr: 0xD44CC, symBinAddr: 0x1000D57BC, symSize: 0x18 }
  - { offsetInCU: 0x166CE, offset: 0x166CE, size: 0x8, addend: 0x0, symName: __ZNSt3__110__function10__not_nullB8ue170006IZN5Acorn13Compiler_Unit16add_string_tokenEcmmEUlRNS2_7ContextEE0_EEbRKT_, symObjAddr: 0xDA0D0, symBinAddr: 0x1000DB3C0, symSize: 0x18 }
  - { offsetInCU: 0x166FF, offset: 0x166FF, size: 0x8, addend: 0x0, symName: __ZNSt3__110__function10__not_nullB8ue170006IZN5Acorn13Compiler_Unit23add_double_string_tokenEccmmmmbP3mapINS_12basic_stringIcNS_11char_traitsIcEENS_9allocatorIcEEEENS_8functionIFvRNS2_7ContextEEEEEEUlSD_E_EEbRKT_, symObjAddr: 0xE2418, symBinAddr: 0x1000E3708, symSize: 0x18 }
  - { offsetInCU: 0x16730, offset: 0x16730, size: 0x8, addend: 0x0, symName: __ZNSt3__110__function10__not_nullB8ue170006IZN5Acorn13Compiler_Unit23add_double_string_tokenEccmmmmbP3mapINS_12basic_stringIcNS_11char_traitsIcEENS_9allocatorIcEEEENS_8functionIFvRNS2_7ContextEEEEEEUlSD_E0_EEbRKT_, symObjAddr: 0xE82A8, symBinAddr: 0x1000E9598, symSize: 0x18 }
  - { offsetInCU: 0x16761, offset: 0x16761, size: 0x8, addend: 0x0, symName: __ZNSt3__110__function10__not_nullB8ue170006IZN5Acorn13Compiler_Unit23add_double_string_tokenEccmmmmbP3mapINS_12basic_stringIcNS_11char_traitsIcEENS_9allocatorIcEEEENS_8functionIFvRNS2_7ContextEEEEEEUlSD_E1_EEbRKT_, symObjAddr: 0xEDF98, symBinAddr: 0x1000EF288, symSize: 0x18 }
  - { offsetInCU: 0x16792, offset: 0x16792, size: 0x8, addend: 0x0, symName: __ZNSt3__110__function10__not_nullB8ue170006IZN5Acorn13Compiler_Unit23add_double_string_tokenEccmmmmbP3mapINS_12basic_stringIcNS_11char_traitsIcEENS_9allocatorIcEEEENS_8functionIFvRNS2_7ContextEEEEEEUlSD_E2_EEbRKT_, symObjAddr: 0xF5CE4, symBinAddr: 0x1000F6FD4, symSize: 0x18 }
  - { offsetInCU: 0x167C3, offset: 0x167C3, size: 0x8, addend: 0x0, symName: __ZNSt3__110__function10__not_nullB8ue170006IZN5Acorn13Compiler_Unit14init_tokenizerEvEUlRNS2_7ContextEE1_EEbRKT_, symObjAddr: 0xFC3D0, symBinAddr: 0x1000FD6C0, symSize: 0x18 }
  - { offsetInCU: 0x167F4, offset: 0x167F4, size: 0x8, addend: 0x0, symName: __ZNSt3__110__function10__not_nullB8ue170006IZN5Acorn13Compiler_Unit14init_tokenizerEvEUlRNS2_7ContextEE2_EEbRKT_, symObjAddr: 0x101908, symBinAddr: 0x100102BF8, symSize: 0x18 }
  - { offsetInCU: 0x16825, offset: 0x16825, size: 0x8, addend: 0x0, symName: __ZNSt3__110__function10__not_nullB8ue170006IZN5Acorn13Compiler_Unit14init_tokenizerEvEUlRNS2_7ContextEE3_EEbRKT_, symObjAddr: 0x106E40, symBinAddr: 0x100108130, symSize: 0x18 }
  - { offsetInCU: 0x16856, offset: 0x16856, size: 0x8, addend: 0x0, symName: __ZNSt3__110__function10__not_nullB8ue170006IZN5Acorn13Compiler_Unit14init_tokenizerEvEUlRNS2_7ContextEE4_EEbRKT_, symObjAddr: 0x10C45C, symBinAddr: 0x10010D74C, symSize: 0x18 }
  - { offsetInCU: 0x16887, offset: 0x16887, size: 0x8, addend: 0x0, symName: __ZNSt3__110__function10__not_nullB8ue170006IZN5Acorn13Compiler_Unit12init_stage_aEvEUlRNS2_7ContextEE_EEbRKT_, symObjAddr: 0x1145F0, symBinAddr: 0x1001158E0, symSize: 0x18 }
  - { offsetInCU: 0x168B8, offset: 0x168B8, size: 0x8, addend: 0x0, symName: __ZNSt3__110__function10__not_nullB8ue170006IZN5Acorn13Compiler_Unit12init_stage_aEvEUlRNS2_7ContextEE0_EEbRKT_, symObjAddr: 0x11E9D4, symBinAddr: 0x10011FCC4, symSize: 0x18 }
  - { offsetInCU: 0x168E9, offset: 0x168E9, size: 0x8, addend: 0x0, symName: __ZNSt3__110__function10__not_nullB8ue170006IZN5Acorn13Compiler_Unit12init_stage_aEvEUlRNS2_7ContextEE1_EEbRKT_, symObjAddr: 0x126D4C, symBinAddr: 0x10012803C, symSize: 0x18 }
  - { offsetInCU: 0x1691A, offset: 0x1691A, size: 0x8, addend: 0x0, symName: __ZNSt3__110__function10__not_nullB8ue170006IZN5Acorn13Compiler_Unit12init_stage_sEvEUlRNS2_7ContextEE_EEbRKT_, symObjAddr: 0x12D070, symBinAddr: 0x10012E360, symSize: 0x18 }
  - { offsetInCU: 0x1694B, offset: 0x1694B, size: 0x8, addend: 0x0, symName: __ZNSt3__110__function10__not_nullB8ue170006IZN5Acorn13Compiler_Unit12init_stage_sEvEUlRNS2_7ContextEE0_EEbRKT_, symObjAddr: 0x134D68, symBinAddr: 0x100136058, symSize: 0x18 }
  - { offsetInCU: 0x1697C, offset: 0x1697C, size: 0x8, addend: 0x0, symName: __ZNSt3__110__function10__not_nullB8ue170006IZN5Acorn13Compiler_Unit25add_type_stamping_handlerEjEUlRNS2_7ContextEE_EEbRKT_, symObjAddr: 0x13B484, symBinAddr: 0x10013C774, symSize: 0x18 }
  - { offsetInCU: 0x169AD, offset: 0x169AD, size: 0x8, addend: 0x0, symName: __ZNSt3__110__function10__not_nullB8ue170006IZN5Acorn13Compiler_Unit4initEvEUlRNS2_7ContextEE_EEbRKT_, symObjAddr: 0x14313C, symBinAddr: 0x10014442C, symSize: 0x18 }
  - { offsetInCU: 0x169DE, offset: 0x169DE, size: 0x8, addend: 0x0, symName: __ZNSt3__110__function10__not_nullB8ue170006IZN5Acorn13Compiler_Unit4initEvEUlRNS2_7ContextEE0_EEbRKT_, symObjAddr: 0x153398, symBinAddr: 0x100154688, symSize: 0x18 }
  - { offsetInCU: 0x16A0F, offset: 0x16A0F, size: 0x8, addend: 0x0, symName: __ZNSt3__110__function10__not_nullB8ue170006IZN5Acorn13Compiler_Unit4initEvEUlRNS2_7ContextEE1_EEbRKT_, symObjAddr: 0x158964, symBinAddr: 0x100159C54, symSize: 0x18 }
  - { offsetInCU: 0x16A40, offset: 0x16A40, size: 0x8, addend: 0x0, symName: __ZNSt3__110__function10__not_nullB8ue170006IZN5Acorn13Compiler_Unit4initEvEUlRNS2_7ContextEE2_EEbRKT_, symObjAddr: 0x15DF30, symBinAddr: 0x10015F220, symSize: 0x18 }
  - { offsetInCU: 0x16A71, offset: 0x16A71, size: 0x8, addend: 0x0, symName: __ZNSt3__110__function10__not_nullB8ue170006IZN5Acorn13Compiler_Unit4initEvEUlRNS2_7ContextEE3_EEbRKT_, symObjAddr: 0x1634FC, symBinAddr: 0x1001647EC, symSize: 0x18 }
  - { offsetInCU: 0x16AA2, offset: 0x16AA2, size: 0x8, addend: 0x0, symName: __ZNSt3__110__function10__not_nullB8ue170006IZN5Acorn13Compiler_Unit4initEvEUlRNS2_7ContextEE4_EEbRKT_, symObjAddr: 0x169408, symBinAddr: 0x10016A6F8, symSize: 0x18 }
  - { offsetInCU: 0x16AD3, offset: 0x16AD3, size: 0x8, addend: 0x0, symName: __ZNSt3__110__function10__not_nullB8ue170006IZN5Acorn13Compiler_Unit4initEvEUlRNS2_7ContextEE5_EEbRKT_, symObjAddr: 0x16F084, symBinAddr: 0x100170374, symSize: 0x18 }
  - { offsetInCU: 0x16B04, offset: 0x16B04, size: 0x8, addend: 0x0, symName: __ZNSt3__110__function10__not_nullB8ue170006IZN5Acorn13Compiler_Unit4initEvEUlRNS2_7ContextEE6_EEbRKT_, symObjAddr: 0x175600, symBinAddr: 0x1001768F0, symSize: 0x18 }
  - { offsetInCU: 0x16B35, offset: 0x16B35, size: 0x8, addend: 0x0, symName: __ZNSt3__110__function10__not_nullB8ue170006IZN5Acorn10Acorn_Dirt4initEvEUlRNS2_7ContextEE_EEbRKT_, symObjAddr: 0x1833F0, symBinAddr: 0x1001846E0, symSize: 0x18 }
  - { offsetInCU: 0x16B66, offset: 0x16B66, size: 0x8, addend: 0x0, symName: __ZNSt3__110__function10__not_nullB8ue170006IZN5Acorn10Acorn_Dirt4initEvEUlRNS2_7ContextEE0_EEbRKT_, symObjAddr: 0x188E78, symBinAddr: 0x10018A168, symSize: 0x18 }
  - { offsetInCU: 0x16B97, offset: 0x16B97, size: 0x8, addend: 0x0, symName: __ZNSt3__110__function10__not_nullB8ue170006IZN5Acorn10Acorn_Dirt4initEvEUlRNS2_7ContextEE1_EEbRKT_, symObjAddr: 0x18F26C, symBinAddr: 0x10019055C, symSize: 0x18 }
  - { offsetInCU: 0x16BC8, offset: 0x16BC8, size: 0x8, addend: 0x0, symName: __ZNSt3__110__function10__not_nullB8ue170006IZN5Acorn10Acorn_Dirt4initEvEUlRNS2_7ContextEE2_EEbRKT_, symObjAddr: 0x1947A4, symBinAddr: 0x100195A94, symSize: 0x18 }
  - { offsetInCU: 0x16BF9, offset: 0x16BF9, size: 0x8, addend: 0x0, symName: __ZNSt3__110__function10__not_nullB8ue170006IZN5Acorn10Acorn_Dirt4initEvEUlRNS2_7ContextEE3_EEbRKT_, symObjAddr: 0x199EF0, symBinAddr: 0x10019B1E0, symSize: 0x18 }
  - { offsetInCU: 0x16C2A, offset: 0x16C2A, size: 0x8, addend: 0x0, symName: __ZNSt3__110__function10__not_nullB8ue170006IZN5Acorn10Acorn_Dirt4initEvEUlRNS2_7ContextEE4_EEbRKT_, symObjAddr: 0x1A0C14, symBinAddr: 0x1001A1F04, symSize: 0x18 }
  - { offsetInCU: 0x16C5B, offset: 0x16C5B, size: 0x8, addend: 0x0, symName: __ZNSt3__110__function10__not_nullB8ue170006IZN5Acorn10Acorn_Dirt4initEvEUlRNS2_7ContextEE5_EEbRKT_, symObjAddr: 0x1A6254, symBinAddr: 0x1001A7544, symSize: 0x18 }
  - { offsetInCU: 0x16C8C, offset: 0x16C8C, size: 0x8, addend: 0x0, symName: __ZNSt3__110__function10__not_nullB8ue170006IZN5Acorn10Acorn_Dirt4initEvEUlRNS2_7ContextEE6_EEbRKT_, symObjAddr: 0x1AB8C4, symBinAddr: 0x1001ACBB4, symSize: 0x18 }
  - { offsetInCU: 0x16CBD, offset: 0x16CBD, size: 0x8, addend: 0x0, symName: __ZNSt3__110__function10__not_nullB8ue170006IZN5Acorn10Acorn_Dirt4initEvEUlRNS2_7ContextEE7_EEbRKT_, symObjAddr: 0x1B0EAC, symBinAddr: 0x1001B219C, symSize: 0x18 }
  - { offsetInCU: 0x16CEE, offset: 0x16CEE, size: 0x8, addend: 0x0, symName: __ZNSt3__110__function10__not_nullB8ue170006IZN5Acorn10Acorn_Dirt4initEvEUlRNS2_7ContextEE8_EEbRKT_, symObjAddr: 0x1B6520, symBinAddr: 0x1001B7810, symSize: 0x18 }
  - { offsetInCU: 0x16D1F, offset: 0x16D1F, size: 0x8, addend: 0x0, symName: __ZNSt3__110__function10__not_nullB8ue170006IZN5Acorn10Acorn_Dirt4initEvEUlRNS2_7ContextEE9_EEbRKT_, symObjAddr: 0x1BBB08, symBinAddr: 0x1001BCDF8, symSize: 0x18 }
  - { offsetInCU: 0x16D50, offset: 0x16D50, size: 0x8, addend: 0x0, symName: __ZNSt3__110__function10__not_nullB8ue170006IZN5Acorn10Acorn_Dirt4initEvEUlRNS2_7ContextEE10_EEbRKT_, symObjAddr: 0x1C115C, symBinAddr: 0x1001C244C, symSize: 0x18 }
  - { offsetInCU: 0x16D81, offset: 0x16D81, size: 0x8, addend: 0x0, symName: __ZNSt3__110__function10__not_nullB8ue170006IZN5Acorn10Acorn_Dirt4initEvEUlRNS2_7ContextEE11_EEbRKT_, symObjAddr: 0x1C67B0, symBinAddr: 0x1001C7AA0, symSize: 0x18 }
  - { offsetInCU: 0x16DB2, offset: 0x16DB2, size: 0x8, addend: 0x0, symName: __ZNSt3__110__function10__not_nullB8ue170006IZN5Acorn10Acorn_Dirt4initEvEUlRNS2_7ContextEE12_EEbRKT_, symObjAddr: 0x1CBE00, symBinAddr: 0x1001CD0F0, symSize: 0x18 }
  - { offsetInCU: 0x16DE3, offset: 0x16DE3, size: 0x8, addend: 0x0, symName: __ZNSt3__110__function10__not_nullB8ue170006IZN5Acorn10Acorn_Dirt4initEvEUlRNS2_7ContextEE13_EEbRKT_, symObjAddr: 0x1D14AC, symBinAddr: 0x1001D279C, symSize: 0x18 }
  - { offsetInCU: 0x16E14, offset: 0x16E14, size: 0x8, addend: 0x0, symName: __ZNSt3__110__function10__not_nullB8ue170006IZN5Acorn10Acorn_Dirt4initEvEUlRNS2_7ContextEE14_EEbRKT_, symObjAddr: 0x1D6A68, symBinAddr: 0x1001D7D58, symSize: 0x18 }
  - { offsetInCU: 0x16E45, offset: 0x16E45, size: 0x8, addend: 0x0, symName: __ZNSt3__110__function10__not_nullB8ue170006IZN5Acorn10Acorn_Dirt4initEvEUlRNS2_7ContextEE15_EEbRKT_, symObjAddr: 0x1DC098, symBinAddr: 0x1001DD388, symSize: 0x18 }
  - { offsetInCU: 0x16E76, offset: 0x16E76, size: 0x8, addend: 0x0, symName: __ZNSt3__110__function10__not_nullB8ue170006IZN5Acorn10Acorn_Dirt4initEvEUlRNS2_7ContextEE16_EEbRKT_, symObjAddr: 0x1E16E8, symBinAddr: 0x1001E29D8, symSize: 0x18 }
  - { offsetInCU: 0x16EA7, offset: 0x16EA7, size: 0x8, addend: 0x0, symName: __ZNSt3__110__function10__not_nullB8ue170006IZN5Acorn10Acorn_Dirt4initEvEUlRNS2_7ContextEE17_EEbRKT_, symObjAddr: 0x1E6D38, symBinAddr: 0x1001E8028, symSize: 0x18 }
  - { offsetInCU: 0x16ED8, offset: 0x16ED8, size: 0x8, addend: 0x0, symName: __ZNSt3__110__function10__not_nullB8ue170006IZN5Acorn10Acorn_Dirt4initEvEUlRNS2_7ContextEE18_EEbRKT_, symObjAddr: 0x1EC360, symBinAddr: 0x1001ED650, symSize: 0x18 }
  - { offsetInCU: 0x16F09, offset: 0x16F09, size: 0x8, addend: 0x0, symName: __ZNSt3__110__function10__not_nullB8ue170006IZN5Acorn10Acorn_Dirt4initEvEUlRNS2_7ContextEE19_EEbRKT_, symObjAddr: 0x1F19B4, symBinAddr: 0x1001F2CA4, symSize: 0x18 }
  - { offsetInCU: 0x16F3A, offset: 0x16F3A, size: 0x8, addend: 0x0, symName: __ZNSt3__110__function10__not_nullB8ue170006IZN5Acorn10Acorn_Dirt4initEvEUlRNS2_7ContextEE20_EEbRKT_, symObjAddr: 0x1F7008, symBinAddr: 0x1001F82F8, symSize: 0x18 }
  - { offsetInCU: 0x16F6B, offset: 0x16F6B, size: 0x8, addend: 0x0, symName: __ZNSt3__110__function10__not_nullB8ue170006IZN5Acorn10Acorn_Dirt4initEvEUlRNS2_7ContextEE21_EEbRKT_, symObjAddr: 0x1FC650, symBinAddr: 0x1001FD940, symSize: 0x18 }
  - { offsetInCU: 0x16F9C, offset: 0x16F9C, size: 0x8, addend: 0x0, symName: __ZNSt3__110__function10__not_nullB8ue170006IZN5Acorn10Acorn_Dirt4initEvEUlRNS2_7ContextEE22_EEbRKT_, symObjAddr: 0x201C9C, symBinAddr: 0x100202F8C, symSize: 0x18 }
  - { offsetInCU: 0x16FCD, offset: 0x16FCD, size: 0x8, addend: 0x0, symName: __ZNSt3__110__function10__not_nullB8ue170006IZN5Acorn10Acorn_Dirt4initEvEUlRNS2_7ContextEE23_EEbRKT_, symObjAddr: 0x2072D4, symBinAddr: 0x1002085C4, symSize: 0x18 }
  - { offsetInCU: 0x16FFE, offset: 0x16FFE, size: 0x8, addend: 0x0, symName: __ZNSt3__110__function10__not_nullB8ue170006IZN5Acorn10Acorn_Dirt4initEvEUlRNS2_7ContextEE24_EEbRKT_, symObjAddr: 0x20C938, symBinAddr: 0x10020DC28, symSize: 0x18 }
  - { offsetInCU: 0x1702F, offset: 0x1702F, size: 0x8, addend: 0x0, symName: __ZNSt3__110__function10__not_nullB8ue170006IZN5Acorn10Acorn_Dirt4initEvEUlRNS2_7ContextEE25_EEbRKT_, symObjAddr: 0x211F94, symBinAddr: 0x100213284, symSize: 0x18 }
  - { offsetInCU: 0x17060, offset: 0x17060, size: 0x8, addend: 0x0, symName: __ZNSt3__110__function10__not_nullB8ue170006IZN5Acorn10Acorn_Dirt4initEvEUlRNS2_7ContextEE26_EEbRKT_, symObjAddr: 0x2175AC, symBinAddr: 0x10021889C, symSize: 0x18 }
  - { offsetInCU: 0x17091, offset: 0x17091, size: 0x8, addend: 0x0, symName: __ZNSt3__110__function10__not_nullB8ue170006IZN5Acorn10Acorn_Dirt4initEvEUlRNS2_7ContextEE27_EEbRKT_, symObjAddr: 0x21CBC0, symBinAddr: 0x10021DEB0, symSize: 0x18 }
  - { offsetInCU: 0x170C2, offset: 0x170C2, size: 0x8, addend: 0x0, symName: __ZNSt3__110__function10__not_nullB8ue170006IZN5Acorn10Acorn_Dirt4initEvEUlRNS2_7ContextEE28_EEbRKT_, symObjAddr: 0x22218C, symBinAddr: 0x10022347C, symSize: 0x18 }
  - { offsetInCU: 0x170F3, offset: 0x170F3, size: 0x8, addend: 0x0, symName: __ZNSt3__110__function10__not_nullB8ue170006IZN5Acorn10Acorn_Dirt4initEvEUlRNS2_7ContextEE29_EEbRKT_, symObjAddr: 0x227764, symBinAddr: 0x100228A54, symSize: 0x18 }
  - { offsetInCU: 0x17124, offset: 0x17124, size: 0x8, addend: 0x0, symName: __ZNSt3__110__function10__not_nullB8ue170006IZN5Acorn10Acorn_Dirt4initEvEUlRNS2_7ContextEE30_EEbRKT_, symObjAddr: 0x22CD44, symBinAddr: 0x10022E034, symSize: 0x18 }
  - { offsetInCU: 0x17155, offset: 0x17155, size: 0x8, addend: 0x0, symName: __ZNSt3__110__function10__not_nullB8ue170006IZN5Acorn10Acorn_Dirt4initEvEUlRNS2_7ContextEE31_EEbRKT_, symObjAddr: 0x232394, symBinAddr: 0x100233684, symSize: 0x18 }
  - { offsetInCU: 0x17186, offset: 0x17186, size: 0x8, addend: 0x0, symName: __ZNSt3__110__function10__not_nullB8ue170006IZN5Acorn10Acorn_Dirt4initEvEUlRNS2_7ContextEE32_EEbRKT_, symObjAddr: 0x2379B0, symBinAddr: 0x100238CA0, symSize: 0x18 }
  - { offsetInCU: 0x171B7, offset: 0x171B7, size: 0x8, addend: 0x0, symName: __ZNSt3__110__function10__not_nullB8ue170006IZN5Acorn10Acorn_Dirt4initEvEUlRNS2_7ContextEE33_EEbRKT_, symObjAddr: 0x23CFCC, symBinAddr: 0x10023E2BC, symSize: 0x18 }
  - { offsetInCU: 0x171E8, offset: 0x171E8, size: 0x8, addend: 0x0, symName: __ZNSt3__110__function10__not_nullB8ue170006IZN5Acorn10Acorn_Dirt4initEvEUlRNS2_7ContextEE34_EEbRKT_, symObjAddr: 0x2425E8, symBinAddr: 0x1002438D8, symSize: 0x18 }
  - { offsetInCU: 0x17219, offset: 0x17219, size: 0x8, addend: 0x0, symName: __ZNSt3__110__function10__not_nullB8ue170006IZN5Acorn10Acorn_Dirt4initEvEUlRNS2_7ContextEE35_EEbRKT_, symObjAddr: 0x247C04, symBinAddr: 0x100248EF4, symSize: 0x18 }
  - { offsetInCU: 0x1724A, offset: 0x1724A, size: 0x8, addend: 0x0, symName: __ZNSt3__110__function10__not_nullB8ue170006IZN5Acorn10Acorn_Dirt4initEvEUlRNS2_7ContextEE36_EEbRKT_, symObjAddr: 0x24D220, symBinAddr: 0x10024E510, symSize: 0x18 }
  - { offsetInCU: 0x1727B, offset: 0x1727B, size: 0x8, addend: 0x0, symName: __ZNSt3__110__function10__not_nullB8ue170006IZN5Acorn10Acorn_Dirt4initEvEUlRNS2_7ContextEE37_EEbRKT_, symObjAddr: 0x252888, symBinAddr: 0x100253B78, symSize: 0x18 }
  - { offsetInCU: 0x172AC, offset: 0x172AC, size: 0x8, addend: 0x0, symName: __ZNSt3__110__function10__not_nullB8ue170006IZN5Acorn10Acorn_Dirt4initEvEUlRNS2_7ContextEE38_EEbRKT_, symObjAddr: 0x257EA4, symBinAddr: 0x100259194, symSize: 0x18 }
  - { offsetInCU: 0x172DD, offset: 0x172DD, size: 0x8, addend: 0x0, symName: __ZNSt3__110__function10__not_nullB8ue170006IZN5Acorn10Acorn_Dirt4initEvEUlRNS2_7ContextEE39_EEbRKT_, symObjAddr: 0x25D4C0, symBinAddr: 0x10025E7B0, symSize: 0x18 }
  - { offsetInCU: 0x1730E, offset: 0x1730E, size: 0x8, addend: 0x0, symName: __ZNSt3__110__function10__not_nullB8ue170006IZN5Acorn10Acorn_Dirt4initEvEUlRNS2_7ContextEE40_EEbRKT_, symObjAddr: 0x265A08, symBinAddr: 0x100266CF8, symSize: 0x18 }
  - { offsetInCU: 0x1733F, offset: 0x1733F, size: 0x8, addend: 0x0, symName: __ZNSt3__110__function10__not_nullB8ue170006IZN5Acorn10Acorn_Dirt4initEvEUlRNS2_7ContextEE41_EEbRKT_, symObjAddr: 0x26BCE4, symBinAddr: 0x10026CFD4, symSize: 0x18 }
  - { offsetInCU: 0x17370, offset: 0x17370, size: 0x8, addend: 0x0, symName: __ZNSt3__110__function10__not_nullB8ue170006IZN5Acorn10Acorn_Dirt4initEvEUlRNS2_7ContextEE42_EEbRKT_, symObjAddr: 0x272528, symBinAddr: 0x100273818, symSize: 0x18 }
  - { offsetInCU: 0x173A1, offset: 0x173A1, size: 0x8, addend: 0x0, symName: __ZNSt3__110__function10__not_nullB8ue170006IZN5Acorn10Acorn_Dirt4initEvEUlRNS2_7ContextEE43_EEbRKT_, symObjAddr: 0x277D50, symBinAddr: 0x100279040, symSize: 0x18 }
  - { offsetInCU: 0x173D2, offset: 0x173D2, size: 0x8, addend: 0x0, symName: __ZNSt3__110__function10__not_nullB8ue170006IZN5Acorn10Acorn_Dirt4initEvEUlRNS2_7ContextEE44_EEbRKT_, symObjAddr: 0x27D50C, symBinAddr: 0x10027E7FC, symSize: 0x18 }
  - { offsetInCU: 0x17403, offset: 0x17403, size: 0x8, addend: 0x0, symName: __ZNSt3__110__function10__not_nullB8ue170006IZN5Acorn10Acorn_Dirt4initEvEUlRNS2_7ContextEE45_EEbRKT_, symObjAddr: 0x282C54, symBinAddr: 0x100283F44, symSize: 0x18 }
  - { offsetInCU: 0x17434, offset: 0x17434, size: 0x8, addend: 0x0, symName: __ZNSt3__110__function10__not_nullB8ue170006IZN5Acorn10Acorn_Dirt4initEvEUlRNS2_7ContextEE46_EEbRKT_, symObjAddr: 0x288204, symBinAddr: 0x1002894F4, symSize: 0x18 }
  - { offsetInCU: 0x17465, offset: 0x17465, size: 0x8, addend: 0x0, symName: __ZNSt3__110__function10__not_nullB8ue170006IZN5Acorn10Acorn_Dirt4initEvEUlRNS2_7ContextEE47_EEbRKT_, symObjAddr: 0x28D77C, symBinAddr: 0x10028EA6C, symSize: 0x18 }
  - { offsetInCU: 0x17496, offset: 0x17496, size: 0x8, addend: 0x0, symName: __ZNSt3__110__function10__not_nullB8ue170006IZN5Acorn10Acorn_Dirt4initEvEUlRNS2_7ContextEE48_EEbRKT_, symObjAddr: 0x292F14, symBinAddr: 0x100294204, symSize: 0x18 }
  - { offsetInCU: 0x174C7, offset: 0x174C7, size: 0x8, addend: 0x0, symName: __ZNSt3__110__function10__not_nullB8ue170006IZN5Acorn10Acorn_Dirt4initEvEUlRNS2_7ContextEE49_EEbRKT_, symObjAddr: 0x2984B0, symBinAddr: 0x1002997A0, symSize: 0x18 }
  - { offsetInCU: 0x1772C, offset: 0x1772C, size: 0x8, addend: 0x0, symName: '__ZNSt3__110__function10__not_nullB8ue170006IZN5AcornL11burn_instrsERKNS_12basic_stringIcNS_11char_traitsIcEENS_9allocatorIcEEEEE3$_2EEbRKT_', symObjAddr: 0x2A5C8C, symBinAddr: 0x1002A6F7C, symSize: 0x18 }
  - { offsetInCU: 0x1775D, offset: 0x1775D, size: 0x8, addend: 0x0, symName: '__ZNSt3__110__function10__not_nullB8ue170006IZN5AcornL18resolve_instr_fileERKNS_12basic_stringIcNS_11char_traitsIcEENS_9allocatorIcEEEEE3$_3EEbRKT_', symObjAddr: 0x2ABB20, symBinAddr: 0x1002ACE10, symSize: 0x18 }
  - { offsetInCU: 0x1778E, offset: 0x1778E, size: 0x8, addend: 0x0, symName: '__ZNSt3__110__function10__not_nullB8ue170006IZN5AcornL9JIT_AcornEiE3$_4EEbRKT_', symObjAddr: 0x2B7998, symBinAddr: 0x1002B8C88, symSize: 0x18 }
  - { offsetInCU: 0x177BF, offset: 0x177BF, size: 0x8, addend: 0x0, symName: '__ZNSt3__110__function10__not_nullB8ue170006IZN5Acorn14init_node_typeEvE3$_0EEbRKT_', symObjAddr: 0x2CA808, symBinAddr: 0x1002CBAF8, symSize: 0x18 }
  - { offsetInCU: 0x177F0, offset: 0x177F0, size: 0x8, addend: 0x0, symName: '__ZNSt3__110__function10__not_nullB8ue170006IZN5Acorn15init_value_typeEvE3$_1EEbRKT_', symObjAddr: 0x2D249C, symBinAddr: 0x1002D378C, symSize: 0x18 }
  - { offsetInCU: 0x17A08, offset: 0x17A08, size: 0x8, addend: 0x0, symName: __ZNSt3__119piecewise_constructE, symObjAddr: 0x2F08EB, symBinAddr: 0x1002F4DEB, symSize: 0x0 }
  - { offsetInCU: 0x20787, offset: 0x20787, size: 0x8, addend: 0x0, symName: __ZNSt3__124__put_character_sequenceB8ue170006IcNS_11char_traitsIcEEEERNS_13basic_ostreamIT_T0_EES7_PKS4_m, symObjAddr: 0x47184, symBinAddr: 0x100048474, symSize: 0x744 }
  - { offsetInCU: 0x7DE14, offset: 0x7DE14, size: 0x8, addend: 0x0, symName: __ZNSt3__16copy_nB8ue170006IPKcmPcEENS_9enable_ifIXsr37__has_random_access_iterator_categoryIT_EE5valueET1_E4typeES5_T0_S6_, symObjAddr: 0x2BED70, symBinAddr: 0x1002C0060, symSize: 0x44 }
  - { offsetInCU: 0x80CB6, offset: 0x80CB6, size: 0x8, addend: 0x0, symName: __ZNSt3__17reverseB8ue170006INS_11__wrap_iterIPcEEEEvT_S4_, symObjAddr: 0xF68, symBinAddr: 0x100002258, symSize: 0x348 }
  - { offsetInCU: 0x80CFD, offset: 0x80CFD, size: 0x8, addend: 0x0, symName: __ZNSt3__1plB8ue170006IcNS_11char_traitsIcEENS_9allocatorIcEEEENS_12basic_stringIT_T0_T1_EEOS9_S6_, symObjAddr: 0x1764, symBinAddr: 0x100002A54, symSize: 0x40 }
  - { offsetInCU: 0x80D55, offset: 0x80D55, size: 0x8, addend: 0x0, symName: __ZNSt3__1plB8ue170006IcNS_11char_traitsIcEENS_9allocatorIcEEEENS_12basic_stringIT_T0_T1_EEOS9_PKS6_, symObjAddr: 0x17A4, symBinAddr: 0x100002A94, symSize: 0x40 }
  - { offsetInCU: 0x80DAD, offset: 0x80DAD, size: 0x8, addend: 0x0, symName: __ZNSt3__1plB8ue170006IcNS_11char_traitsIcEENS_9allocatorIcEEEENS_12basic_stringIT_T0_T1_EEOS9_RKS9_, symObjAddr: 0x17E4, symBinAddr: 0x100002AD4, symSize: 0x40 }
  - { offsetInCU: 0x80E05, offset: 0x80E05, size: 0x8, addend: 0x0, symName: __ZNSt3__1eqB8ue170006IcNS_11char_traitsIcEENS_9allocatorIcEEEEbRKNS_12basic_stringIT_T0_T1_EEPKS6_, symObjAddr: 0x71CC, symBinAddr: 0x1000084BC, symSize: 0xC8 }
  - { offsetInCU: 0x80E6C, offset: 0x80E6C, size: 0x8, addend: 0x0, symName: __ZNSt3__1plB8ue170006IcNS_11char_traitsIcEENS_9allocatorIcEEEENS_12basic_stringIT_T0_T1_EEOS9_SA_, symObjAddr: 0x72F0, symBinAddr: 0x1000085E0, symSize: 0x40 }
  - { offsetInCU: 0x80EC4, offset: 0x80EC4, size: 0x8, addend: 0x0, symName: __ZNSt3__16removeB8ue170006INS_11__wrap_iterIPcEEcEET_S4_S4_RKT0_, symObjAddr: 0xC2AC, symBinAddr: 0x10000D59C, symSize: 0x684 }
  - { offsetInCU: 0x80F5F, offset: 0x80F5F, size: 0x8, addend: 0x0, symName: __ZNSt3__1plB8ue170006IcNS_11char_traitsIcEENS_9allocatorIcEEEENS_12basic_stringIT_T0_T1_EERKS9_PKS6_, symObjAddr: 0xD160, symBinAddr: 0x10000E450, symSize: 0x2E8 }
  - { offsetInCU: 0x81006, offset: 0x81006, size: 0x8, addend: 0x0, symName: __ZNSt3__1plB8ue170006IcNS_11char_traitsIcEENS_9allocatorIcEEEENS_12basic_stringIT_T0_T1_EEPKS6_OS9_, symObjAddr: 0x10B5C, symBinAddr: 0x100011E4C, symSize: 0x44 }
  - { offsetInCU: 0x8105E, offset: 0x8105E, size: 0x8, addend: 0x0, symName: __ZNSt3__1eqB8ue170006INS_9allocatorIcEEEEbRKNS_12basic_stringIcNS_11char_traitsIcEET_EES9_, symObjAddr: 0x12980, symBinAddr: 0x100013C70, symSize: 0x234 }
  - { offsetInCU: 0x810D1, offset: 0x810D1, size: 0x8, addend: 0x0, symName: __ZNSt3__1plB8ue170006IcNS_11char_traitsIcEENS_9allocatorIcEEEENS_12basic_stringIT_T0_T1_EERKS9_SB_, symObjAddr: 0x12BB4, symBinAddr: 0x100013EA4, symSize: 0x2F8 }
  - { offsetInCU: 0x812DB, offset: 0x812DB, size: 0x8, addend: 0x0, symName: __ZNSt3__116forward_as_tupleB8ue170006IJN5Acorn8TypePool9make_funcMUlvE_EEEENS_5tupleIJDpOT_EEES7_, symObjAddr: 0x2F374, symBinAddr: 0x100030664, symSize: 0x1F8 }
  - { offsetInCU: 0x81315, offset: 0x81315, size: 0x8, addend: 0x0, symName: __ZNSt3__116forward_as_tupleB8ue170006IJNS_9allocatorIN5Acorn8TypePool9make_funcMUlvE_EEEEEENS_5tupleIJDpOT_EEES9_, symObjAddr: 0x2F56C, symBinAddr: 0x10003085C, symSize: 0x1F8 }
  - { offsetInCU: 0x81394, offset: 0x81394, size: 0x8, addend: 0x0, symName: __ZNSt3__13getB8ue170006ILm0EJON5Acorn8TypePool9make_funcMUlvE_EEEERNS_13tuple_elementIXT_ENS_5tupleIJDpT0_EEEE4typeERS9_, symObjAddr: 0x30440, symBinAddr: 0x100031730, symSize: 0x24 }
  - { offsetInCU: 0x813D6, offset: 0x813D6, size: 0x8, addend: 0x0, symName: __ZNSt3__13getB8ue170006ILm0EJONS_9allocatorIN5Acorn8TypePool9make_funcMUlvE_EEEEEERNS_13tuple_elementIXT_ENS_5tupleIJDpT0_EEEE4typeERSB_, symObjAddr: 0x304C4, symBinAddr: 0x1000317B4, symSize: 0x24 }
  - { offsetInCU: 0x818FC, offset: 0x818FC, size: 0x8, addend: 0x0, symName: __ZNSt3__117__libcpp_allocateB8ue170006Emm, symObjAddr: 0x308B0, symBinAddr: 0x100031BA0, symSize: 0x60 }
  - { offsetInCU: 0x81958, offset: 0x81958, size: 0x8, addend: 0x0, symName: __ZNSt3__124__is_overaligned_for_newB8ue170006Em, symObjAddr: 0x30924, symBinAddr: 0x100031C14, symSize: 0x20 }
  - { offsetInCU: 0x81986, offset: 0x81986, size: 0x8, addend: 0x0, symName: __ZNSt3__121__libcpp_operator_newB8ue170006IJmSt11align_val_tEEEPvDpT_, symObjAddr: 0x30944, symBinAddr: 0x100031C34, symSize: 0x2C }
  - { offsetInCU: 0x819D3, offset: 0x819D3, size: 0x8, addend: 0x0, symName: __ZNSt3__121__libcpp_operator_newB8ue170006IJmEEEPvDpT_, symObjAddr: 0x30970, symBinAddr: 0x100031C60, symSize: 0x24 }
  - { offsetInCU: 0x81A0C, offset: 0x81A0C, size: 0x8, addend: 0x0, symName: __ZNSt3__116forward_as_tupleB8ue170006IJRKN5Acorn8TypePool9make_funcMUlvE_EEEENS_5tupleIJDpOT_EEES9_, symObjAddr: 0x31260, symBinAddr: 0x100032550, symSize: 0x1F8 }
  - { offsetInCU: 0x81A5B, offset: 0x81A5B, size: 0x8, addend: 0x0, symName: __ZNSt3__13getB8ue170006ILm0EJRKN5Acorn8TypePool9make_funcMUlvE_EEEERNS_13tuple_elementIXT_ENS_5tupleIJDpT0_EEEE4typeERSA_, symObjAddr: 0x31DF4, symBinAddr: 0x1000330E4, symSize: 0x24 }
  - { offsetInCU: 0x81A9E, offset: 0x81A9E, size: 0x8, addend: 0x0, symName: __ZNSt3__119__libcpp_deallocateB8ue170006EPvmm, symObjAddr: 0x32140, symBinAddr: 0x100033430, symSize: 0x60 }
  - { offsetInCU: 0x81B05, offset: 0x81B05, size: 0x8, addend: 0x0, symName: __ZNSt3__127__do_deallocate_handle_sizeB8ue170006IJSt11align_val_tEEEvPvmDpT_, symObjAddr: 0x321A0, symBinAddr: 0x100033490, symSize: 0x30 }
  - { offsetInCU: 0x81B59, offset: 0x81B59, size: 0x8, addend: 0x0, symName: __ZNSt3__127__do_deallocate_handle_sizeB8ue170006IJEEEvPvmDpT_, symObjAddr: 0x321D0, symBinAddr: 0x1000334C0, symSize: 0x28 }
  - { offsetInCU: 0x81B98, offset: 0x81B98, size: 0x8, addend: 0x0, symName: __ZNSt3__124__libcpp_operator_deleteB8ue170006IJPvSt11align_val_tEEEvDpT_, symObjAddr: 0x321F8, symBinAddr: 0x1000334E8, symSize: 0x2C }
  - { offsetInCU: 0x81BE2, offset: 0x81BE2, size: 0x8, addend: 0x0, symName: __ZNSt3__124__libcpp_operator_deleteB8ue170006IJPvEEEvDpT_, symObjAddr: 0x32224, symBinAddr: 0x100033514, symSize: 0x24 }
  - { offsetInCU: 0x81C17, offset: 0x81C17, size: 0x8, addend: 0x0, symName: __ZNSt3__116forward_as_tupleB8ue170006IJRKNS_9allocatorIN5Acorn8TypePool9make_funcMUlvE_EEEEEENS_5tupleIJDpOT_EEESB_, symObjAddr: 0x3269C, symBinAddr: 0x10003398C, symSize: 0x1F8 }
  - { offsetInCU: 0x81C66, offset: 0x81C66, size: 0x8, addend: 0x0, symName: __ZNSt3__13getB8ue170006ILm0EJRKNS_9allocatorIN5Acorn8TypePool9make_funcMUlvE_EEEEEERNS_13tuple_elementIXT_ENS_5tupleIJDpT0_EEEE4typeERSC_, symObjAddr: 0x33230, symBinAddr: 0x100034520, symSize: 0x24 }
  - { offsetInCU: 0x81CE3, offset: 0x81CE3, size: 0x8, addend: 0x0, symName: __ZNSt3__18__invokeB8ue170006IRN5Acorn8TypePool9make_funcMUlvE_EJEEEDTclclsr3stdE7declvalIT_EEspclsr3stdE7declvalIT0_EEEEOS5_DpOS6_, symObjAddr: 0x33864, symBinAddr: 0x100034B54, symSize: 0x2BC }
  - { offsetInCU: 0x81D20, offset: 0x81D20, size: 0x8, addend: 0x0, symName: __ZNSt3__14swapB8ue170006IPNS_10__function6__baseIFvRN5Acorn3PtrEEEEEENS_9enable_ifIXaasr21is_move_constructibleIT_EE5valuesr18is_move_assignableISA_EE5valueEvE4typeERSA_SD_, symObjAddr: 0x3961C, symBinAddr: 0x10003A90C, symSize: 0x134 }
  - { offsetInCU: 0x81D73, offset: 0x81D73, size: 0x8, addend: 0x0, symName: __ZNSt3__125__throw_bad_function_callB8ue170006Ev, symObjAddr: 0x3C274, symBinAddr: 0x10003D564, symSize: 0x4C }
  - { offsetInCU: 0x81DC3, offset: 0x81DC3, size: 0x8, addend: 0x0, symName: __ZNSt3__112__to_addressB8ue170006IKcEEPT_S3_, symObjAddr: 0x3FBA0, symBinAddr: 0x100040E90, symSize: 0x14 }
  - { offsetInCU: 0x81E2B, offset: 0x81E2B, size: 0x8, addend: 0x0, symName: __ZNSt3__1neB8ue170006IPKcEEbRKNS_11__wrap_iterIT_EES7_, symObjAddr: 0x41BE0, symBinAddr: 0x100042ED0, symSize: 0x34 }
  - { offsetInCU: 0x81E6E, offset: 0x81E6E, size: 0x8, addend: 0x0, symName: __ZNSt3__1eqB8ue170006IPKcEEbRKNS_11__wrap_iterIT_EES7_, symObjAddr: 0x420E0, symBinAddr: 0x1000433D0, symSize: 0x48 }
  - { offsetInCU: 0x81EB1, offset: 0x81EB1, size: 0x8, addend: 0x0, symName: __ZNSt3__122__cxx_atomic_fetch_addB8ue170006IiEET_PNS_22__cxx_atomic_base_implIS1_EES1_NS_12memory_orderE, symObjAddr: 0x447F4, symBinAddr: 0x100045AE4, symSize: 0x2C0 }
  - { offsetInCU: 0x81F06, offset: 0x81F06, size: 0x8, addend: 0x0, symName: __ZNSt3__122__cxx_atomic_fetch_subB8ue170006IiEET_PNS_22__cxx_atomic_base_implIS1_EES1_NS_12memory_orderE, symObjAddr: 0x46B00, symBinAddr: 0x100047DF0, symSize: 0x2D4 }
  - { offsetInCU: 0x81F5B, offset: 0x81F5B, size: 0x8, addend: 0x0, symName: __ZNSt3__1lsB8ue170006IcNS_11char_traitsIcEENS_9allocatorIcEEEERNS_13basic_ostreamIT_T0_EES9_RKNS_12basic_stringIS6_S7_T1_EE, symObjAddr: 0x47038, symBinAddr: 0x100048328, symSize: 0x4C }
  - { offsetInCU: 0x81FB3, offset: 0x81FB3, size: 0x8, addend: 0x0, symName: __ZNSt3__14endlB8ue170006IcNS_11char_traitsIcEEEERNS_13basic_ostreamIT_T0_EES7_, symObjAddr: 0x470B0, symBinAddr: 0x1000483A0, symSize: 0xD4 }
  - { offsetInCU: 0x81FF3, offset: 0x81FF3, size: 0x8, addend: 0x0, symName: __ZNSt3__116__pad_and_outputB8ue170006IcNS_11char_traitsIcEEEENS_19ostreambuf_iteratorIT_T0_EES6_PKS4_S8_S8_RNS_8ios_baseES4_, symObjAddr: 0x47950, symBinAddr: 0x100048C40, symSize: 0x760 }
  - { offsetInCU: 0x820D0, offset: 0x820D0, size: 0x8, addend: 0x0, symName: __ZNSt3__112__to_addressB8ue170006IcEEPT_S2_, symObjAddr: 0x485AC, symBinAddr: 0x10004989C, symSize: 0x14 }
  - { offsetInCU: 0x82143, offset: 0x82143, size: 0x8, addend: 0x0, symName: __ZNSt3__19use_facetB8ue170006INS_5ctypeIcEEEERKT_RKNS_6localeE, symObjAddr: 0x48B24, symBinAddr: 0x100049E14, symSize: 0x2C }
  - { offsetInCU: 0x82610, offset: 0x82610, size: 0x8, addend: 0x0, symName: __ZNSt3__15flushB8ue170006IcNS_11char_traitsIcEEEERNS_13basic_ostreamIT_T0_EES7_, symObjAddr: 0x4B510, symBinAddr: 0x10004C800, symSize: 0x28 }
  - { offsetInCU: 0x82822, offset: 0x82822, size: 0x8, addend: 0x0, symName: __ZNSt3__116forward_as_tupleB8ue170006IJZN5Acorn5StageC1EvEUlRNS1_7ContextEE_EEENS_5tupleIJDpOT_EEES9_, symObjAddr: 0x5FE90, symBinAddr: 0x100061180, symSize: 0x1F8 }
  - { offsetInCU: 0x8285C, offset: 0x8285C, size: 0x8, addend: 0x0, symName: __ZNSt3__116forward_as_tupleB8ue170006IJNS_9allocatorIZN5Acorn5StageC1EvEUlRNS2_7ContextEE_EEEEENS_5tupleIJDpOT_EEESB_, symObjAddr: 0x60088, symBinAddr: 0x100061378, symSize: 0x1F8 }
  - { offsetInCU: 0x828C0, offset: 0x828C0, size: 0x8, addend: 0x0, symName: __ZNSt3__13getB8ue170006ILm0EJOZN5Acorn5StageC1EvEUlRNS1_7ContextEE_EEERNS_13tuple_elementIXT_ENS_5tupleIJDpT0_EEEE4typeERSB_, symObjAddr: 0x60F5C, symBinAddr: 0x10006224C, symSize: 0x24 }
  - { offsetInCU: 0x82902, offset: 0x82902, size: 0x8, addend: 0x0, symName: __ZNSt3__13getB8ue170006ILm0EJONS_9allocatorIZN5Acorn5StageC1EvEUlRNS2_7ContextEE_EEEEERNS_13tuple_elementIXT_ENS_5tupleIJDpT0_EEEE4typeERSD_, symObjAddr: 0x60FE0, symBinAddr: 0x1000622D0, symSize: 0x24 }
  - { offsetInCU: 0x82E28, offset: 0x82E28, size: 0x8, addend: 0x0, symName: __ZNSt3__116forward_as_tupleB8ue170006IJRKZN5Acorn5StageC1EvEUlRNS1_7ContextEE_EEENS_5tupleIJDpOT_EEESB_, symObjAddr: 0x61C74, symBinAddr: 0x100062F64, symSize: 0x1F8 }
  - { offsetInCU: 0x82E77, offset: 0x82E77, size: 0x8, addend: 0x0, symName: __ZNSt3__13getB8ue170006ILm0EJRKZN5Acorn5StageC1EvEUlRNS1_7ContextEE_EEERNS_13tuple_elementIXT_ENS_5tupleIJDpT0_EEEE4typeERSC_, symObjAddr: 0x62808, symBinAddr: 0x100063AF8, symSize: 0x24 }
  - { offsetInCU: 0x82EB9, offset: 0x82EB9, size: 0x8, addend: 0x0, symName: __ZNSt3__116forward_as_tupleB8ue170006IJRKNS_9allocatorIZN5Acorn5StageC1EvEUlRNS2_7ContextEE_EEEEENS_5tupleIJDpOT_EEESD_, symObjAddr: 0x62FA8, symBinAddr: 0x100064298, symSize: 0x1F8 }
  - { offsetInCU: 0x82F08, offset: 0x82F08, size: 0x8, addend: 0x0, symName: __ZNSt3__13getB8ue170006ILm0EJRKNS_9allocatorIZN5Acorn5StageC1EvEUlRNS2_7ContextEE_EEEEERNS_13tuple_elementIXT_ENS_5tupleIJDpT0_EEEE4typeERSE_, symObjAddr: 0x63B3C, symBinAddr: 0x100064E2C, symSize: 0x24 }
  - { offsetInCU: 0x83DDF, offset: 0x83DDF, size: 0x8, addend: 0x0, symName: __ZNSt3__18__invokeB8ue170006IRZN5Acorn5StageC1EvEUlRNS1_7ContextEE_JS4_EEEDTclclsr3stdE7declvalIT_EEspclsr3stdE7declvalIT0_EEEEOS7_DpOS8_, symObjAddr: 0x63C50, symBinAddr: 0x100064F40, symSize: 0x2C }
  - { offsetInCU: 0x83E2C, offset: 0x83E2C, size: 0x8, addend: 0x0, symName: __ZNSt3__14swapB8ue170006IPNS_10__function6__baseIFvRN5Acorn7ContextEEEEEENS_9enable_ifIXaasr21is_move_constructibleIT_EE5valuesr18is_move_assignableISA_EE5valueEvE4typeERSA_SD_, symObjAddr: 0x64A90, symBinAddr: 0x100065D80, symSize: 0x134 }
  - { offsetInCU: 0x844C5, offset: 0x844C5, size: 0x8, addend: 0x0, symName: __ZNSt3__116forward_as_tupleB8ue170006IJZN5Acorn13Compiler_Unit9add_tokenEcRKNS_12basic_stringIcNS_11char_traitsIcEENS_9allocatorIcEEEEEUlRNS1_7ContextEE_EEENS_5tupleIJDpOT_EEESH_, symObjAddr: 0x7267C, symBinAddr: 0x10007396C, symSize: 0x1F8 }
  - { offsetInCU: 0x844FF, offset: 0x844FF, size: 0x8, addend: 0x0, symName: __ZNSt3__116forward_as_tupleB8ue170006IJNS_9allocatorIZN5Acorn13Compiler_Unit9add_tokenEcRKNS_12basic_stringIcNS_11char_traitsIcEENS1_IcEEEEEUlRNS2_7ContextEE_EEEEENS_5tupleIJDpOT_EEESI_, symObjAddr: 0x72874, symBinAddr: 0x100073B64, symSize: 0x1F8 }
  - { offsetInCU: 0x84563, offset: 0x84563, size: 0x8, addend: 0x0, symName: __ZNSt3__13getB8ue170006ILm0EJOZN5Acorn13Compiler_Unit9add_tokenEcRKNS_12basic_stringIcNS_11char_traitsIcEENS_9allocatorIcEEEEEUlRNS1_7ContextEE_EEERNS_13tuple_elementIXT_ENS_5tupleIJDpT0_EEEE4typeERSJ_, symObjAddr: 0x73758, symBinAddr: 0x100074A48, symSize: 0x24 }
  - { offsetInCU: 0x845A5, offset: 0x845A5, size: 0x8, addend: 0x0, symName: __ZNSt3__13getB8ue170006ILm0EJONS_9allocatorIZN5Acorn13Compiler_Unit9add_tokenEcRKNS_12basic_stringIcNS_11char_traitsIcEENS1_IcEEEEEUlRNS2_7ContextEE_EEEEERNS_13tuple_elementIXT_ENS_5tupleIJDpT0_EEEE4typeERSK_, symObjAddr: 0x737DC, symBinAddr: 0x100074ACC, symSize: 0x24 }
  - { offsetInCU: 0x84773, offset: 0x84773, size: 0x8, addend: 0x0, symName: __ZNSt3__116forward_as_tupleB8ue170006IJRKZN5Acorn13Compiler_Unit9add_tokenEcRKNS_12basic_stringIcNS_11char_traitsIcEENS_9allocatorIcEEEEEUlRNS1_7ContextEE_EEENS_5tupleIJDpOT_EEESJ_, symObjAddr: 0x741A4, symBinAddr: 0x100075494, symSize: 0x1F8 }
  - { offsetInCU: 0x847C2, offset: 0x847C2, size: 0x8, addend: 0x0, symName: __ZNSt3__13getB8ue170006ILm0EJRKZN5Acorn13Compiler_Unit9add_tokenEcRKNS_12basic_stringIcNS_11char_traitsIcEENS_9allocatorIcEEEEEUlRNS1_7ContextEE_EEERNS_13tuple_elementIXT_ENS_5tupleIJDpT0_EEEE4typeERSK_, symObjAddr: 0x74D48, symBinAddr: 0x100076038, symSize: 0x24 }
  - { offsetInCU: 0x84804, offset: 0x84804, size: 0x8, addend: 0x0, symName: __ZNSt3__116forward_as_tupleB8ue170006IJRKNS_9allocatorIZN5Acorn13Compiler_Unit9add_tokenEcRKNS_12basic_stringIcNS_11char_traitsIcEENS1_IcEEEEEUlRNS2_7ContextEE_EEEEENS_5tupleIJDpOT_EEESK_, symObjAddr: 0x754E8, symBinAddr: 0x1000767D8, symSize: 0x1F8 }
  - { offsetInCU: 0x84853, offset: 0x84853, size: 0x8, addend: 0x0, symName: __ZNSt3__13getB8ue170006ILm0EJRKNS_9allocatorIZN5Acorn13Compiler_Unit9add_tokenEcRKNS_12basic_stringIcNS_11char_traitsIcEENS1_IcEEEEEUlRNS2_7ContextEE_EEEEERNS_13tuple_elementIXT_ENS_5tupleIJDpT0_EEEE4typeERSL_, symObjAddr: 0x7607C, symBinAddr: 0x10007736C, symSize: 0x24 }
  - { offsetInCU: 0x84896, offset: 0x84896, size: 0x8, addend: 0x0, symName: __ZNSt3__18__invokeB8ue170006IRZN5Acorn13Compiler_Unit9add_tokenEcRKNS_12basic_stringIcNS_11char_traitsIcEENS_9allocatorIcEEEEEUlRNS1_7ContextEE_JSC_EEEDTclclsr3stdE7declvalIT_EEspclsr3stdE7declvalIT0_EEEEOSF_DpOSG_, symObjAddr: 0x76190, symBinAddr: 0x100077480, symSize: 0x2C }
  - { offsetInCU: 0x84F1F, offset: 0x84F1F, size: 0x8, addend: 0x0, symName: __ZNSt3__116forward_as_tupleB8ue170006IJZN5Acorn13Compiler_Unit19add_binary_operatorEcRKNS_12basic_stringIcNS_11char_traitsIcEENS_9allocatorIcEEEEiEUlRNS1_7ContextEE_EEENS_5tupleIJDpOT_EEESH_, symObjAddr: 0x7A588, symBinAddr: 0x10007B878, symSize: 0x1F8 }
  - { offsetInCU: 0x84F59, offset: 0x84F59, size: 0x8, addend: 0x0, symName: __ZNSt3__116forward_as_tupleB8ue170006IJNS_9allocatorIZN5Acorn13Compiler_Unit19add_binary_operatorEcRKNS_12basic_stringIcNS_11char_traitsIcEENS1_IcEEEEiEUlRNS2_7ContextEE_EEEEENS_5tupleIJDpOT_EEESI_, symObjAddr: 0x7A780, symBinAddr: 0x10007BA70, symSize: 0x1F8 }
  - { offsetInCU: 0x84FBD, offset: 0x84FBD, size: 0x8, addend: 0x0, symName: __ZNSt3__13getB8ue170006ILm0EJOZN5Acorn13Compiler_Unit19add_binary_operatorEcRKNS_12basic_stringIcNS_11char_traitsIcEENS_9allocatorIcEEEEiEUlRNS1_7ContextEE_EEERNS_13tuple_elementIXT_ENS_5tupleIJDpT0_EEEE4typeERSJ_, symObjAddr: 0x7B664, symBinAddr: 0x10007C954, symSize: 0x24 }
  - { offsetInCU: 0x84FFF, offset: 0x84FFF, size: 0x8, addend: 0x0, symName: __ZNSt3__13getB8ue170006ILm0EJONS_9allocatorIZN5Acorn13Compiler_Unit19add_binary_operatorEcRKNS_12basic_stringIcNS_11char_traitsIcEENS1_IcEEEEiEUlRNS2_7ContextEE_EEEEERNS_13tuple_elementIXT_ENS_5tupleIJDpT0_EEEE4typeERSK_, symObjAddr: 0x7B6E8, symBinAddr: 0x10007C9D8, symSize: 0x24 }
  - { offsetInCU: 0x851CD, offset: 0x851CD, size: 0x8, addend: 0x0, symName: __ZNSt3__116forward_as_tupleB8ue170006IJRKZN5Acorn13Compiler_Unit19add_binary_operatorEcRKNS_12basic_stringIcNS_11char_traitsIcEENS_9allocatorIcEEEEiEUlRNS1_7ContextEE_EEENS_5tupleIJDpOT_EEESJ_, symObjAddr: 0x7C0B0, symBinAddr: 0x10007D3A0, symSize: 0x1F8 }
  - { offsetInCU: 0x8521C, offset: 0x8521C, size: 0x8, addend: 0x0, symName: __ZNSt3__13getB8ue170006ILm0EJRKZN5Acorn13Compiler_Unit19add_binary_operatorEcRKNS_12basic_stringIcNS_11char_traitsIcEENS_9allocatorIcEEEEiEUlRNS1_7ContextEE_EEERNS_13tuple_elementIXT_ENS_5tupleIJDpT0_EEEE4typeERSK_, symObjAddr: 0x7CC54, symBinAddr: 0x10007DF44, symSize: 0x24 }
  - { offsetInCU: 0x8525E, offset: 0x8525E, size: 0x8, addend: 0x0, symName: __ZNSt3__116forward_as_tupleB8ue170006IJRKNS_9allocatorIZN5Acorn13Compiler_Unit19add_binary_operatorEcRKNS_12basic_stringIcNS_11char_traitsIcEENS1_IcEEEEiEUlRNS2_7ContextEE_EEEEENS_5tupleIJDpOT_EEESK_, symObjAddr: 0x7D3F8, symBinAddr: 0x10007E6E8, symSize: 0x1F8 }
  - { offsetInCU: 0x852AD, offset: 0x852AD, size: 0x8, addend: 0x0, symName: __ZNSt3__13getB8ue170006ILm0EJRKNS_9allocatorIZN5Acorn13Compiler_Unit19add_binary_operatorEcRKNS_12basic_stringIcNS_11char_traitsIcEENS1_IcEEEEiEUlRNS2_7ContextEE_EEEEERNS_13tuple_elementIXT_ENS_5tupleIJDpT0_EEEE4typeERSL_, symObjAddr: 0x7DF8C, symBinAddr: 0x10007F27C, symSize: 0x24 }
  - { offsetInCU: 0x852F0, offset: 0x852F0, size: 0x8, addend: 0x0, symName: __ZNSt3__18__invokeB8ue170006IRZN5Acorn13Compiler_Unit19add_binary_operatorEcRKNS_12basic_stringIcNS_11char_traitsIcEENS_9allocatorIcEEEEiEUlRNS1_7ContextEE_JSC_EEEDTclclsr3stdE7declvalIT_EEspclsr3stdE7declvalIT0_EEEEOSF_DpOSG_, symObjAddr: 0x7E0A0, symBinAddr: 0x10007F390, symSize: 0x2C }
  - { offsetInCU: 0x8533D, offset: 0x8533D, size: 0x8, addend: 0x0, symName: __ZNSt3__1plB8ue170006IcNS_11char_traitsIcEENS_9allocatorIcEEEENS_12basic_stringIT_T0_T1_EES6_OS9_, symObjAddr: 0x816DC, symBinAddr: 0x1000829CC, symSize: 0x30C }
  - { offsetInCU: 0x854FA, offset: 0x854FA, size: 0x8, addend: 0x0, symName: __ZNSt3__116forward_as_tupleB8ue170006IJZN5Acorn13Compiler_Unit13init_literalsEvEUlRNS1_7ContextEE_EEENS_5tupleIJDpOT_EEES9_, symObjAddr: 0x8F008, symBinAddr: 0x1000902F8, symSize: 0x1F8 }
  - { offsetInCU: 0x85534, offset: 0x85534, size: 0x8, addend: 0x0, symName: __ZNSt3__116forward_as_tupleB8ue170006IJNS_9allocatorIZN5Acorn13Compiler_Unit13init_literalsEvEUlRNS2_7ContextEE_EEEEENS_5tupleIJDpOT_EEESB_, symObjAddr: 0x8F200, symBinAddr: 0x1000904F0, symSize: 0x1F8 }
  - { offsetInCU: 0x85598, offset: 0x85598, size: 0x8, addend: 0x0, symName: __ZNSt3__13getB8ue170006ILm0EJOZN5Acorn13Compiler_Unit13init_literalsEvEUlRNS1_7ContextEE_EEERNS_13tuple_elementIXT_ENS_5tupleIJDpT0_EEEE4typeERSB_, symObjAddr: 0x900D4, symBinAddr: 0x1000913C4, symSize: 0x24 }
  - { offsetInCU: 0x855DA, offset: 0x855DA, size: 0x8, addend: 0x0, symName: __ZNSt3__13getB8ue170006ILm0EJONS_9allocatorIZN5Acorn13Compiler_Unit13init_literalsEvEUlRNS2_7ContextEE_EEEEERNS_13tuple_elementIXT_ENS_5tupleIJDpT0_EEEE4typeERSD_, symObjAddr: 0x90158, symBinAddr: 0x100091448, symSize: 0x24 }
  - { offsetInCU: 0x85B00, offset: 0x85B00, size: 0x8, addend: 0x0, symName: __ZNSt3__116forward_as_tupleB8ue170006IJRKZN5Acorn13Compiler_Unit13init_literalsEvEUlRNS1_7ContextEE_EEENS_5tupleIJDpOT_EEESB_, symObjAddr: 0x90DEC, symBinAddr: 0x1000920DC, symSize: 0x1F8 }
  - { offsetInCU: 0x85B4F, offset: 0x85B4F, size: 0x8, addend: 0x0, symName: __ZNSt3__13getB8ue170006ILm0EJRKZN5Acorn13Compiler_Unit13init_literalsEvEUlRNS1_7ContextEE_EEERNS_13tuple_elementIXT_ENS_5tupleIJDpT0_EEEE4typeERSC_, symObjAddr: 0x91980, symBinAddr: 0x100092C70, symSize: 0x24 }
  - { offsetInCU: 0x85B91, offset: 0x85B91, size: 0x8, addend: 0x0, symName: __ZNSt3__116forward_as_tupleB8ue170006IJRKNS_9allocatorIZN5Acorn13Compiler_Unit13init_literalsEvEUlRNS2_7ContextEE_EEEEENS_5tupleIJDpOT_EEESD_, symObjAddr: 0x92120, symBinAddr: 0x100093410, symSize: 0x1F8 }
  - { offsetInCU: 0x85BE0, offset: 0x85BE0, size: 0x8, addend: 0x0, symName: __ZNSt3__13getB8ue170006ILm0EJRKNS_9allocatorIZN5Acorn13Compiler_Unit13init_literalsEvEUlRNS2_7ContextEE_EEEEERNS_13tuple_elementIXT_ENS_5tupleIJDpT0_EEEE4typeERSE_, symObjAddr: 0x92CB4, symBinAddr: 0x100093FA4, symSize: 0x24 }
  - { offsetInCU: 0x85C23, offset: 0x85C23, size: 0x8, addend: 0x0, symName: __ZNSt3__18__invokeB8ue170006IRZN5Acorn13Compiler_Unit13init_literalsEvEUlRNS1_7ContextEE_JS4_EEEDTclclsr3stdE7declvalIT_EEspclsr3stdE7declvalIT0_EEEEOS7_DpOS8_, symObjAddr: 0x92DC8, symBinAddr: 0x1000940B8, symSize: 0x2C }
  - { offsetInCU: 0x85DD3, offset: 0x85DD3, size: 0x8, addend: 0x0, symName: __ZNSt3__116forward_as_tupleB8ue170006IJZN5Acorn13Compiler_Unit13init_literalsEvEUlRNS1_7ContextEE0_EEENS_5tupleIJDpOT_EEES9_, symObjAddr: 0x9454C, symBinAddr: 0x10009583C, symSize: 0x1F8 }
  - { offsetInCU: 0x85E0D, offset: 0x85E0D, size: 0x8, addend: 0x0, symName: __ZNSt3__116forward_as_tupleB8ue170006IJNS_9allocatorIZN5Acorn13Compiler_Unit13init_literalsEvEUlRNS2_7ContextEE0_EEEEENS_5tupleIJDpOT_EEESB_, symObjAddr: 0x94744, symBinAddr: 0x100095A34, symSize: 0x1F8 }
  - { offsetInCU: 0x85E71, offset: 0x85E71, size: 0x8, addend: 0x0, symName: __ZNSt3__13getB8ue170006ILm0EJOZN5Acorn13Compiler_Unit13init_literalsEvEUlRNS1_7ContextEE0_EEERNS_13tuple_elementIXT_ENS_5tupleIJDpT0_EEEE4typeERSB_, symObjAddr: 0x95618, symBinAddr: 0x100096908, symSize: 0x24 }
  - { offsetInCU: 0x85EB3, offset: 0x85EB3, size: 0x8, addend: 0x0, symName: __ZNSt3__13getB8ue170006ILm0EJONS_9allocatorIZN5Acorn13Compiler_Unit13init_literalsEvEUlRNS2_7ContextEE0_EEEEERNS_13tuple_elementIXT_ENS_5tupleIJDpT0_EEEE4typeERSD_, symObjAddr: 0x9569C, symBinAddr: 0x10009698C, symSize: 0x24 }
  - { offsetInCU: 0x863D9, offset: 0x863D9, size: 0x8, addend: 0x0, symName: __ZNSt3__116forward_as_tupleB8ue170006IJRKZN5Acorn13Compiler_Unit13init_literalsEvEUlRNS1_7ContextEE0_EEENS_5tupleIJDpOT_EEESB_, symObjAddr: 0x96330, symBinAddr: 0x100097620, symSize: 0x1F8 }
  - { offsetInCU: 0x86428, offset: 0x86428, size: 0x8, addend: 0x0, symName: __ZNSt3__13getB8ue170006ILm0EJRKZN5Acorn13Compiler_Unit13init_literalsEvEUlRNS1_7ContextEE0_EEERNS_13tuple_elementIXT_ENS_5tupleIJDpT0_EEEE4typeERSC_, symObjAddr: 0x96EC4, symBinAddr: 0x1000981B4, symSize: 0x24 }
  - { offsetInCU: 0x8646A, offset: 0x8646A, size: 0x8, addend: 0x0, symName: __ZNSt3__116forward_as_tupleB8ue170006IJRKNS_9allocatorIZN5Acorn13Compiler_Unit13init_literalsEvEUlRNS2_7ContextEE0_EEEEENS_5tupleIJDpOT_EEESD_, symObjAddr: 0x97664, symBinAddr: 0x100098954, symSize: 0x1F8 }
  - { offsetInCU: 0x864B9, offset: 0x864B9, size: 0x8, addend: 0x0, symName: __ZNSt3__13getB8ue170006ILm0EJRKNS_9allocatorIZN5Acorn13Compiler_Unit13init_literalsEvEUlRNS2_7ContextEE0_EEEEERNS_13tuple_elementIXT_ENS_5tupleIJDpT0_EEEE4typeERSE_, symObjAddr: 0x981F8, symBinAddr: 0x1000994E8, symSize: 0x24 }
  - { offsetInCU: 0x864FC, offset: 0x864FC, size: 0x8, addend: 0x0, symName: __ZNSt3__18__invokeB8ue170006IRZN5Acorn13Compiler_Unit13init_literalsEvEUlRNS1_7ContextEE0_JS4_EEEDTclclsr3stdE7declvalIT_EEspclsr3stdE7declvalIT0_EEEEOS7_DpOS8_, symObjAddr: 0x9830C, symBinAddr: 0x1000995FC, symSize: 0x2C }
  - { offsetInCU: 0x866AC, offset: 0x866AC, size: 0x8, addend: 0x0, symName: __ZNSt3__116forward_as_tupleB8ue170006IJZN5Acorn13Compiler_Unit13init_literalsEvEUlRNS1_7ContextEE1_EEENS_5tupleIJDpOT_EEES9_, symObjAddr: 0x99A90, symBinAddr: 0x10009AD80, symSize: 0x1F8 }
  - { offsetInCU: 0x866E6, offset: 0x866E6, size: 0x8, addend: 0x0, symName: __ZNSt3__116forward_as_tupleB8ue170006IJNS_9allocatorIZN5Acorn13Compiler_Unit13init_literalsEvEUlRNS2_7ContextEE1_EEEEENS_5tupleIJDpOT_EEESB_, symObjAddr: 0x99C88, symBinAddr: 0x10009AF78, symSize: 0x1F8 }
  - { offsetInCU: 0x8674A, offset: 0x8674A, size: 0x8, addend: 0x0, symName: __ZNSt3__13getB8ue170006ILm0EJOZN5Acorn13Compiler_Unit13init_literalsEvEUlRNS1_7ContextEE1_EEERNS_13tuple_elementIXT_ENS_5tupleIJDpT0_EEEE4typeERSB_, symObjAddr: 0x9AB5C, symBinAddr: 0x10009BE4C, symSize: 0x24 }
  - { offsetInCU: 0x8678C, offset: 0x8678C, size: 0x8, addend: 0x0, symName: __ZNSt3__13getB8ue170006ILm0EJONS_9allocatorIZN5Acorn13Compiler_Unit13init_literalsEvEUlRNS2_7ContextEE1_EEEEERNS_13tuple_elementIXT_ENS_5tupleIJDpT0_EEEE4typeERSD_, symObjAddr: 0x9ABE0, symBinAddr: 0x10009BED0, symSize: 0x24 }
  - { offsetInCU: 0x86CB2, offset: 0x86CB2, size: 0x8, addend: 0x0, symName: __ZNSt3__116forward_as_tupleB8ue170006IJRKZN5Acorn13Compiler_Unit13init_literalsEvEUlRNS1_7ContextEE1_EEENS_5tupleIJDpOT_EEESB_, symObjAddr: 0x9B874, symBinAddr: 0x10009CB64, symSize: 0x1F8 }
  - { offsetInCU: 0x86D01, offset: 0x86D01, size: 0x8, addend: 0x0, symName: __ZNSt3__13getB8ue170006ILm0EJRKZN5Acorn13Compiler_Unit13init_literalsEvEUlRNS1_7ContextEE1_EEERNS_13tuple_elementIXT_ENS_5tupleIJDpT0_EEEE4typeERSC_, symObjAddr: 0x9C408, symBinAddr: 0x10009D6F8, symSize: 0x24 }
  - { offsetInCU: 0x86D43, offset: 0x86D43, size: 0x8, addend: 0x0, symName: __ZNSt3__116forward_as_tupleB8ue170006IJRKNS_9allocatorIZN5Acorn13Compiler_Unit13init_literalsEvEUlRNS2_7ContextEE1_EEEEENS_5tupleIJDpOT_EEESD_, symObjAddr: 0x9CBA8, symBinAddr: 0x10009DE98, symSize: 0x1F8 }
  - { offsetInCU: 0x86D92, offset: 0x86D92, size: 0x8, addend: 0x0, symName: __ZNSt3__13getB8ue170006ILm0EJRKNS_9allocatorIZN5Acorn13Compiler_Unit13init_literalsEvEUlRNS2_7ContextEE1_EEEEERNS_13tuple_elementIXT_ENS_5tupleIJDpT0_EEEE4typeERSE_, symObjAddr: 0x9D73C, symBinAddr: 0x10009EA2C, symSize: 0x24 }
  - { offsetInCU: 0x86DD5, offset: 0x86DD5, size: 0x8, addend: 0x0, symName: __ZNSt3__18__invokeB8ue170006IRZN5Acorn13Compiler_Unit13init_literalsEvEUlRNS1_7ContextEE1_JS4_EEEDTclclsr3stdE7declvalIT_EEspclsr3stdE7declvalIT0_EEEEOS7_DpOS8_, symObjAddr: 0x9D850, symBinAddr: 0x10009EB40, symSize: 0x2C }
  - { offsetInCU: 0x86F85, offset: 0x86F85, size: 0x8, addend: 0x0, symName: __ZNSt3__116forward_as_tupleB8ue170006IJZN5Acorn13Compiler_Unit13init_literalsEvEUlRNS1_7ContextEE2_EEENS_5tupleIJDpOT_EEES9_, symObjAddr: 0x9F2D0, symBinAddr: 0x1000A05C0, symSize: 0x1F8 }
  - { offsetInCU: 0x86FBF, offset: 0x86FBF, size: 0x8, addend: 0x0, symName: __ZNSt3__116forward_as_tupleB8ue170006IJNS_9allocatorIZN5Acorn13Compiler_Unit13init_literalsEvEUlRNS2_7ContextEE2_EEEEENS_5tupleIJDpOT_EEESB_, symObjAddr: 0x9F4C8, symBinAddr: 0x1000A07B8, symSize: 0x1F8 }
  - { offsetInCU: 0x87023, offset: 0x87023, size: 0x8, addend: 0x0, symName: __ZNSt3__13getB8ue170006ILm0EJOZN5Acorn13Compiler_Unit13init_literalsEvEUlRNS1_7ContextEE2_EEERNS_13tuple_elementIXT_ENS_5tupleIJDpT0_EEEE4typeERSB_, symObjAddr: 0xA039C, symBinAddr: 0x1000A168C, symSize: 0x24 }
  - { offsetInCU: 0x87065, offset: 0x87065, size: 0x8, addend: 0x0, symName: __ZNSt3__13getB8ue170006ILm0EJONS_9allocatorIZN5Acorn13Compiler_Unit13init_literalsEvEUlRNS2_7ContextEE2_EEEEERNS_13tuple_elementIXT_ENS_5tupleIJDpT0_EEEE4typeERSD_, symObjAddr: 0xA0420, symBinAddr: 0x1000A1710, symSize: 0x24 }
  - { offsetInCU: 0x8758B, offset: 0x8758B, size: 0x8, addend: 0x0, symName: __ZNSt3__116forward_as_tupleB8ue170006IJRKZN5Acorn13Compiler_Unit13init_literalsEvEUlRNS1_7ContextEE2_EEENS_5tupleIJDpOT_EEESB_, symObjAddr: 0xA10B4, symBinAddr: 0x1000A23A4, symSize: 0x1F8 }
  - { offsetInCU: 0x875DA, offset: 0x875DA, size: 0x8, addend: 0x0, symName: __ZNSt3__13getB8ue170006ILm0EJRKZN5Acorn13Compiler_Unit13init_literalsEvEUlRNS1_7ContextEE2_EEERNS_13tuple_elementIXT_ENS_5tupleIJDpT0_EEEE4typeERSC_, symObjAddr: 0xA1C48, symBinAddr: 0x1000A2F38, symSize: 0x24 }
  - { offsetInCU: 0x8761C, offset: 0x8761C, size: 0x8, addend: 0x0, symName: __ZNSt3__116forward_as_tupleB8ue170006IJRKNS_9allocatorIZN5Acorn13Compiler_Unit13init_literalsEvEUlRNS2_7ContextEE2_EEEEENS_5tupleIJDpOT_EEESD_, symObjAddr: 0xA23E8, symBinAddr: 0x1000A36D8, symSize: 0x1F8 }
  - { offsetInCU: 0x8766B, offset: 0x8766B, size: 0x8, addend: 0x0, symName: __ZNSt3__13getB8ue170006ILm0EJRKNS_9allocatorIZN5Acorn13Compiler_Unit13init_literalsEvEUlRNS2_7ContextEE2_EEEEERNS_13tuple_elementIXT_ENS_5tupleIJDpT0_EEEE4typeERSE_, symObjAddr: 0xA2F7C, symBinAddr: 0x1000A426C, symSize: 0x24 }
  - { offsetInCU: 0x876AE, offset: 0x876AE, size: 0x8, addend: 0x0, symName: __ZNSt3__18__invokeB8ue170006IRZN5Acorn13Compiler_Unit13init_literalsEvEUlRNS1_7ContextEE2_JS4_EEEDTclclsr3stdE7declvalIT_EEspclsr3stdE7declvalIT0_EEEEOS7_DpOS8_, symObjAddr: 0xA3090, symBinAddr: 0x1000A4380, symSize: 0x2C }
  - { offsetInCU: 0x8785E, offset: 0x8785E, size: 0x8, addend: 0x0, symName: __ZNSt3__116forward_as_tupleB8ue170006IJZN5Acorn13Compiler_Unit13init_literalsEvEUlRNS1_7ContextEE3_EEENS_5tupleIJDpOT_EEES9_, symObjAddr: 0xA47D0, symBinAddr: 0x1000A5AC0, symSize: 0x1F8 }
  - { offsetInCU: 0x87898, offset: 0x87898, size: 0x8, addend: 0x0, symName: __ZNSt3__116forward_as_tupleB8ue170006IJNS_9allocatorIZN5Acorn13Compiler_Unit13init_literalsEvEUlRNS2_7ContextEE3_EEEEENS_5tupleIJDpOT_EEESB_, symObjAddr: 0xA49C8, symBinAddr: 0x1000A5CB8, symSize: 0x1F8 }
  - { offsetInCU: 0x878FC, offset: 0x878FC, size: 0x8, addend: 0x0, symName: __ZNSt3__13getB8ue170006ILm0EJOZN5Acorn13Compiler_Unit13init_literalsEvEUlRNS1_7ContextEE3_EEERNS_13tuple_elementIXT_ENS_5tupleIJDpT0_EEEE4typeERSB_, symObjAddr: 0xA589C, symBinAddr: 0x1000A6B8C, symSize: 0x24 }
  - { offsetInCU: 0x8793E, offset: 0x8793E, size: 0x8, addend: 0x0, symName: __ZNSt3__13getB8ue170006ILm0EJONS_9allocatorIZN5Acorn13Compiler_Unit13init_literalsEvEUlRNS2_7ContextEE3_EEEEERNS_13tuple_elementIXT_ENS_5tupleIJDpT0_EEEE4typeERSD_, symObjAddr: 0xA5920, symBinAddr: 0x1000A6C10, symSize: 0x24 }
  - { offsetInCU: 0x87E64, offset: 0x87E64, size: 0x8, addend: 0x0, symName: __ZNSt3__116forward_as_tupleB8ue170006IJRKZN5Acorn13Compiler_Unit13init_literalsEvEUlRNS1_7ContextEE3_EEENS_5tupleIJDpOT_EEESB_, symObjAddr: 0xA65B4, symBinAddr: 0x1000A78A4, symSize: 0x1F8 }
  - { offsetInCU: 0x87EB3, offset: 0x87EB3, size: 0x8, addend: 0x0, symName: __ZNSt3__13getB8ue170006ILm0EJRKZN5Acorn13Compiler_Unit13init_literalsEvEUlRNS1_7ContextEE3_EEERNS_13tuple_elementIXT_ENS_5tupleIJDpT0_EEEE4typeERSC_, symObjAddr: 0xA7148, symBinAddr: 0x1000A8438, symSize: 0x24 }
  - { offsetInCU: 0x87EF5, offset: 0x87EF5, size: 0x8, addend: 0x0, symName: __ZNSt3__116forward_as_tupleB8ue170006IJRKNS_9allocatorIZN5Acorn13Compiler_Unit13init_literalsEvEUlRNS2_7ContextEE3_EEEEENS_5tupleIJDpOT_EEESD_, symObjAddr: 0xA78E8, symBinAddr: 0x1000A8BD8, symSize: 0x1F8 }
  - { offsetInCU: 0x87F44, offset: 0x87F44, size: 0x8, addend: 0x0, symName: __ZNSt3__13getB8ue170006ILm0EJRKNS_9allocatorIZN5Acorn13Compiler_Unit13init_literalsEvEUlRNS2_7ContextEE3_EEEEERNS_13tuple_elementIXT_ENS_5tupleIJDpT0_EEEE4typeERSE_, symObjAddr: 0xA847C, symBinAddr: 0x1000A976C, symSize: 0x24 }
  - { offsetInCU: 0x87F87, offset: 0x87F87, size: 0x8, addend: 0x0, symName: __ZNSt3__18__invokeB8ue170006IRZN5Acorn13Compiler_Unit13init_literalsEvEUlRNS1_7ContextEE3_JS4_EEEDTclclsr3stdE7declvalIT_EEspclsr3stdE7declvalIT0_EEEEOS7_DpOS8_, symObjAddr: 0xA8590, symBinAddr: 0x1000A9880, symSize: 0x2C }
  - { offsetInCU: 0x88137, offset: 0x88137, size: 0x8, addend: 0x0, symName: __ZNSt3__116forward_as_tupleB8ue170006IJZN5Acorn13Compiler_Unit13init_literalsEvEUlRNS1_7ContextEE4_EEENS_5tupleIJDpOT_EEES9_, symObjAddr: 0xA9D50, symBinAddr: 0x1000AB040, symSize: 0x1F8 }
  - { offsetInCU: 0x88171, offset: 0x88171, size: 0x8, addend: 0x0, symName: __ZNSt3__116forward_as_tupleB8ue170006IJNS_9allocatorIZN5Acorn13Compiler_Unit13init_literalsEvEUlRNS2_7ContextEE4_EEEEENS_5tupleIJDpOT_EEESB_, symObjAddr: 0xA9F48, symBinAddr: 0x1000AB238, symSize: 0x1F8 }
  - { offsetInCU: 0x881D5, offset: 0x881D5, size: 0x8, addend: 0x0, symName: __ZNSt3__13getB8ue170006ILm0EJOZN5Acorn13Compiler_Unit13init_literalsEvEUlRNS1_7ContextEE4_EEERNS_13tuple_elementIXT_ENS_5tupleIJDpT0_EEEE4typeERSB_, symObjAddr: 0xAAE2C, symBinAddr: 0x1000AC11C, symSize: 0x24 }
  - { offsetInCU: 0x88217, offset: 0x88217, size: 0x8, addend: 0x0, symName: __ZNSt3__13getB8ue170006ILm0EJONS_9allocatorIZN5Acorn13Compiler_Unit13init_literalsEvEUlRNS2_7ContextEE4_EEEEERNS_13tuple_elementIXT_ENS_5tupleIJDpT0_EEEE4typeERSD_, symObjAddr: 0xAAEB0, symBinAddr: 0x1000AC1A0, symSize: 0x24 }
  - { offsetInCU: 0x8873D, offset: 0x8873D, size: 0x8, addend: 0x0, symName: __ZNSt3__116forward_as_tupleB8ue170006IJRKZN5Acorn13Compiler_Unit13init_literalsEvEUlRNS1_7ContextEE4_EEENS_5tupleIJDpOT_EEESB_, symObjAddr: 0xABB44, symBinAddr: 0x1000ACE34, symSize: 0x1F8 }
  - { offsetInCU: 0x8878C, offset: 0x8878C, size: 0x8, addend: 0x0, symName: __ZNSt3__13getB8ue170006ILm0EJRKZN5Acorn13Compiler_Unit13init_literalsEvEUlRNS1_7ContextEE4_EEERNS_13tuple_elementIXT_ENS_5tupleIJDpT0_EEEE4typeERSC_, symObjAddr: 0xAC6E8, symBinAddr: 0x1000AD9D8, symSize: 0x24 }
  - { offsetInCU: 0x887CE, offset: 0x887CE, size: 0x8, addend: 0x0, symName: __ZNSt3__116forward_as_tupleB8ue170006IJRKNS_9allocatorIZN5Acorn13Compiler_Unit13init_literalsEvEUlRNS2_7ContextEE4_EEEEENS_5tupleIJDpOT_EEESD_, symObjAddr: 0xACE88, symBinAddr: 0x1000AE178, symSize: 0x1F8 }
  - { offsetInCU: 0x8881D, offset: 0x8881D, size: 0x8, addend: 0x0, symName: __ZNSt3__13getB8ue170006ILm0EJRKNS_9allocatorIZN5Acorn13Compiler_Unit13init_literalsEvEUlRNS2_7ContextEE4_EEEEERNS_13tuple_elementIXT_ENS_5tupleIJDpT0_EEEE4typeERSE_, symObjAddr: 0xADA1C, symBinAddr: 0x1000AED0C, symSize: 0x24 }
  - { offsetInCU: 0x88860, offset: 0x88860, size: 0x8, addend: 0x0, symName: __ZNSt3__18__invokeB8ue170006IRZN5Acorn13Compiler_Unit13init_literalsEvEUlRNS1_7ContextEE4_JS4_EEEDTclclsr3stdE7declvalIT_EEspclsr3stdE7declvalIT0_EEEEOS7_DpOS8_, symObjAddr: 0xADB30, symBinAddr: 0x1000AEE20, symSize: 0x2C }
  - { offsetInCU: 0x88A10, offset: 0x88A10, size: 0x8, addend: 0x0, symName: __ZNSt3__116forward_as_tupleB8ue170006IJZN5Acorn13Compiler_Unit13init_literalsEvEUlRNS1_7ContextEE5_EEENS_5tupleIJDpOT_EEES9_, symObjAddr: 0xAF578, symBinAddr: 0x1000B0868, symSize: 0x1F8 }
  - { offsetInCU: 0x88A4A, offset: 0x88A4A, size: 0x8, addend: 0x0, symName: __ZNSt3__116forward_as_tupleB8ue170006IJNS_9allocatorIZN5Acorn13Compiler_Unit13init_literalsEvEUlRNS2_7ContextEE5_EEEEENS_5tupleIJDpOT_EEESB_, symObjAddr: 0xAF770, symBinAddr: 0x1000B0A60, symSize: 0x1F8 }
  - { offsetInCU: 0x88AAE, offset: 0x88AAE, size: 0x8, addend: 0x0, symName: __ZNSt3__13getB8ue170006ILm0EJOZN5Acorn13Compiler_Unit13init_literalsEvEUlRNS1_7ContextEE5_EEERNS_13tuple_elementIXT_ENS_5tupleIJDpT0_EEEE4typeERSB_, symObjAddr: 0xB0654, symBinAddr: 0x1000B1944, symSize: 0x24 }
  - { offsetInCU: 0x88AF0, offset: 0x88AF0, size: 0x8, addend: 0x0, symName: __ZNSt3__13getB8ue170006ILm0EJONS_9allocatorIZN5Acorn13Compiler_Unit13init_literalsEvEUlRNS2_7ContextEE5_EEEEERNS_13tuple_elementIXT_ENS_5tupleIJDpT0_EEEE4typeERSD_, symObjAddr: 0xB06D8, symBinAddr: 0x1000B19C8, symSize: 0x24 }
  - { offsetInCU: 0x89016, offset: 0x89016, size: 0x8, addend: 0x0, symName: __ZNSt3__116forward_as_tupleB8ue170006IJRKZN5Acorn13Compiler_Unit13init_literalsEvEUlRNS1_7ContextEE5_EEENS_5tupleIJDpOT_EEESB_, symObjAddr: 0xB136C, symBinAddr: 0x1000B265C, symSize: 0x1F8 }
  - { offsetInCU: 0x89065, offset: 0x89065, size: 0x8, addend: 0x0, symName: __ZNSt3__13getB8ue170006ILm0EJRKZN5Acorn13Compiler_Unit13init_literalsEvEUlRNS1_7ContextEE5_EEERNS_13tuple_elementIXT_ENS_5tupleIJDpT0_EEEE4typeERSC_, symObjAddr: 0xB1F10, symBinAddr: 0x1000B3200, symSize: 0x24 }
  - { offsetInCU: 0x890A7, offset: 0x890A7, size: 0x8, addend: 0x0, symName: __ZNSt3__116forward_as_tupleB8ue170006IJRKNS_9allocatorIZN5Acorn13Compiler_Unit13init_literalsEvEUlRNS2_7ContextEE5_EEEEENS_5tupleIJDpOT_EEESD_, symObjAddr: 0xB26B0, symBinAddr: 0x1000B39A0, symSize: 0x1F8 }
  - { offsetInCU: 0x890F6, offset: 0x890F6, size: 0x8, addend: 0x0, symName: __ZNSt3__13getB8ue170006ILm0EJRKNS_9allocatorIZN5Acorn13Compiler_Unit13init_literalsEvEUlRNS2_7ContextEE5_EEEEERNS_13tuple_elementIXT_ENS_5tupleIJDpT0_EEEE4typeERSE_, symObjAddr: 0xB3244, symBinAddr: 0x1000B4534, symSize: 0x24 }
  - { offsetInCU: 0x89139, offset: 0x89139, size: 0x8, addend: 0x0, symName: __ZNSt3__18__invokeB8ue170006IRZN5Acorn13Compiler_Unit13init_literalsEvEUlRNS1_7ContextEE5_JS4_EEEDTclclsr3stdE7declvalIT_EEspclsr3stdE7declvalIT0_EEEEOS7_DpOS8_, symObjAddr: 0xB3358, symBinAddr: 0x1000B4648, symSize: 0x2C }
  - { offsetInCU: 0x892E9, offset: 0x892E9, size: 0x8, addend: 0x0, symName: __ZNSt3__116forward_as_tupleB8ue170006IJZN5Acorn13Compiler_Unit13init_literalsEvEUlRNS1_7ContextEE6_EEENS_5tupleIJDpOT_EEES9_, symObjAddr: 0xB5F00, symBinAddr: 0x1000B71F0, symSize: 0x1F8 }
  - { offsetInCU: 0x89323, offset: 0x89323, size: 0x8, addend: 0x0, symName: __ZNSt3__116forward_as_tupleB8ue170006IJNS_9allocatorIZN5Acorn13Compiler_Unit13init_literalsEvEUlRNS2_7ContextEE6_EEEEENS_5tupleIJDpOT_EEESB_, symObjAddr: 0xB60F8, symBinAddr: 0x1000B73E8, symSize: 0x1F8 }
  - { offsetInCU: 0x89387, offset: 0x89387, size: 0x8, addend: 0x0, symName: __ZNSt3__13getB8ue170006ILm0EJOZN5Acorn13Compiler_Unit13init_literalsEvEUlRNS1_7ContextEE6_EEERNS_13tuple_elementIXT_ENS_5tupleIJDpT0_EEEE4typeERSB_, symObjAddr: 0xB6FDC, symBinAddr: 0x1000B82CC, symSize: 0x24 }
  - { offsetInCU: 0x893C9, offset: 0x893C9, size: 0x8, addend: 0x0, symName: __ZNSt3__13getB8ue170006ILm0EJONS_9allocatorIZN5Acorn13Compiler_Unit13init_literalsEvEUlRNS2_7ContextEE6_EEEEERNS_13tuple_elementIXT_ENS_5tupleIJDpT0_EEEE4typeERSD_, symObjAddr: 0xB7060, symBinAddr: 0x1000B8350, symSize: 0x24 }
  - { offsetInCU: 0x898EF, offset: 0x898EF, size: 0x8, addend: 0x0, symName: __ZNSt3__116forward_as_tupleB8ue170006IJRKZN5Acorn13Compiler_Unit13init_literalsEvEUlRNS1_7ContextEE6_EEENS_5tupleIJDpOT_EEESB_, symObjAddr: 0xB7CF4, symBinAddr: 0x1000B8FE4, symSize: 0x1F8 }
  - { offsetInCU: 0x8993E, offset: 0x8993E, size: 0x8, addend: 0x0, symName: __ZNSt3__13getB8ue170006ILm0EJRKZN5Acorn13Compiler_Unit13init_literalsEvEUlRNS1_7ContextEE6_EEERNS_13tuple_elementIXT_ENS_5tupleIJDpT0_EEEE4typeERSC_, symObjAddr: 0xB8898, symBinAddr: 0x1000B9B88, symSize: 0x24 }
  - { offsetInCU: 0x89980, offset: 0x89980, size: 0x8, addend: 0x0, symName: __ZNSt3__116forward_as_tupleB8ue170006IJRKNS_9allocatorIZN5Acorn13Compiler_Unit13init_literalsEvEUlRNS2_7ContextEE6_EEEEENS_5tupleIJDpOT_EEESD_, symObjAddr: 0xB9038, symBinAddr: 0x1000BA328, symSize: 0x1F8 }
  - { offsetInCU: 0x899CF, offset: 0x899CF, size: 0x8, addend: 0x0, symName: __ZNSt3__13getB8ue170006ILm0EJRKNS_9allocatorIZN5Acorn13Compiler_Unit13init_literalsEvEUlRNS2_7ContextEE6_EEEEERNS_13tuple_elementIXT_ENS_5tupleIJDpT0_EEEE4typeERSE_, symObjAddr: 0xB9BCC, symBinAddr: 0x1000BAEBC, symSize: 0x24 }
  - { offsetInCU: 0x89A12, offset: 0x89A12, size: 0x8, addend: 0x0, symName: __ZNSt3__18__invokeB8ue170006IRZN5Acorn13Compiler_Unit13init_literalsEvEUlRNS1_7ContextEE6_JS4_EEEDTclclsr3stdE7declvalIT_EEspclsr3stdE7declvalIT0_EEEEOS7_DpOS8_, symObjAddr: 0xB9CE0, symBinAddr: 0x1000BAFD0, symSize: 0x2C }
  - { offsetInCU: 0x89BC2, offset: 0x89BC2, size: 0x8, addend: 0x0, symName: __ZNSt3__116forward_as_tupleB8ue170006IJZN5Acorn13Compiler_Unit13init_literalsEvEUlRNS1_7ContextEE7_EEENS_5tupleIJDpOT_EEES9_, symObjAddr: 0xBB8F8, symBinAddr: 0x1000BCBE8, symSize: 0x1F8 }
  - { offsetInCU: 0x89BFC, offset: 0x89BFC, size: 0x8, addend: 0x0, symName: __ZNSt3__116forward_as_tupleB8ue170006IJNS_9allocatorIZN5Acorn13Compiler_Unit13init_literalsEvEUlRNS2_7ContextEE7_EEEEENS_5tupleIJDpOT_EEESB_, symObjAddr: 0xBBAF0, symBinAddr: 0x1000BCDE0, symSize: 0x1F8 }
  - { offsetInCU: 0x89C60, offset: 0x89C60, size: 0x8, addend: 0x0, symName: __ZNSt3__13getB8ue170006ILm0EJOZN5Acorn13Compiler_Unit13init_literalsEvEUlRNS1_7ContextEE7_EEERNS_13tuple_elementIXT_ENS_5tupleIJDpT0_EEEE4typeERSB_, symObjAddr: 0xBC9D4, symBinAddr: 0x1000BDCC4, symSize: 0x24 }
  - { offsetInCU: 0x89CA2, offset: 0x89CA2, size: 0x8, addend: 0x0, symName: __ZNSt3__13getB8ue170006ILm0EJONS_9allocatorIZN5Acorn13Compiler_Unit13init_literalsEvEUlRNS2_7ContextEE7_EEEEERNS_13tuple_elementIXT_ENS_5tupleIJDpT0_EEEE4typeERSD_, symObjAddr: 0xBCA58, symBinAddr: 0x1000BDD48, symSize: 0x24 }
  - { offsetInCU: 0x8A1C8, offset: 0x8A1C8, size: 0x8, addend: 0x0, symName: __ZNSt3__116forward_as_tupleB8ue170006IJRKZN5Acorn13Compiler_Unit13init_literalsEvEUlRNS1_7ContextEE7_EEENS_5tupleIJDpOT_EEESB_, symObjAddr: 0xBD6EC, symBinAddr: 0x1000BE9DC, symSize: 0x1F8 }
  - { offsetInCU: 0x8A217, offset: 0x8A217, size: 0x8, addend: 0x0, symName: __ZNSt3__13getB8ue170006ILm0EJRKZN5Acorn13Compiler_Unit13init_literalsEvEUlRNS1_7ContextEE7_EEERNS_13tuple_elementIXT_ENS_5tupleIJDpT0_EEEE4typeERSC_, symObjAddr: 0xBE290, symBinAddr: 0x1000BF580, symSize: 0x24 }
  - { offsetInCU: 0x8A259, offset: 0x8A259, size: 0x8, addend: 0x0, symName: __ZNSt3__116forward_as_tupleB8ue170006IJRKNS_9allocatorIZN5Acorn13Compiler_Unit13init_literalsEvEUlRNS2_7ContextEE7_EEEEENS_5tupleIJDpOT_EEESD_, symObjAddr: 0xBEA30, symBinAddr: 0x1000BFD20, symSize: 0x1F8 }
  - { offsetInCU: 0x8A2A8, offset: 0x8A2A8, size: 0x8, addend: 0x0, symName: __ZNSt3__13getB8ue170006ILm0EJRKNS_9allocatorIZN5Acorn13Compiler_Unit13init_literalsEvEUlRNS2_7ContextEE7_EEEEERNS_13tuple_elementIXT_ENS_5tupleIJDpT0_EEEE4typeERSE_, symObjAddr: 0xBF5C4, symBinAddr: 0x1000C08B4, symSize: 0x24 }
  - { offsetInCU: 0x8A2EB, offset: 0x8A2EB, size: 0x8, addend: 0x0, symName: __ZNSt3__18__invokeB8ue170006IRZN5Acorn13Compiler_Unit13init_literalsEvEUlRNS1_7ContextEE7_JS4_EEEDTclclsr3stdE7declvalIT_EEspclsr3stdE7declvalIT0_EEEEOS7_DpOS8_, symObjAddr: 0xBF6D8, symBinAddr: 0x1000C09C8, symSize: 0x2C }
  - { offsetInCU: 0x8A49B, offset: 0x8A49B, size: 0x8, addend: 0x0, symName: __ZNSt3__116forward_as_tupleB8ue170006IJZN5Acorn13Compiler_Unit13init_literalsEvEUlRNS1_7ContextEE8_EEENS_5tupleIJDpOT_EEES9_, symObjAddr: 0xC123C, symBinAddr: 0x1000C252C, symSize: 0x1F8 }
  - { offsetInCU: 0x8A4D5, offset: 0x8A4D5, size: 0x8, addend: 0x0, symName: __ZNSt3__116forward_as_tupleB8ue170006IJNS_9allocatorIZN5Acorn13Compiler_Unit13init_literalsEvEUlRNS2_7ContextEE8_EEEEENS_5tupleIJDpOT_EEESB_, symObjAddr: 0xC1434, symBinAddr: 0x1000C2724, symSize: 0x1F8 }
  - { offsetInCU: 0x8A539, offset: 0x8A539, size: 0x8, addend: 0x0, symName: __ZNSt3__13getB8ue170006ILm0EJOZN5Acorn13Compiler_Unit13init_literalsEvEUlRNS1_7ContextEE8_EEERNS_13tuple_elementIXT_ENS_5tupleIJDpT0_EEEE4typeERSB_, symObjAddr: 0xC2318, symBinAddr: 0x1000C3608, symSize: 0x24 }
  - { offsetInCU: 0x8A57B, offset: 0x8A57B, size: 0x8, addend: 0x0, symName: __ZNSt3__13getB8ue170006ILm0EJONS_9allocatorIZN5Acorn13Compiler_Unit13init_literalsEvEUlRNS2_7ContextEE8_EEEEERNS_13tuple_elementIXT_ENS_5tupleIJDpT0_EEEE4typeERSD_, symObjAddr: 0xC239C, symBinAddr: 0x1000C368C, symSize: 0x24 }
  - { offsetInCU: 0x8AAA1, offset: 0x8AAA1, size: 0x8, addend: 0x0, symName: __ZNSt3__116forward_as_tupleB8ue170006IJRKZN5Acorn13Compiler_Unit13init_literalsEvEUlRNS1_7ContextEE8_EEENS_5tupleIJDpOT_EEESB_, symObjAddr: 0xC3030, symBinAddr: 0x1000C4320, symSize: 0x1F8 }
  - { offsetInCU: 0x8AAF0, offset: 0x8AAF0, size: 0x8, addend: 0x0, symName: __ZNSt3__13getB8ue170006ILm0EJRKZN5Acorn13Compiler_Unit13init_literalsEvEUlRNS1_7ContextEE8_EEERNS_13tuple_elementIXT_ENS_5tupleIJDpT0_EEEE4typeERSC_, symObjAddr: 0xC3BD4, symBinAddr: 0x1000C4EC4, symSize: 0x24 }
  - { offsetInCU: 0x8AB32, offset: 0x8AB32, size: 0x8, addend: 0x0, symName: __ZNSt3__116forward_as_tupleB8ue170006IJRKNS_9allocatorIZN5Acorn13Compiler_Unit13init_literalsEvEUlRNS2_7ContextEE8_EEEEENS_5tupleIJDpOT_EEESD_, symObjAddr: 0xC4374, symBinAddr: 0x1000C5664, symSize: 0x1F8 }
  - { offsetInCU: 0x8AB81, offset: 0x8AB81, size: 0x8, addend: 0x0, symName: __ZNSt3__13getB8ue170006ILm0EJRKNS_9allocatorIZN5Acorn13Compiler_Unit13init_literalsEvEUlRNS2_7ContextEE8_EEEEERNS_13tuple_elementIXT_ENS_5tupleIJDpT0_EEEE4typeERSE_, symObjAddr: 0xC4F08, symBinAddr: 0x1000C61F8, symSize: 0x24 }
  - { offsetInCU: 0x8ABC4, offset: 0x8ABC4, size: 0x8, addend: 0x0, symName: __ZNSt3__18__invokeB8ue170006IRZN5Acorn13Compiler_Unit13init_literalsEvEUlRNS1_7ContextEE8_JS4_EEEDTclclsr3stdE7declvalIT_EEspclsr3stdE7declvalIT0_EEEEOS7_DpOS8_, symObjAddr: 0xC501C, symBinAddr: 0x1000C630C, symSize: 0x2C }
  - { offsetInCU: 0x8AD74, offset: 0x8AD74, size: 0x8, addend: 0x0, symName: __ZNSt3__116forward_as_tupleB8ue170006IJZN5Acorn13Compiler_Unit14init_tokenizerEvEUlRNS1_7ContextEE_EEENS_5tupleIJDpOT_EEES9_, symObjAddr: 0xC8F90, symBinAddr: 0x1000CA280, symSize: 0x1F8 }
  - { offsetInCU: 0x8ADAE, offset: 0x8ADAE, size: 0x8, addend: 0x0, symName: __ZNSt3__116forward_as_tupleB8ue170006IJNS_9allocatorIZN5Acorn13Compiler_Unit14init_tokenizerEvEUlRNS2_7ContextEE_EEEEENS_5tupleIJDpOT_EEESB_, symObjAddr: 0xC9188, symBinAddr: 0x1000CA478, symSize: 0x1F8 }
  - { offsetInCU: 0x8AE12, offset: 0x8AE12, size: 0x8, addend: 0x0, symName: __ZNSt3__13getB8ue170006ILm0EJOZN5Acorn13Compiler_Unit14init_tokenizerEvEUlRNS1_7ContextEE_EEERNS_13tuple_elementIXT_ENS_5tupleIJDpT0_EEEE4typeERSB_, symObjAddr: 0xCA06C, symBinAddr: 0x1000CB35C, symSize: 0x24 }
  - { offsetInCU: 0x8AE54, offset: 0x8AE54, size: 0x8, addend: 0x0, symName: __ZNSt3__13getB8ue170006ILm0EJONS_9allocatorIZN5Acorn13Compiler_Unit14init_tokenizerEvEUlRNS2_7ContextEE_EEEEERNS_13tuple_elementIXT_ENS_5tupleIJDpT0_EEEE4typeERSD_, symObjAddr: 0xCA0F0, symBinAddr: 0x1000CB3E0, symSize: 0x24 }
  - { offsetInCU: 0x8B37A, offset: 0x8B37A, size: 0x8, addend: 0x0, symName: __ZNSt3__116forward_as_tupleB8ue170006IJRKZN5Acorn13Compiler_Unit14init_tokenizerEvEUlRNS1_7ContextEE_EEENS_5tupleIJDpOT_EEESB_, symObjAddr: 0xCAD84, symBinAddr: 0x1000CC074, symSize: 0x1F8 }
  - { offsetInCU: 0x8B3C9, offset: 0x8B3C9, size: 0x8, addend: 0x0, symName: __ZNSt3__13getB8ue170006ILm0EJRKZN5Acorn13Compiler_Unit14init_tokenizerEvEUlRNS1_7ContextEE_EEERNS_13tuple_elementIXT_ENS_5tupleIJDpT0_EEEE4typeERSC_, symObjAddr: 0xCB928, symBinAddr: 0x1000CCC18, symSize: 0x24 }
  - { offsetInCU: 0x8B40B, offset: 0x8B40B, size: 0x8, addend: 0x0, symName: __ZNSt3__116forward_as_tupleB8ue170006IJRKNS_9allocatorIZN5Acorn13Compiler_Unit14init_tokenizerEvEUlRNS2_7ContextEE_EEEEENS_5tupleIJDpOT_EEESD_, symObjAddr: 0xCC0C8, symBinAddr: 0x1000CD3B8, symSize: 0x1F8 }
  - { offsetInCU: 0x8B45A, offset: 0x8B45A, size: 0x8, addend: 0x0, symName: __ZNSt3__13getB8ue170006ILm0EJRKNS_9allocatorIZN5Acorn13Compiler_Unit14init_tokenizerEvEUlRNS2_7ContextEE_EEEEERNS_13tuple_elementIXT_ENS_5tupleIJDpT0_EEEE4typeERSE_, symObjAddr: 0xCCC5C, symBinAddr: 0x1000CDF4C, symSize: 0x24 }
  - { offsetInCU: 0x8B49D, offset: 0x8B49D, size: 0x8, addend: 0x0, symName: __ZNSt3__18__invokeB8ue170006IRZN5Acorn13Compiler_Unit14init_tokenizerEvEUlRNS1_7ContextEE_JS4_EEEDTclclsr3stdE7declvalIT_EEspclsr3stdE7declvalIT0_EEEEOS7_DpOS8_, symObjAddr: 0xCCD70, symBinAddr: 0x1000CE060, symSize: 0x2C }
  - { offsetInCU: 0x8B64D, offset: 0x8B64D, size: 0x8, addend: 0x0, symName: __ZNSt3__116forward_as_tupleB8ue170006IJZN5Acorn13Compiler_Unit14init_tokenizerEvEUlRNS1_7ContextEE0_EEENS_5tupleIJDpOT_EEES9_, symObjAddr: 0xCF42C, symBinAddr: 0x1000D071C, symSize: 0x1F8 }
  - { offsetInCU: 0x8B687, offset: 0x8B687, size: 0x8, addend: 0x0, symName: __ZNSt3__116forward_as_tupleB8ue170006IJNS_9allocatorIZN5Acorn13Compiler_Unit14init_tokenizerEvEUlRNS2_7ContextEE0_EEEEENS_5tupleIJDpOT_EEESB_, symObjAddr: 0xCF624, symBinAddr: 0x1000D0914, symSize: 0x1F8 }
  - { offsetInCU: 0x8B6EB, offset: 0x8B6EB, size: 0x8, addend: 0x0, symName: __ZNSt3__13getB8ue170006ILm0EJOZN5Acorn13Compiler_Unit14init_tokenizerEvEUlRNS1_7ContextEE0_EEERNS_13tuple_elementIXT_ENS_5tupleIJDpT0_EEEE4typeERSB_, symObjAddr: 0xD0508, symBinAddr: 0x1000D17F8, symSize: 0x24 }
  - { offsetInCU: 0x8B72D, offset: 0x8B72D, size: 0x8, addend: 0x0, symName: __ZNSt3__13getB8ue170006ILm0EJONS_9allocatorIZN5Acorn13Compiler_Unit14init_tokenizerEvEUlRNS2_7ContextEE0_EEEEERNS_13tuple_elementIXT_ENS_5tupleIJDpT0_EEEE4typeERSD_, symObjAddr: 0xD058C, symBinAddr: 0x1000D187C, symSize: 0x24 }
  - { offsetInCU: 0x8BC53, offset: 0x8BC53, size: 0x8, addend: 0x0, symName: __ZNSt3__116forward_as_tupleB8ue170006IJRKZN5Acorn13Compiler_Unit14init_tokenizerEvEUlRNS1_7ContextEE0_EEENS_5tupleIJDpOT_EEESB_, symObjAddr: 0xD1220, symBinAddr: 0x1000D2510, symSize: 0x1F8 }
  - { offsetInCU: 0x8BCA2, offset: 0x8BCA2, size: 0x8, addend: 0x0, symName: __ZNSt3__13getB8ue170006ILm0EJRKZN5Acorn13Compiler_Unit14init_tokenizerEvEUlRNS1_7ContextEE0_EEERNS_13tuple_elementIXT_ENS_5tupleIJDpT0_EEEE4typeERSC_, symObjAddr: 0xD1DC4, symBinAddr: 0x1000D30B4, symSize: 0x24 }
  - { offsetInCU: 0x8BCE4, offset: 0x8BCE4, size: 0x8, addend: 0x0, symName: __ZNSt3__116forward_as_tupleB8ue170006IJRKNS_9allocatorIZN5Acorn13Compiler_Unit14init_tokenizerEvEUlRNS2_7ContextEE0_EEEEENS_5tupleIJDpOT_EEESD_, symObjAddr: 0xD2564, symBinAddr: 0x1000D3854, symSize: 0x1F8 }
  - { offsetInCU: 0x8BD33, offset: 0x8BD33, size: 0x8, addend: 0x0, symName: __ZNSt3__13getB8ue170006ILm0EJRKNS_9allocatorIZN5Acorn13Compiler_Unit14init_tokenizerEvEUlRNS2_7ContextEE0_EEEEERNS_13tuple_elementIXT_ENS_5tupleIJDpT0_EEEE4typeERSE_, symObjAddr: 0xD30F8, symBinAddr: 0x1000D43E8, symSize: 0x24 }
  - { offsetInCU: 0x8BD76, offset: 0x8BD76, size: 0x8, addend: 0x0, symName: __ZNSt3__18__invokeB8ue170006IRZN5Acorn13Compiler_Unit14init_tokenizerEvEUlRNS1_7ContextEE0_JS4_EEEDTclclsr3stdE7declvalIT_EEspclsr3stdE7declvalIT0_EEEEOS7_DpOS8_, symObjAddr: 0xD320C, symBinAddr: 0x1000D44FC, symSize: 0x2C }
  - { offsetInCU: 0x8C3FF, offset: 0x8C3FF, size: 0x8, addend: 0x0, symName: __ZNSt3__116forward_as_tupleB8ue170006IJZN5Acorn13Compiler_Unit16add_string_tokenEcmmEUlRNS1_7ContextEE_EEENS_5tupleIJDpOT_EEES9_, symObjAddr: 0xD5860, symBinAddr: 0x1000D6B50, symSize: 0x1F8 }
  - { offsetInCU: 0x8C439, offset: 0x8C439, size: 0x8, addend: 0x0, symName: __ZNSt3__116forward_as_tupleB8ue170006IJNS_9allocatorIZN5Acorn13Compiler_Unit16add_string_tokenEcmmEUlRNS2_7ContextEE_EEEEENS_5tupleIJDpOT_EEESB_, symObjAddr: 0xD5A58, symBinAddr: 0x1000D6D48, symSize: 0x1F8 }
  - { offsetInCU: 0x8C49D, offset: 0x8C49D, size: 0x8, addend: 0x0, symName: __ZNSt3__13getB8ue170006ILm0EJOZN5Acorn13Compiler_Unit16add_string_tokenEcmmEUlRNS1_7ContextEE_EEERNS_13tuple_elementIXT_ENS_5tupleIJDpT0_EEEE4typeERSB_, symObjAddr: 0xD693C, symBinAddr: 0x1000D7C2C, symSize: 0x24 }
  - { offsetInCU: 0x8C4DF, offset: 0x8C4DF, size: 0x8, addend: 0x0, symName: __ZNSt3__13getB8ue170006ILm0EJONS_9allocatorIZN5Acorn13Compiler_Unit16add_string_tokenEcmmEUlRNS2_7ContextEE_EEEEERNS_13tuple_elementIXT_ENS_5tupleIJDpT0_EEEE4typeERSD_, symObjAddr: 0xD69C0, symBinAddr: 0x1000D7CB0, symSize: 0x24 }
  - { offsetInCU: 0x8C6AD, offset: 0x8C6AD, size: 0x8, addend: 0x0, symName: __ZNSt3__116forward_as_tupleB8ue170006IJRKZN5Acorn13Compiler_Unit16add_string_tokenEcmmEUlRNS1_7ContextEE_EEENS_5tupleIJDpOT_EEESB_, symObjAddr: 0xD7388, symBinAddr: 0x1000D8678, symSize: 0x1F8 }
  - { offsetInCU: 0x8C6FC, offset: 0x8C6FC, size: 0x8, addend: 0x0, symName: __ZNSt3__13getB8ue170006ILm0EJRKZN5Acorn13Compiler_Unit16add_string_tokenEcmmEUlRNS1_7ContextEE_EEERNS_13tuple_elementIXT_ENS_5tupleIJDpT0_EEEE4typeERSC_, symObjAddr: 0xD7F2C, symBinAddr: 0x1000D921C, symSize: 0x24 }
  - { offsetInCU: 0x8C73E, offset: 0x8C73E, size: 0x8, addend: 0x0, symName: __ZNSt3__116forward_as_tupleB8ue170006IJRKNS_9allocatorIZN5Acorn13Compiler_Unit16add_string_tokenEcmmEUlRNS2_7ContextEE_EEEEENS_5tupleIJDpOT_EEESD_, symObjAddr: 0xD86D0, symBinAddr: 0x1000D99C0, symSize: 0x1F8 }
  - { offsetInCU: 0x8C78D, offset: 0x8C78D, size: 0x8, addend: 0x0, symName: __ZNSt3__13getB8ue170006ILm0EJRKNS_9allocatorIZN5Acorn13Compiler_Unit16add_string_tokenEcmmEUlRNS2_7ContextEE_EEEEERNS_13tuple_elementIXT_ENS_5tupleIJDpT0_EEEE4typeERSE_, symObjAddr: 0xD9264, symBinAddr: 0x1000DA554, symSize: 0x24 }
  - { offsetInCU: 0x8C7D0, offset: 0x8C7D0, size: 0x8, addend: 0x0, symName: __ZNSt3__18__invokeB8ue170006IRZN5Acorn13Compiler_Unit16add_string_tokenEcmmEUlRNS1_7ContextEE_JS4_EEEDTclclsr3stdE7declvalIT_EEspclsr3stdE7declvalIT0_EEEEOS7_DpOS8_, symObjAddr: 0xD9378, symBinAddr: 0x1000DA668, symSize: 0x2C }
  - { offsetInCU: 0x8CE59, offset: 0x8CE59, size: 0x8, addend: 0x0, symName: __ZNSt3__116forward_as_tupleB8ue170006IJZN5Acorn13Compiler_Unit16add_string_tokenEcmmEUlRNS1_7ContextEE0_EEENS_5tupleIJDpOT_EEES9_, symObjAddr: 0xDB45C, symBinAddr: 0x1000DC74C, symSize: 0x1F8 }
  - { offsetInCU: 0x8CE93, offset: 0x8CE93, size: 0x8, addend: 0x0, symName: __ZNSt3__116forward_as_tupleB8ue170006IJNS_9allocatorIZN5Acorn13Compiler_Unit16add_string_tokenEcmmEUlRNS2_7ContextEE0_EEEEENS_5tupleIJDpOT_EEESB_, symObjAddr: 0xDB654, symBinAddr: 0x1000DC944, symSize: 0x1F8 }
  - { offsetInCU: 0x8CEF7, offset: 0x8CEF7, size: 0x8, addend: 0x0, symName: __ZNSt3__13getB8ue170006ILm0EJOZN5Acorn13Compiler_Unit16add_string_tokenEcmmEUlRNS1_7ContextEE0_EEERNS_13tuple_elementIXT_ENS_5tupleIJDpT0_EEEE4typeERSB_, symObjAddr: 0xDC538, symBinAddr: 0x1000DD828, symSize: 0x24 }
  - { offsetInCU: 0x8CF39, offset: 0x8CF39, size: 0x8, addend: 0x0, symName: __ZNSt3__13getB8ue170006ILm0EJONS_9allocatorIZN5Acorn13Compiler_Unit16add_string_tokenEcmmEUlRNS2_7ContextEE0_EEEEERNS_13tuple_elementIXT_ENS_5tupleIJDpT0_EEEE4typeERSD_, symObjAddr: 0xDC5BC, symBinAddr: 0x1000DD8AC, symSize: 0x24 }
  - { offsetInCU: 0x8D107, offset: 0x8D107, size: 0x8, addend: 0x0, symName: __ZNSt3__116forward_as_tupleB8ue170006IJRKZN5Acorn13Compiler_Unit16add_string_tokenEcmmEUlRNS1_7ContextEE0_EEENS_5tupleIJDpOT_EEESB_, symObjAddr: 0xDCF84, symBinAddr: 0x1000DE274, symSize: 0x1F8 }
  - { offsetInCU: 0x8D156, offset: 0x8D156, size: 0x8, addend: 0x0, symName: __ZNSt3__13getB8ue170006ILm0EJRKZN5Acorn13Compiler_Unit16add_string_tokenEcmmEUlRNS1_7ContextEE0_EEERNS_13tuple_elementIXT_ENS_5tupleIJDpT0_EEEE4typeERSC_, symObjAddr: 0xDDB28, symBinAddr: 0x1000DEE18, symSize: 0x24 }
  - { offsetInCU: 0x8D198, offset: 0x8D198, size: 0x8, addend: 0x0, symName: __ZNSt3__116forward_as_tupleB8ue170006IJRKNS_9allocatorIZN5Acorn13Compiler_Unit16add_string_tokenEcmmEUlRNS2_7ContextEE0_EEEEENS_5tupleIJDpOT_EEESD_, symObjAddr: 0xDE2C8, symBinAddr: 0x1000DF5B8, symSize: 0x1F8 }
  - { offsetInCU: 0x8D1E7, offset: 0x8D1E7, size: 0x8, addend: 0x0, symName: __ZNSt3__13getB8ue170006ILm0EJRKNS_9allocatorIZN5Acorn13Compiler_Unit16add_string_tokenEcmmEUlRNS2_7ContextEE0_EEEEERNS_13tuple_elementIXT_ENS_5tupleIJDpT0_EEEE4typeERSE_, symObjAddr: 0xDEE5C, symBinAddr: 0x1000E014C, symSize: 0x24 }
  - { offsetInCU: 0x8D22A, offset: 0x8D22A, size: 0x8, addend: 0x0, symName: __ZNSt3__18__invokeB8ue170006IRZN5Acorn13Compiler_Unit16add_string_tokenEcmmEUlRNS1_7ContextEE0_JS4_EEEDTclclsr3stdE7declvalIT_EEspclsr3stdE7declvalIT0_EEEEOS7_DpOS8_, symObjAddr: 0xDEF70, symBinAddr: 0x1000E0260, symSize: 0x2C }
  - { offsetInCU: 0x8D8B3, offset: 0x8D8B3, size: 0x8, addend: 0x0, symName: __ZNSt3__116forward_as_tupleB8ue170006IJZN5Acorn13Compiler_Unit23add_double_string_tokenEccmmmmbP3mapINS_12basic_stringIcNS_11char_traitsIcEENS_9allocatorIcEEEENS_8functionIFvRNS1_7ContextEEEEEEUlSC_E_EEENS_5tupleIJDpOT_EEESL_, symObjAddr: 0xE37B4, symBinAddr: 0x1000E4AA4, symSize: 0x1F8 }
  - { offsetInCU: 0x8D8ED, offset: 0x8D8ED, size: 0x8, addend: 0x0, symName: __ZNSt3__116forward_as_tupleB8ue170006IJNS_9allocatorIZN5Acorn13Compiler_Unit23add_double_string_tokenEccmmmmbP3mapINS_12basic_stringIcNS_11char_traitsIcEENS1_IcEEEENS_8functionIFvRNS2_7ContextEEEEEEUlSC_E_EEEEENS_5tupleIJDpOT_EEESM_, symObjAddr: 0xE39AC, symBinAddr: 0x1000E4C9C, symSize: 0x1F8 }
  - { offsetInCU: 0x8D951, offset: 0x8D951, size: 0x8, addend: 0x0, symName: __ZNSt3__13getB8ue170006ILm0EJOZN5Acorn13Compiler_Unit23add_double_string_tokenEccmmmmbP3mapINS_12basic_stringIcNS_11char_traitsIcEENS_9allocatorIcEEEENS_8functionIFvRNS1_7ContextEEEEEEUlSC_E_EEERNS_13tuple_elementIXT_ENS_5tupleIJDpT0_EEEE4typeERSN_, symObjAddr: 0xE4890, symBinAddr: 0x1000E5B80, symSize: 0x24 }
  - { offsetInCU: 0x8D993, offset: 0x8D993, size: 0x8, addend: 0x0, symName: __ZNSt3__13getB8ue170006ILm0EJONS_9allocatorIZN5Acorn13Compiler_Unit23add_double_string_tokenEccmmmmbP3mapINS_12basic_stringIcNS_11char_traitsIcEENS1_IcEEEENS_8functionIFvRNS2_7ContextEEEEEEUlSC_E_EEEEERNS_13tuple_elementIXT_ENS_5tupleIJDpT0_EEEE4typeERSO_, symObjAddr: 0xE4914, symBinAddr: 0x1000E5C04, symSize: 0x24 }
  - { offsetInCU: 0x8DB61, offset: 0x8DB61, size: 0x8, addend: 0x0, symName: __ZNSt3__116forward_as_tupleB8ue170006IJRKZN5Acorn13Compiler_Unit23add_double_string_tokenEccmmmmbP3mapINS_12basic_stringIcNS_11char_traitsIcEENS_9allocatorIcEEEENS_8functionIFvRNS1_7ContextEEEEEEUlSC_E_EEENS_5tupleIJDpOT_EEESN_, symObjAddr: 0xE52DC, symBinAddr: 0x1000E65CC, symSize: 0x1F8 }
  - { offsetInCU: 0x8DBB0, offset: 0x8DBB0, size: 0x8, addend: 0x0, symName: __ZNSt3__13getB8ue170006ILm0EJRKZN5Acorn13Compiler_Unit23add_double_string_tokenEccmmmmbP3mapINS_12basic_stringIcNS_11char_traitsIcEENS_9allocatorIcEEEENS_8functionIFvRNS1_7ContextEEEEEEUlSC_E_EEERNS_13tuple_elementIXT_ENS_5tupleIJDpT0_EEEE4typeERSO_, symObjAddr: 0xE5E80, symBinAddr: 0x1000E7170, symSize: 0x24 }
  - { offsetInCU: 0x8DBF2, offset: 0x8DBF2, size: 0x8, addend: 0x0, symName: __ZNSt3__116forward_as_tupleB8ue170006IJRKNS_9allocatorIZN5Acorn13Compiler_Unit23add_double_string_tokenEccmmmmbP3mapINS_12basic_stringIcNS_11char_traitsIcEENS1_IcEEEENS_8functionIFvRNS2_7ContextEEEEEEUlSC_E_EEEEENS_5tupleIJDpOT_EEESO_, symObjAddr: 0xE6624, symBinAddr: 0x1000E7914, symSize: 0x1F8 }
  - { offsetInCU: 0x8DC41, offset: 0x8DC41, size: 0x8, addend: 0x0, symName: __ZNSt3__13getB8ue170006ILm0EJRKNS_9allocatorIZN5Acorn13Compiler_Unit23add_double_string_tokenEccmmmmbP3mapINS_12basic_stringIcNS_11char_traitsIcEENS1_IcEEEENS_8functionIFvRNS2_7ContextEEEEEEUlSC_E_EEEEERNS_13tuple_elementIXT_ENS_5tupleIJDpT0_EEEE4typeERSP_, symObjAddr: 0xE71B8, symBinAddr: 0x1000E84A8, symSize: 0x24 }
  - { offsetInCU: 0x8DC84, offset: 0x8DC84, size: 0x8, addend: 0x0, symName: __ZNSt3__18__invokeB8ue170006IRZN5Acorn13Compiler_Unit23add_double_string_tokenEccmmmmbP3mapINS_12basic_stringIcNS_11char_traitsIcEENS_9allocatorIcEEEENS_8functionIFvRNS1_7ContextEEEEEEUlSC_E_JSC_EEEDTclclsr3stdE7declvalIT_EEspclsr3stdE7declvalIT0_EEEEOSJ_DpOSK_, symObjAddr: 0xE72CC, symBinAddr: 0x1000E85BC, symSize: 0x2C }
  - { offsetInCU: 0x8E30D, offset: 0x8E30D, size: 0x8, addend: 0x0, symName: __ZNSt3__116forward_as_tupleB8ue170006IJZN5Acorn13Compiler_Unit23add_double_string_tokenEccmmmmbP3mapINS_12basic_stringIcNS_11char_traitsIcEENS_9allocatorIcEEEENS_8functionIFvRNS1_7ContextEEEEEEUlSC_E0_EEENS_5tupleIJDpOT_EEESL_, symObjAddr: 0xE963C, symBinAddr: 0x1000EA92C, symSize: 0x1F8 }
  - { offsetInCU: 0x8E347, offset: 0x8E347, size: 0x8, addend: 0x0, symName: __ZNSt3__116forward_as_tupleB8ue170006IJNS_9allocatorIZN5Acorn13Compiler_Unit23add_double_string_tokenEccmmmmbP3mapINS_12basic_stringIcNS_11char_traitsIcEENS1_IcEEEENS_8functionIFvRNS2_7ContextEEEEEEUlSC_E0_EEEEENS_5tupleIJDpOT_EEESM_, symObjAddr: 0xE9834, symBinAddr: 0x1000EAB24, symSize: 0x1F8 }
  - { offsetInCU: 0x8E3AB, offset: 0x8E3AB, size: 0x8, addend: 0x0, symName: __ZNSt3__13getB8ue170006ILm0EJOZN5Acorn13Compiler_Unit23add_double_string_tokenEccmmmmbP3mapINS_12basic_stringIcNS_11char_traitsIcEENS_9allocatorIcEEEENS_8functionIFvRNS1_7ContextEEEEEEUlSC_E0_EEERNS_13tuple_elementIXT_ENS_5tupleIJDpT0_EEEE4typeERSN_, symObjAddr: 0xEA718, symBinAddr: 0x1000EBA08, symSize: 0x24 }
  - { offsetInCU: 0x8E3ED, offset: 0x8E3ED, size: 0x8, addend: 0x0, symName: __ZNSt3__13getB8ue170006ILm0EJONS_9allocatorIZN5Acorn13Compiler_Unit23add_double_string_tokenEccmmmmbP3mapINS_12basic_stringIcNS_11char_traitsIcEENS1_IcEEEENS_8functionIFvRNS2_7ContextEEEEEEUlSC_E0_EEEEERNS_13tuple_elementIXT_ENS_5tupleIJDpT0_EEEE4typeERSO_, symObjAddr: 0xEA79C, symBinAddr: 0x1000EBA8C, symSize: 0x24 }
  - { offsetInCU: 0x8E5BB, offset: 0x8E5BB, size: 0x8, addend: 0x0, symName: __ZNSt3__116forward_as_tupleB8ue170006IJRKZN5Acorn13Compiler_Unit23add_double_string_tokenEccmmmmbP3mapINS_12basic_stringIcNS_11char_traitsIcEENS_9allocatorIcEEEENS_8functionIFvRNS1_7ContextEEEEEEUlSC_E0_EEENS_5tupleIJDpOT_EEESN_, symObjAddr: 0xEB164, symBinAddr: 0x1000EC454, symSize: 0x1F8 }
  - { offsetInCU: 0x8E60A, offset: 0x8E60A, size: 0x8, addend: 0x0, symName: __ZNSt3__13getB8ue170006ILm0EJRKZN5Acorn13Compiler_Unit23add_double_string_tokenEccmmmmbP3mapINS_12basic_stringIcNS_11char_traitsIcEENS_9allocatorIcEEEENS_8functionIFvRNS1_7ContextEEEEEEUlSC_E0_EEERNS_13tuple_elementIXT_ENS_5tupleIJDpT0_EEEE4typeERSO_, symObjAddr: 0xEBD08, symBinAddr: 0x1000ECFF8, symSize: 0x24 }
  - { offsetInCU: 0x8E64C, offset: 0x8E64C, size: 0x8, addend: 0x0, symName: __ZNSt3__116forward_as_tupleB8ue170006IJRKNS_9allocatorIZN5Acorn13Compiler_Unit23add_double_string_tokenEccmmmmbP3mapINS_12basic_stringIcNS_11char_traitsIcEENS1_IcEEEENS_8functionIFvRNS2_7ContextEEEEEEUlSC_E0_EEEEENS_5tupleIJDpOT_EEESO_, symObjAddr: 0xEC4AC, symBinAddr: 0x1000ED79C, symSize: 0x1F8 }
  - { offsetInCU: 0x8E69B, offset: 0x8E69B, size: 0x8, addend: 0x0, symName: __ZNSt3__13getB8ue170006ILm0EJRKNS_9allocatorIZN5Acorn13Compiler_Unit23add_double_string_tokenEccmmmmbP3mapINS_12basic_stringIcNS_11char_traitsIcEENS1_IcEEEENS_8functionIFvRNS2_7ContextEEEEEEUlSC_E0_EEEEERNS_13tuple_elementIXT_ENS_5tupleIJDpT0_EEEE4typeERSP_, symObjAddr: 0xED040, symBinAddr: 0x1000EE330, symSize: 0x24 }
  - { offsetInCU: 0x8E6DE, offset: 0x8E6DE, size: 0x8, addend: 0x0, symName: __ZNSt3__18__invokeB8ue170006IRZN5Acorn13Compiler_Unit23add_double_string_tokenEccmmmmbP3mapINS_12basic_stringIcNS_11char_traitsIcEENS_9allocatorIcEEEENS_8functionIFvRNS1_7ContextEEEEEEUlSC_E0_JSC_EEEDTclclsr3stdE7declvalIT_EEspclsr3stdE7declvalIT0_EEEEOSJ_DpOSK_, symObjAddr: 0xED154, symBinAddr: 0x1000EE444, symSize: 0x2C }
  - { offsetInCU: 0x8ED67, offset: 0x8ED67, size: 0x8, addend: 0x0, symName: __ZNSt3__116forward_as_tupleB8ue170006IJZN5Acorn13Compiler_Unit23add_double_string_tokenEccmmmmbP3mapINS_12basic_stringIcNS_11char_traitsIcEENS_9allocatorIcEEEENS_8functionIFvRNS1_7ContextEEEEEEUlSC_E1_EEENS_5tupleIJDpOT_EEESL_, symObjAddr: 0xEF334, symBinAddr: 0x1000F0624, symSize: 0x1F8 }
  - { offsetInCU: 0x8EDA1, offset: 0x8EDA1, size: 0x8, addend: 0x0, symName: __ZNSt3__116forward_as_tupleB8ue170006IJNS_9allocatorIZN5Acorn13Compiler_Unit23add_double_string_tokenEccmmmmbP3mapINS_12basic_stringIcNS_11char_traitsIcEENS1_IcEEEENS_8functionIFvRNS2_7ContextEEEEEEUlSC_E1_EEEEENS_5tupleIJDpOT_EEESM_, symObjAddr: 0xEF52C, symBinAddr: 0x1000F081C, symSize: 0x1F8 }
  - { offsetInCU: 0x8EE05, offset: 0x8EE05, size: 0x8, addend: 0x0, symName: __ZNSt3__13getB8ue170006ILm0EJOZN5Acorn13Compiler_Unit23add_double_string_tokenEccmmmmbP3mapINS_12basic_stringIcNS_11char_traitsIcEENS_9allocatorIcEEEENS_8functionIFvRNS1_7ContextEEEEEEUlSC_E1_EEERNS_13tuple_elementIXT_ENS_5tupleIJDpT0_EEEE4typeERSN_, symObjAddr: 0xF04F0, symBinAddr: 0x1000F17E0, symSize: 0x24 }
  - { offsetInCU: 0x8EE47, offset: 0x8EE47, size: 0x8, addend: 0x0, symName: __ZNSt3__13getB8ue170006ILm0EJONS_9allocatorIZN5Acorn13Compiler_Unit23add_double_string_tokenEccmmmmbP3mapINS_12basic_stringIcNS_11char_traitsIcEENS1_IcEEEENS_8functionIFvRNS2_7ContextEEEEEEUlSC_E1_EEEEERNS_13tuple_elementIXT_ENS_5tupleIJDpT0_EEEE4typeERSO_, symObjAddr: 0xF09F8, symBinAddr: 0x1000F1CE8, symSize: 0x24 }
  - { offsetInCU: 0x8F015, offset: 0x8F015, size: 0x8, addend: 0x0, symName: __ZNSt3__116forward_as_tupleB8ue170006IJRKZN5Acorn13Compiler_Unit23add_double_string_tokenEccmmmmbP3mapINS_12basic_stringIcNS_11char_traitsIcEENS_9allocatorIcEEEENS_8functionIFvRNS1_7ContextEEEEEEUlSC_E1_EEENS_5tupleIJDpOT_EEESN_, symObjAddr: 0xF14CC, symBinAddr: 0x1000F27BC, symSize: 0x1F8 }
  - { offsetInCU: 0x8F064, offset: 0x8F064, size: 0x8, addend: 0x0, symName: __ZNSt3__13getB8ue170006ILm0EJRKZN5Acorn13Compiler_Unit23add_double_string_tokenEccmmmmbP3mapINS_12basic_stringIcNS_11char_traitsIcEENS_9allocatorIcEEEENS_8functionIFvRNS1_7ContextEEEEEEUlSC_E1_EEERNS_13tuple_elementIXT_ENS_5tupleIJDpT0_EEEE4typeERSO_, symObjAddr: 0xF206C, symBinAddr: 0x1000F335C, symSize: 0x24 }
  - { offsetInCU: 0x8F0A6, offset: 0x8F0A6, size: 0x8, addend: 0x0, symName: __ZNSt3__116forward_as_tupleB8ue170006IJRKNS_9allocatorIZN5Acorn13Compiler_Unit23add_double_string_tokenEccmmmmbP3mapINS_12basic_stringIcNS_11char_traitsIcEENS1_IcEEEENS_8functionIFvRNS2_7ContextEEEEEEUlSC_E1_EEEEENS_5tupleIJDpOT_EEESO_, symObjAddr: 0xF28D0, symBinAddr: 0x1000F3BC0, symSize: 0x1F8 }
  - { offsetInCU: 0x8F0F5, offset: 0x8F0F5, size: 0x8, addend: 0x0, symName: __ZNSt3__13getB8ue170006ILm0EJRKNS_9allocatorIZN5Acorn13Compiler_Unit23add_double_string_tokenEccmmmmbP3mapINS_12basic_stringIcNS_11char_traitsIcEENS1_IcEEEENS_8functionIFvRNS2_7ContextEEEEEEUlSC_E1_EEEEERNS_13tuple_elementIXT_ENS_5tupleIJDpT0_EEEE4typeERSP_, symObjAddr: 0xF351C, symBinAddr: 0x1000F480C, symSize: 0x24 }
  - { offsetInCU: 0x8F138, offset: 0x8F138, size: 0x8, addend: 0x0, symName: __ZNSt3__18__invokeB8ue170006IRZN5Acorn13Compiler_Unit23add_double_string_tokenEccmmmmbP3mapINS_12basic_stringIcNS_11char_traitsIcEENS_9allocatorIcEEEENS_8functionIFvRNS1_7ContextEEEEEEUlSC_E1_JSC_EEEDTclclsr3stdE7declvalIT_EEspclsr3stdE7declvalIT0_EEEEOSJ_DpOSK_, symObjAddr: 0xF3644, symBinAddr: 0x1000F4934, symSize: 0x2C }
  - { offsetInCU: 0x8F7C1, offset: 0x8F7C1, size: 0x8, addend: 0x0, symName: __ZNSt3__116forward_as_tupleB8ue170006IJZN5Acorn13Compiler_Unit23add_double_string_tokenEccmmmmbP3mapINS_12basic_stringIcNS_11char_traitsIcEENS_9allocatorIcEEEENS_8functionIFvRNS1_7ContextEEEEEEUlSC_E2_EEENS_5tupleIJDpOT_EEESL_, symObjAddr: 0xF7070, symBinAddr: 0x1000F8360, symSize: 0x1F8 }
  - { offsetInCU: 0x8F7FB, offset: 0x8F7FB, size: 0x8, addend: 0x0, symName: __ZNSt3__116forward_as_tupleB8ue170006IJNS_9allocatorIZN5Acorn13Compiler_Unit23add_double_string_tokenEccmmmmbP3mapINS_12basic_stringIcNS_11char_traitsIcEENS1_IcEEEENS_8functionIFvRNS2_7ContextEEEEEEUlSC_E2_EEEEENS_5tupleIJDpOT_EEESM_, symObjAddr: 0xF7268, symBinAddr: 0x1000F8558, symSize: 0x1F8 }
  - { offsetInCU: 0x8F85F, offset: 0x8F85F, size: 0x8, addend: 0x0, symName: __ZNSt3__13getB8ue170006ILm0EJOZN5Acorn13Compiler_Unit23add_double_string_tokenEccmmmmbP3mapINS_12basic_stringIcNS_11char_traitsIcEENS_9allocatorIcEEEENS_8functionIFvRNS1_7ContextEEEEEEUlSC_E2_EEERNS_13tuple_elementIXT_ENS_5tupleIJDpT0_EEEE4typeERSN_, symObjAddr: 0xF814C, symBinAddr: 0x1000F943C, symSize: 0x24 }
  - { offsetInCU: 0x8F8A1, offset: 0x8F8A1, size: 0x8, addend: 0x0, symName: __ZNSt3__13getB8ue170006ILm0EJONS_9allocatorIZN5Acorn13Compiler_Unit23add_double_string_tokenEccmmmmbP3mapINS_12basic_stringIcNS_11char_traitsIcEENS1_IcEEEENS_8functionIFvRNS2_7ContextEEEEEEUlSC_E2_EEEEERNS_13tuple_elementIXT_ENS_5tupleIJDpT0_EEEE4typeERSO_, symObjAddr: 0xF81D0, symBinAddr: 0x1000F94C0, symSize: 0x24 }
  - { offsetInCU: 0x8FA6F, offset: 0x8FA6F, size: 0x8, addend: 0x0, symName: __ZNSt3__116forward_as_tupleB8ue170006IJRKZN5Acorn13Compiler_Unit23add_double_string_tokenEccmmmmbP3mapINS_12basic_stringIcNS_11char_traitsIcEENS_9allocatorIcEEEENS_8functionIFvRNS1_7ContextEEEEEEUlSC_E2_EEENS_5tupleIJDpOT_EEESN_, symObjAddr: 0xF8B98, symBinAddr: 0x1000F9E88, symSize: 0x1F8 }
  - { offsetInCU: 0x8FABE, offset: 0x8FABE, size: 0x8, addend: 0x0, symName: __ZNSt3__13getB8ue170006ILm0EJRKZN5Acorn13Compiler_Unit23add_double_string_tokenEccmmmmbP3mapINS_12basic_stringIcNS_11char_traitsIcEENS_9allocatorIcEEEENS_8functionIFvRNS1_7ContextEEEEEEUlSC_E2_EEERNS_13tuple_elementIXT_ENS_5tupleIJDpT0_EEEE4typeERSO_, symObjAddr: 0xF973C, symBinAddr: 0x1000FAA2C, symSize: 0x24 }
  - { offsetInCU: 0x8FB00, offset: 0x8FB00, size: 0x8, addend: 0x0, symName: __ZNSt3__116forward_as_tupleB8ue170006IJRKNS_9allocatorIZN5Acorn13Compiler_Unit23add_double_string_tokenEccmmmmbP3mapINS_12basic_stringIcNS_11char_traitsIcEENS1_IcEEEENS_8functionIFvRNS2_7ContextEEEEEEUlSC_E2_EEEEENS_5tupleIJDpOT_EEESO_, symObjAddr: 0xF9EDC, symBinAddr: 0x1000FB1CC, symSize: 0x1F8 }
  - { offsetInCU: 0x8FB4F, offset: 0x8FB4F, size: 0x8, addend: 0x0, symName: __ZNSt3__13getB8ue170006ILm0EJRKNS_9allocatorIZN5Acorn13Compiler_Unit23add_double_string_tokenEccmmmmbP3mapINS_12basic_stringIcNS_11char_traitsIcEENS1_IcEEEENS_8functionIFvRNS2_7ContextEEEEEEUlSC_E2_EEEEERNS_13tuple_elementIXT_ENS_5tupleIJDpT0_EEEE4typeERSP_, symObjAddr: 0xFAA70, symBinAddr: 0x1000FBD60, symSize: 0x24 }
  - { offsetInCU: 0x8FB92, offset: 0x8FB92, size: 0x8, addend: 0x0, symName: __ZNSt3__18__invokeB8ue170006IRZN5Acorn13Compiler_Unit23add_double_string_tokenEccmmmmbP3mapINS_12basic_stringIcNS_11char_traitsIcEENS_9allocatorIcEEEENS_8functionIFvRNS1_7ContextEEEEEEUlSC_E2_JSC_EEEDTclclsr3stdE7declvalIT_EEspclsr3stdE7declvalIT0_EEEEOSJ_DpOSK_, symObjAddr: 0xFAB84, symBinAddr: 0x1000FBE74, symSize: 0x2C }
  - { offsetInCU: 0x8FD42, offset: 0x8FD42, size: 0x8, addend: 0x0, symName: __ZNSt3__116forward_as_tupleB8ue170006IJZN5Acorn13Compiler_Unit14init_tokenizerEvEUlRNS1_7ContextEE1_EEENS_5tupleIJDpOT_EEES9_, symObjAddr: 0xFD0E8, symBinAddr: 0x1000FE3D8, symSize: 0x1F8 }
  - { offsetInCU: 0x8FD7C, offset: 0x8FD7C, size: 0x8, addend: 0x0, symName: __ZNSt3__116forward_as_tupleB8ue170006IJNS_9allocatorIZN5Acorn13Compiler_Unit14init_tokenizerEvEUlRNS2_7ContextEE1_EEEEENS_5tupleIJDpOT_EEESB_, symObjAddr: 0xFD2E0, symBinAddr: 0x1000FE5D0, symSize: 0x1F8 }
  - { offsetInCU: 0x8FDE0, offset: 0x8FDE0, size: 0x8, addend: 0x0, symName: __ZNSt3__13getB8ue170006ILm0EJOZN5Acorn13Compiler_Unit14init_tokenizerEvEUlRNS1_7ContextEE1_EEERNS_13tuple_elementIXT_ENS_5tupleIJDpT0_EEEE4typeERSB_, symObjAddr: 0xFE1C4, symBinAddr: 0x1000FF4B4, symSize: 0x24 }
  - { offsetInCU: 0x8FE22, offset: 0x8FE22, size: 0x8, addend: 0x0, symName: __ZNSt3__13getB8ue170006ILm0EJONS_9allocatorIZN5Acorn13Compiler_Unit14init_tokenizerEvEUlRNS2_7ContextEE1_EEEEERNS_13tuple_elementIXT_ENS_5tupleIJDpT0_EEEE4typeERSD_, symObjAddr: 0xFE248, symBinAddr: 0x1000FF538, symSize: 0x24 }
  - { offsetInCU: 0x90348, offset: 0x90348, size: 0x8, addend: 0x0, symName: __ZNSt3__116forward_as_tupleB8ue170006IJRKZN5Acorn13Compiler_Unit14init_tokenizerEvEUlRNS1_7ContextEE1_EEENS_5tupleIJDpOT_EEESB_, symObjAddr: 0xFEEDC, symBinAddr: 0x1001001CC, symSize: 0x1F8 }
  - { offsetInCU: 0x90397, offset: 0x90397, size: 0x8, addend: 0x0, symName: __ZNSt3__13getB8ue170006ILm0EJRKZN5Acorn13Compiler_Unit14init_tokenizerEvEUlRNS1_7ContextEE1_EEERNS_13tuple_elementIXT_ENS_5tupleIJDpT0_EEEE4typeERSC_, symObjAddr: 0xFFA80, symBinAddr: 0x100100D70, symSize: 0x24 }
  - { offsetInCU: 0x903D9, offset: 0x903D9, size: 0x8, addend: 0x0, symName: __ZNSt3__116forward_as_tupleB8ue170006IJRKNS_9allocatorIZN5Acorn13Compiler_Unit14init_tokenizerEvEUlRNS2_7ContextEE1_EEEEENS_5tupleIJDpOT_EEESD_, symObjAddr: 0x100220, symBinAddr: 0x100101510, symSize: 0x1F8 }
  - { offsetInCU: 0x90428, offset: 0x90428, size: 0x8, addend: 0x0, symName: __ZNSt3__13getB8ue170006ILm0EJRKNS_9allocatorIZN5Acorn13Compiler_Unit14init_tokenizerEvEUlRNS2_7ContextEE1_EEEEERNS_13tuple_elementIXT_ENS_5tupleIJDpT0_EEEE4typeERSE_, symObjAddr: 0x100DB4, symBinAddr: 0x1001020A4, symSize: 0x24 }
  - { offsetInCU: 0x9046B, offset: 0x9046B, size: 0x8, addend: 0x0, symName: __ZNSt3__18__invokeB8ue170006IRZN5Acorn13Compiler_Unit14init_tokenizerEvEUlRNS1_7ContextEE1_JS4_EEEDTclclsr3stdE7declvalIT_EEspclsr3stdE7declvalIT0_EEEEOS7_DpOS8_, symObjAddr: 0x100EC8, symBinAddr: 0x1001021B8, symSize: 0x2C }
  - { offsetInCU: 0x9061B, offset: 0x9061B, size: 0x8, addend: 0x0, symName: __ZNSt3__116forward_as_tupleB8ue170006IJZN5Acorn13Compiler_Unit14init_tokenizerEvEUlRNS1_7ContextEE2_EEENS_5tupleIJDpOT_EEES9_, symObjAddr: 0x102620, symBinAddr: 0x100103910, symSize: 0x1F8 }
  - { offsetInCU: 0x90655, offset: 0x90655, size: 0x8, addend: 0x0, symName: __ZNSt3__116forward_as_tupleB8ue170006IJNS_9allocatorIZN5Acorn13Compiler_Unit14init_tokenizerEvEUlRNS2_7ContextEE2_EEEEENS_5tupleIJDpOT_EEESB_, symObjAddr: 0x102818, symBinAddr: 0x100103B08, symSize: 0x1F8 }
  - { offsetInCU: 0x906B9, offset: 0x906B9, size: 0x8, addend: 0x0, symName: __ZNSt3__13getB8ue170006ILm0EJOZN5Acorn13Compiler_Unit14init_tokenizerEvEUlRNS1_7ContextEE2_EEERNS_13tuple_elementIXT_ENS_5tupleIJDpT0_EEEE4typeERSB_, symObjAddr: 0x1036FC, symBinAddr: 0x1001049EC, symSize: 0x24 }
  - { offsetInCU: 0x906FB, offset: 0x906FB, size: 0x8, addend: 0x0, symName: __ZNSt3__13getB8ue170006ILm0EJONS_9allocatorIZN5Acorn13Compiler_Unit14init_tokenizerEvEUlRNS2_7ContextEE2_EEEEERNS_13tuple_elementIXT_ENS_5tupleIJDpT0_EEEE4typeERSD_, symObjAddr: 0x103780, symBinAddr: 0x100104A70, symSize: 0x24 }
  - { offsetInCU: 0x90C21, offset: 0x90C21, size: 0x8, addend: 0x0, symName: __ZNSt3__116forward_as_tupleB8ue170006IJRKZN5Acorn13Compiler_Unit14init_tokenizerEvEUlRNS1_7ContextEE2_EEENS_5tupleIJDpOT_EEESB_, symObjAddr: 0x104414, symBinAddr: 0x100105704, symSize: 0x1F8 }
  - { offsetInCU: 0x90C70, offset: 0x90C70, size: 0x8, addend: 0x0, symName: __ZNSt3__13getB8ue170006ILm0EJRKZN5Acorn13Compiler_Unit14init_tokenizerEvEUlRNS1_7ContextEE2_EEERNS_13tuple_elementIXT_ENS_5tupleIJDpT0_EEEE4typeERSC_, symObjAddr: 0x104FB8, symBinAddr: 0x1001062A8, symSize: 0x24 }
  - { offsetInCU: 0x90CB2, offset: 0x90CB2, size: 0x8, addend: 0x0, symName: __ZNSt3__116forward_as_tupleB8ue170006IJRKNS_9allocatorIZN5Acorn13Compiler_Unit14init_tokenizerEvEUlRNS2_7ContextEE2_EEEEENS_5tupleIJDpOT_EEESD_, symObjAddr: 0x105758, symBinAddr: 0x100106A48, symSize: 0x1F8 }
  - { offsetInCU: 0x90D01, offset: 0x90D01, size: 0x8, addend: 0x0, symName: __ZNSt3__13getB8ue170006ILm0EJRKNS_9allocatorIZN5Acorn13Compiler_Unit14init_tokenizerEvEUlRNS2_7ContextEE2_EEEEERNS_13tuple_elementIXT_ENS_5tupleIJDpT0_EEEE4typeERSE_, symObjAddr: 0x1062EC, symBinAddr: 0x1001075DC, symSize: 0x24 }
  - { offsetInCU: 0x90D44, offset: 0x90D44, size: 0x8, addend: 0x0, symName: __ZNSt3__18__invokeB8ue170006IRZN5Acorn13Compiler_Unit14init_tokenizerEvEUlRNS1_7ContextEE2_JS4_EEEDTclclsr3stdE7declvalIT_EEspclsr3stdE7declvalIT0_EEEEOS7_DpOS8_, symObjAddr: 0x106400, symBinAddr: 0x1001076F0, symSize: 0x2C }
  - { offsetInCU: 0x90EF4, offset: 0x90EF4, size: 0x8, addend: 0x0, symName: __ZNSt3__116forward_as_tupleB8ue170006IJZN5Acorn13Compiler_Unit14init_tokenizerEvEUlRNS1_7ContextEE3_EEENS_5tupleIJDpOT_EEES9_, symObjAddr: 0x107B58, symBinAddr: 0x100108E48, symSize: 0x1F8 }
  - { offsetInCU: 0x90F2E, offset: 0x90F2E, size: 0x8, addend: 0x0, symName: __ZNSt3__116forward_as_tupleB8ue170006IJNS_9allocatorIZN5Acorn13Compiler_Unit14init_tokenizerEvEUlRNS2_7ContextEE3_EEEEENS_5tupleIJDpOT_EEESB_, symObjAddr: 0x107D50, symBinAddr: 0x100109040, symSize: 0x1F8 }
  - { offsetInCU: 0x90F92, offset: 0x90F92, size: 0x8, addend: 0x0, symName: __ZNSt3__13getB8ue170006ILm0EJOZN5Acorn13Compiler_Unit14init_tokenizerEvEUlRNS1_7ContextEE3_EEERNS_13tuple_elementIXT_ENS_5tupleIJDpT0_EEEE4typeERSB_, symObjAddr: 0x108C34, symBinAddr: 0x100109F24, symSize: 0x24 }
  - { offsetInCU: 0x90FD4, offset: 0x90FD4, size: 0x8, addend: 0x0, symName: __ZNSt3__13getB8ue170006ILm0EJONS_9allocatorIZN5Acorn13Compiler_Unit14init_tokenizerEvEUlRNS2_7ContextEE3_EEEEERNS_13tuple_elementIXT_ENS_5tupleIJDpT0_EEEE4typeERSD_, symObjAddr: 0x108CB8, symBinAddr: 0x100109FA8, symSize: 0x24 }
  - { offsetInCU: 0x914FA, offset: 0x914FA, size: 0x8, addend: 0x0, symName: __ZNSt3__116forward_as_tupleB8ue170006IJRKZN5Acorn13Compiler_Unit14init_tokenizerEvEUlRNS1_7ContextEE3_EEENS_5tupleIJDpOT_EEESB_, symObjAddr: 0x10994C, symBinAddr: 0x10010AC3C, symSize: 0x1F8 }
  - { offsetInCU: 0x91549, offset: 0x91549, size: 0x8, addend: 0x0, symName: __ZNSt3__13getB8ue170006ILm0EJRKZN5Acorn13Compiler_Unit14init_tokenizerEvEUlRNS1_7ContextEE3_EEERNS_13tuple_elementIXT_ENS_5tupleIJDpT0_EEEE4typeERSC_, symObjAddr: 0x10A4F0, symBinAddr: 0x10010B7E0, symSize: 0x24 }
  - { offsetInCU: 0x9158B, offset: 0x9158B, size: 0x8, addend: 0x0, symName: __ZNSt3__116forward_as_tupleB8ue170006IJRKNS_9allocatorIZN5Acorn13Compiler_Unit14init_tokenizerEvEUlRNS2_7ContextEE3_EEEEENS_5tupleIJDpOT_EEESD_, symObjAddr: 0x10AC90, symBinAddr: 0x10010BF80, symSize: 0x1F8 }
  - { offsetInCU: 0x915DA, offset: 0x915DA, size: 0x8, addend: 0x0, symName: __ZNSt3__13getB8ue170006ILm0EJRKNS_9allocatorIZN5Acorn13Compiler_Unit14init_tokenizerEvEUlRNS2_7ContextEE3_EEEEERNS_13tuple_elementIXT_ENS_5tupleIJDpT0_EEEE4typeERSE_, symObjAddr: 0x10B824, symBinAddr: 0x10010CB14, symSize: 0x24 }
  - { offsetInCU: 0x9161D, offset: 0x9161D, size: 0x8, addend: 0x0, symName: __ZNSt3__18__invokeB8ue170006IRZN5Acorn13Compiler_Unit14init_tokenizerEvEUlRNS1_7ContextEE3_JS4_EEEDTclclsr3stdE7declvalIT_EEspclsr3stdE7declvalIT0_EEEEOS7_DpOS8_, symObjAddr: 0x10B938, symBinAddr: 0x10010CC28, symSize: 0x2C }
  - { offsetInCU: 0x917CD, offset: 0x917CD, size: 0x8, addend: 0x0, symName: __ZNSt3__116forward_as_tupleB8ue170006IJZN5Acorn13Compiler_Unit14init_tokenizerEvEUlRNS1_7ContextEE4_EEENS_5tupleIJDpOT_EEES9_, symObjAddr: 0x10D174, symBinAddr: 0x10010E464, symSize: 0x1F8 }
  - { offsetInCU: 0x91807, offset: 0x91807, size: 0x8, addend: 0x0, symName: __ZNSt3__116forward_as_tupleB8ue170006IJNS_9allocatorIZN5Acorn13Compiler_Unit14init_tokenizerEvEUlRNS2_7ContextEE4_EEEEENS_5tupleIJDpOT_EEESB_, symObjAddr: 0x10D36C, symBinAddr: 0x10010E65C, symSize: 0x1F8 }
  - { offsetInCU: 0x9186B, offset: 0x9186B, size: 0x8, addend: 0x0, symName: __ZNSt3__13getB8ue170006ILm0EJOZN5Acorn13Compiler_Unit14init_tokenizerEvEUlRNS1_7ContextEE4_EEERNS_13tuple_elementIXT_ENS_5tupleIJDpT0_EEEE4typeERSB_, symObjAddr: 0x10E250, symBinAddr: 0x10010F540, symSize: 0x24 }
  - { offsetInCU: 0x918AD, offset: 0x918AD, size: 0x8, addend: 0x0, symName: __ZNSt3__13getB8ue170006ILm0EJONS_9allocatorIZN5Acorn13Compiler_Unit14init_tokenizerEvEUlRNS2_7ContextEE4_EEEEERNS_13tuple_elementIXT_ENS_5tupleIJDpT0_EEEE4typeERSD_, symObjAddr: 0x10E2D4, symBinAddr: 0x10010F5C4, symSize: 0x24 }
  - { offsetInCU: 0x91DD3, offset: 0x91DD3, size: 0x8, addend: 0x0, symName: __ZNSt3__116forward_as_tupleB8ue170006IJRKZN5Acorn13Compiler_Unit14init_tokenizerEvEUlRNS1_7ContextEE4_EEENS_5tupleIJDpOT_EEESB_, symObjAddr: 0x10EF68, symBinAddr: 0x100110258, symSize: 0x1F8 }
  - { offsetInCU: 0x91E22, offset: 0x91E22, size: 0x8, addend: 0x0, symName: __ZNSt3__13getB8ue170006ILm0EJRKZN5Acorn13Compiler_Unit14init_tokenizerEvEUlRNS1_7ContextEE4_EEERNS_13tuple_elementIXT_ENS_5tupleIJDpT0_EEEE4typeERSC_, symObjAddr: 0x10FB0C, symBinAddr: 0x100110DFC, symSize: 0x24 }
  - { offsetInCU: 0x91E64, offset: 0x91E64, size: 0x8, addend: 0x0, symName: __ZNSt3__116forward_as_tupleB8ue170006IJRKNS_9allocatorIZN5Acorn13Compiler_Unit14init_tokenizerEvEUlRNS2_7ContextEE4_EEEEENS_5tupleIJDpOT_EEESD_, symObjAddr: 0x1102AC, symBinAddr: 0x10011159C, symSize: 0x1F8 }
  - { offsetInCU: 0x91EB3, offset: 0x91EB3, size: 0x8, addend: 0x0, symName: __ZNSt3__13getB8ue170006ILm0EJRKNS_9allocatorIZN5Acorn13Compiler_Unit14init_tokenizerEvEUlRNS2_7ContextEE4_EEEEERNS_13tuple_elementIXT_ENS_5tupleIJDpT0_EEEE4typeERSE_, symObjAddr: 0x110E40, symBinAddr: 0x100112130, symSize: 0x24 }
  - { offsetInCU: 0x91EF6, offset: 0x91EF6, size: 0x8, addend: 0x0, symName: __ZNSt3__18__invokeB8ue170006IRZN5Acorn13Compiler_Unit14init_tokenizerEvEUlRNS1_7ContextEE4_JS4_EEEDTclclsr3stdE7declvalIT_EEspclsr3stdE7declvalIT0_EEEEOS7_DpOS8_, symObjAddr: 0x110F54, symBinAddr: 0x100112244, symSize: 0x2C }
  - { offsetInCU: 0x91F43, offset: 0x91F43, size: 0x8, addend: 0x0, symName: __ZNSt3__1lsB8ue170006INS_11char_traitsIcEEEERNS_13basic_ostreamIcT_EES6_c, symObjAddr: 0x111C6C, symBinAddr: 0x100112F5C, symSize: 0x220 }
  - { offsetInCU: 0x91F8E, offset: 0x91F8E, size: 0x8, addend: 0x0, symName: __ZNSt3__1lsB8ue170006INS_11char_traitsIcEEEERNS_13basic_ostreamIcT_EES6_PKc, symObjAddr: 0x111E8C, symBinAddr: 0x10011317C, symSize: 0x48 }
  - { offsetInCU: 0x91FD4, offset: 0x91FD4, size: 0x8, addend: 0x0, symName: __ZNSt3__118__constexpr_strlenB8ue170006EPKc, symObjAddr: 0x111F14, symBinAddr: 0x100113204, symSize: 0x24 }
  - { offsetInCU: 0x92163, offset: 0x92163, size: 0x8, addend: 0x0, symName: __ZNSt3__116forward_as_tupleB8ue170006IJZN5Acorn13Compiler_Unit12init_stage_aEvEUlRNS1_7ContextEE_EEENS_5tupleIJDpOT_EEES9_, symObjAddr: 0x115308, symBinAddr: 0x1001165F8, symSize: 0x1F8 }
  - { offsetInCU: 0x9219D, offset: 0x9219D, size: 0x8, addend: 0x0, symName: __ZNSt3__116forward_as_tupleB8ue170006IJNS_9allocatorIZN5Acorn13Compiler_Unit12init_stage_aEvEUlRNS2_7ContextEE_EEEEENS_5tupleIJDpOT_EEESB_, symObjAddr: 0x115500, symBinAddr: 0x1001167F0, symSize: 0x1F8 }
  - { offsetInCU: 0x92201, offset: 0x92201, size: 0x8, addend: 0x0, symName: __ZNSt3__13getB8ue170006ILm0EJOZN5Acorn13Compiler_Unit12init_stage_aEvEUlRNS1_7ContextEE_EEERNS_13tuple_elementIXT_ENS_5tupleIJDpT0_EEEE4typeERSB_, symObjAddr: 0x1163E4, symBinAddr: 0x1001176D4, symSize: 0x24 }
  - { offsetInCU: 0x92243, offset: 0x92243, size: 0x8, addend: 0x0, symName: __ZNSt3__13getB8ue170006ILm0EJONS_9allocatorIZN5Acorn13Compiler_Unit12init_stage_aEvEUlRNS2_7ContextEE_EEEEERNS_13tuple_elementIXT_ENS_5tupleIJDpT0_EEEE4typeERSD_, symObjAddr: 0x116468, symBinAddr: 0x100117758, symSize: 0x24 }
  - { offsetInCU: 0x92769, offset: 0x92769, size: 0x8, addend: 0x0, symName: __ZNSt3__116forward_as_tupleB8ue170006IJRKZN5Acorn13Compiler_Unit12init_stage_aEvEUlRNS1_7ContextEE_EEENS_5tupleIJDpOT_EEESB_, symObjAddr: 0x1170FC, symBinAddr: 0x1001183EC, symSize: 0x1F8 }
  - { offsetInCU: 0x927B8, offset: 0x927B8, size: 0x8, addend: 0x0, symName: __ZNSt3__13getB8ue170006ILm0EJRKZN5Acorn13Compiler_Unit12init_stage_aEvEUlRNS1_7ContextEE_EEERNS_13tuple_elementIXT_ENS_5tupleIJDpT0_EEEE4typeERSC_, symObjAddr: 0x117CA0, symBinAddr: 0x100118F90, symSize: 0x24 }
  - { offsetInCU: 0x927FA, offset: 0x927FA, size: 0x8, addend: 0x0, symName: __ZNSt3__116forward_as_tupleB8ue170006IJRKNS_9allocatorIZN5Acorn13Compiler_Unit12init_stage_aEvEUlRNS2_7ContextEE_EEEEENS_5tupleIJDpOT_EEESD_, symObjAddr: 0x118440, symBinAddr: 0x100119730, symSize: 0x1F8 }
  - { offsetInCU: 0x92849, offset: 0x92849, size: 0x8, addend: 0x0, symName: __ZNSt3__13getB8ue170006ILm0EJRKNS_9allocatorIZN5Acorn13Compiler_Unit12init_stage_aEvEUlRNS2_7ContextEE_EEEEERNS_13tuple_elementIXT_ENS_5tupleIJDpT0_EEEE4typeERSE_, symObjAddr: 0x118FD4, symBinAddr: 0x10011A2C4, symSize: 0x24 }
  - { offsetInCU: 0x9288C, offset: 0x9288C, size: 0x8, addend: 0x0, symName: __ZNSt3__18__invokeB8ue170006IRZN5Acorn13Compiler_Unit12init_stage_aEvEUlRNS1_7ContextEE_JS4_EEEDTclclsr3stdE7declvalIT_EEspclsr3stdE7declvalIT0_EEEEOS7_DpOS8_, symObjAddr: 0x1190E8, symBinAddr: 0x10011A3D8, symSize: 0x2C }
  - { offsetInCU: 0x92A3C, offset: 0x92A3C, size: 0x8, addend: 0x0, symName: __ZNSt3__116forward_as_tupleB8ue170006IJZN5Acorn13Compiler_Unit12init_stage_aEvEUlRNS1_7ContextEE0_EEENS_5tupleIJDpOT_EEES9_, symObjAddr: 0x11F6EC, symBinAddr: 0x1001209DC, symSize: 0x1F8 }
  - { offsetInCU: 0x92A76, offset: 0x92A76, size: 0x8, addend: 0x0, symName: __ZNSt3__116forward_as_tupleB8ue170006IJNS_9allocatorIZN5Acorn13Compiler_Unit12init_stage_aEvEUlRNS2_7ContextEE0_EEEEENS_5tupleIJDpOT_EEESB_, symObjAddr: 0x11F8E4, symBinAddr: 0x100120BD4, symSize: 0x1F8 }
  - { offsetInCU: 0x92ADA, offset: 0x92ADA, size: 0x8, addend: 0x0, symName: __ZNSt3__13getB8ue170006ILm0EJOZN5Acorn13Compiler_Unit12init_stage_aEvEUlRNS1_7ContextEE0_EEERNS_13tuple_elementIXT_ENS_5tupleIJDpT0_EEEE4typeERSB_, symObjAddr: 0x1207C8, symBinAddr: 0x100121AB8, symSize: 0x24 }
  - { offsetInCU: 0x92B1C, offset: 0x92B1C, size: 0x8, addend: 0x0, symName: __ZNSt3__13getB8ue170006ILm0EJONS_9allocatorIZN5Acorn13Compiler_Unit12init_stage_aEvEUlRNS2_7ContextEE0_EEEEERNS_13tuple_elementIXT_ENS_5tupleIJDpT0_EEEE4typeERSD_, symObjAddr: 0x12084C, symBinAddr: 0x100121B3C, symSize: 0x24 }
  - { offsetInCU: 0x93042, offset: 0x93042, size: 0x8, addend: 0x0, symName: __ZNSt3__116forward_as_tupleB8ue170006IJRKZN5Acorn13Compiler_Unit12init_stage_aEvEUlRNS1_7ContextEE0_EEENS_5tupleIJDpOT_EEESB_, symObjAddr: 0x1214E8, symBinAddr: 0x1001227D8, symSize: 0x1F8 }
  - { offsetInCU: 0x93091, offset: 0x93091, size: 0x8, addend: 0x0, symName: __ZNSt3__13getB8ue170006ILm0EJRKZN5Acorn13Compiler_Unit12init_stage_aEvEUlRNS1_7ContextEE0_EEERNS_13tuple_elementIXT_ENS_5tupleIJDpT0_EEEE4typeERSC_, symObjAddr: 0x12208C, symBinAddr: 0x10012337C, symSize: 0x24 }
  - { offsetInCU: 0x930D3, offset: 0x930D3, size: 0x8, addend: 0x0, symName: __ZNSt3__116forward_as_tupleB8ue170006IJRKNS_9allocatorIZN5Acorn13Compiler_Unit12init_stage_aEvEUlRNS2_7ContextEE0_EEEEENS_5tupleIJDpOT_EEESD_, symObjAddr: 0x122830, symBinAddr: 0x100123B20, symSize: 0x1F8 }
  - { offsetInCU: 0x93122, offset: 0x93122, size: 0x8, addend: 0x0, symName: __ZNSt3__13getB8ue170006ILm0EJRKNS_9allocatorIZN5Acorn13Compiler_Unit12init_stage_aEvEUlRNS2_7ContextEE0_EEEEERNS_13tuple_elementIXT_ENS_5tupleIJDpT0_EEEE4typeERSE_, symObjAddr: 0x1233C4, symBinAddr: 0x1001246B4, symSize: 0x24 }
  - { offsetInCU: 0x93165, offset: 0x93165, size: 0x8, addend: 0x0, symName: __ZNSt3__18__invokeB8ue170006IRZN5Acorn13Compiler_Unit12init_stage_aEvEUlRNS1_7ContextEE0_JS4_EEEDTclclsr3stdE7declvalIT_EEspclsr3stdE7declvalIT0_EEEEOS7_DpOS8_, symObjAddr: 0x1234D8, symBinAddr: 0x1001247C8, symSize: 0x2C }
  - { offsetInCU: 0x931BC, offset: 0x931BC, size: 0x8, addend: 0x0, symName: __ZNSt3__14swapB8ue170006IN5Acorn4NodeEEENS_9enable_ifIXaasr21is_move_constructibleIT_EE5valuesr18is_move_assignableIS4_EE5valueEvE4typeERS4_S7_, symObjAddr: 0x125AE8, symBinAddr: 0x100126DD8, symSize: 0x200 }
  - { offsetInCU: 0x93377, offset: 0x93377, size: 0x8, addend: 0x0, symName: __ZNSt3__116forward_as_tupleB8ue170006IJZN5Acorn13Compiler_Unit12init_stage_aEvEUlRNS1_7ContextEE1_EEENS_5tupleIJDpOT_EEES9_, symObjAddr: 0x127A64, symBinAddr: 0x100128D54, symSize: 0x1F8 }
  - { offsetInCU: 0x933B1, offset: 0x933B1, size: 0x8, addend: 0x0, symName: __ZNSt3__116forward_as_tupleB8ue170006IJNS_9allocatorIZN5Acorn13Compiler_Unit12init_stage_aEvEUlRNS2_7ContextEE1_EEEEENS_5tupleIJDpOT_EEESB_, symObjAddr: 0x127C5C, symBinAddr: 0x100128F4C, symSize: 0x1F8 }
  - { offsetInCU: 0x93415, offset: 0x93415, size: 0x8, addend: 0x0, symName: __ZNSt3__13getB8ue170006ILm0EJOZN5Acorn13Compiler_Unit12init_stage_aEvEUlRNS1_7ContextEE1_EEERNS_13tuple_elementIXT_ENS_5tupleIJDpT0_EEEE4typeERSB_, symObjAddr: 0x128B40, symBinAddr: 0x100129E30, symSize: 0x24 }
  - { offsetInCU: 0x93457, offset: 0x93457, size: 0x8, addend: 0x0, symName: __ZNSt3__13getB8ue170006ILm0EJONS_9allocatorIZN5Acorn13Compiler_Unit12init_stage_aEvEUlRNS2_7ContextEE1_EEEEERNS_13tuple_elementIXT_ENS_5tupleIJDpT0_EEEE4typeERSD_, symObjAddr: 0x128BC4, symBinAddr: 0x100129EB4, symSize: 0x24 }
  - { offsetInCU: 0x9397D, offset: 0x9397D, size: 0x8, addend: 0x0, symName: __ZNSt3__116forward_as_tupleB8ue170006IJRKZN5Acorn13Compiler_Unit12init_stage_aEvEUlRNS1_7ContextEE1_EEENS_5tupleIJDpOT_EEESB_, symObjAddr: 0x129858, symBinAddr: 0x10012AB48, symSize: 0x1F8 }
  - { offsetInCU: 0x939CC, offset: 0x939CC, size: 0x8, addend: 0x0, symName: __ZNSt3__13getB8ue170006ILm0EJRKZN5Acorn13Compiler_Unit12init_stage_aEvEUlRNS1_7ContextEE1_EEERNS_13tuple_elementIXT_ENS_5tupleIJDpT0_EEEE4typeERSC_, symObjAddr: 0x12A3FC, symBinAddr: 0x10012B6EC, symSize: 0x24 }
  - { offsetInCU: 0x93A0E, offset: 0x93A0E, size: 0x8, addend: 0x0, symName: __ZNSt3__116forward_as_tupleB8ue170006IJRKNS_9allocatorIZN5Acorn13Compiler_Unit12init_stage_aEvEUlRNS2_7ContextEE1_EEEEENS_5tupleIJDpOT_EEESD_, symObjAddr: 0x12AB9C, symBinAddr: 0x10012BE8C, symSize: 0x1F8 }
  - { offsetInCU: 0x93A5D, offset: 0x93A5D, size: 0x8, addend: 0x0, symName: __ZNSt3__13getB8ue170006ILm0EJRKNS_9allocatorIZN5Acorn13Compiler_Unit12init_stage_aEvEUlRNS2_7ContextEE1_EEEEERNS_13tuple_elementIXT_ENS_5tupleIJDpT0_EEEE4typeERSE_, symObjAddr: 0x12B730, symBinAddr: 0x10012CA20, symSize: 0x24 }
  - { offsetInCU: 0x93AA0, offset: 0x93AA0, size: 0x8, addend: 0x0, symName: __ZNSt3__18__invokeB8ue170006IRZN5Acorn13Compiler_Unit12init_stage_aEvEUlRNS1_7ContextEE1_JS4_EEEDTclclsr3stdE7declvalIT_EEspclsr3stdE7declvalIT0_EEEEOS7_DpOS8_, symObjAddr: 0x12B844, symBinAddr: 0x10012CB34, symSize: 0x2C }
  - { offsetInCU: 0x93C50, offset: 0x93C50, size: 0x8, addend: 0x0, symName: __ZNSt3__116forward_as_tupleB8ue170006IJZN5Acorn13Compiler_Unit12init_stage_sEvEUlRNS1_7ContextEE_EEENS_5tupleIJDpOT_EEES9_, symObjAddr: 0x12DD88, symBinAddr: 0x10012F078, symSize: 0x1F8 }
  - { offsetInCU: 0x93C8A, offset: 0x93C8A, size: 0x8, addend: 0x0, symName: __ZNSt3__116forward_as_tupleB8ue170006IJNS_9allocatorIZN5Acorn13Compiler_Unit12init_stage_sEvEUlRNS2_7ContextEE_EEEEENS_5tupleIJDpOT_EEESB_, symObjAddr: 0x12DF80, symBinAddr: 0x10012F270, symSize: 0x1F8 }
  - { offsetInCU: 0x93CEE, offset: 0x93CEE, size: 0x8, addend: 0x0, symName: __ZNSt3__13getB8ue170006ILm0EJOZN5Acorn13Compiler_Unit12init_stage_sEvEUlRNS1_7ContextEE_EEERNS_13tuple_elementIXT_ENS_5tupleIJDpT0_EEEE4typeERSB_, symObjAddr: 0x12EE64, symBinAddr: 0x100130154, symSize: 0x24 }
  - { offsetInCU: 0x93D30, offset: 0x93D30, size: 0x8, addend: 0x0, symName: __ZNSt3__13getB8ue170006ILm0EJONS_9allocatorIZN5Acorn13Compiler_Unit12init_stage_sEvEUlRNS2_7ContextEE_EEEEERNS_13tuple_elementIXT_ENS_5tupleIJDpT0_EEEE4typeERSD_, symObjAddr: 0x12EEE8, symBinAddr: 0x1001301D8, symSize: 0x24 }
  - { offsetInCU: 0x94256, offset: 0x94256, size: 0x8, addend: 0x0, symName: __ZNSt3__116forward_as_tupleB8ue170006IJRKZN5Acorn13Compiler_Unit12init_stage_sEvEUlRNS1_7ContextEE_EEENS_5tupleIJDpOT_EEESB_, symObjAddr: 0x12FB7C, symBinAddr: 0x100130E6C, symSize: 0x1F8 }
  - { offsetInCU: 0x942A5, offset: 0x942A5, size: 0x8, addend: 0x0, symName: __ZNSt3__13getB8ue170006ILm0EJRKZN5Acorn13Compiler_Unit12init_stage_sEvEUlRNS1_7ContextEE_EEERNS_13tuple_elementIXT_ENS_5tupleIJDpT0_EEEE4typeERSC_, symObjAddr: 0x130720, symBinAddr: 0x100131A10, symSize: 0x24 }
  - { offsetInCU: 0x942E7, offset: 0x942E7, size: 0x8, addend: 0x0, symName: __ZNSt3__116forward_as_tupleB8ue170006IJRKNS_9allocatorIZN5Acorn13Compiler_Unit12init_stage_sEvEUlRNS2_7ContextEE_EEEEENS_5tupleIJDpOT_EEESD_, symObjAddr: 0x130EC0, symBinAddr: 0x1001321B0, symSize: 0x1F8 }
  - { offsetInCU: 0x94336, offset: 0x94336, size: 0x8, addend: 0x0, symName: __ZNSt3__13getB8ue170006ILm0EJRKNS_9allocatorIZN5Acorn13Compiler_Unit12init_stage_sEvEUlRNS2_7ContextEE_EEEEERNS_13tuple_elementIXT_ENS_5tupleIJDpT0_EEEE4typeERSE_, symObjAddr: 0x131A54, symBinAddr: 0x100132D44, symSize: 0x24 }
  - { offsetInCU: 0x94379, offset: 0x94379, size: 0x8, addend: 0x0, symName: __ZNSt3__18__invokeB8ue170006IRZN5Acorn13Compiler_Unit12init_stage_sEvEUlRNS1_7ContextEE_JS4_EEEDTclclsr3stdE7declvalIT_EEspclsr3stdE7declvalIT0_EEEEOS7_DpOS8_, symObjAddr: 0x131B68, symBinAddr: 0x100132E58, symSize: 0x2C }
  - { offsetInCU: 0x94529, offset: 0x94529, size: 0x8, addend: 0x0, symName: __ZNSt3__116forward_as_tupleB8ue170006IJZN5Acorn13Compiler_Unit12init_stage_sEvEUlRNS1_7ContextEE0_EEENS_5tupleIJDpOT_EEES9_, symObjAddr: 0x135A80, symBinAddr: 0x100136D70, symSize: 0x1F8 }
  - { offsetInCU: 0x94563, offset: 0x94563, size: 0x8, addend: 0x0, symName: __ZNSt3__116forward_as_tupleB8ue170006IJNS_9allocatorIZN5Acorn13Compiler_Unit12init_stage_sEvEUlRNS2_7ContextEE0_EEEEENS_5tupleIJDpOT_EEESB_, symObjAddr: 0x135C78, symBinAddr: 0x100136F68, symSize: 0x1F8 }
  - { offsetInCU: 0x945C7, offset: 0x945C7, size: 0x8, addend: 0x0, symName: __ZNSt3__13getB8ue170006ILm0EJOZN5Acorn13Compiler_Unit12init_stage_sEvEUlRNS1_7ContextEE0_EEERNS_13tuple_elementIXT_ENS_5tupleIJDpT0_EEEE4typeERSB_, symObjAddr: 0x136B5C, symBinAddr: 0x100137E4C, symSize: 0x24 }
  - { offsetInCU: 0x94609, offset: 0x94609, size: 0x8, addend: 0x0, symName: __ZNSt3__13getB8ue170006ILm0EJONS_9allocatorIZN5Acorn13Compiler_Unit12init_stage_sEvEUlRNS2_7ContextEE0_EEEEERNS_13tuple_elementIXT_ENS_5tupleIJDpT0_EEEE4typeERSD_, symObjAddr: 0x136BE0, symBinAddr: 0x100137ED0, symSize: 0x24 }
  - { offsetInCU: 0x94B2F, offset: 0x94B2F, size: 0x8, addend: 0x0, symName: __ZNSt3__116forward_as_tupleB8ue170006IJRKZN5Acorn13Compiler_Unit12init_stage_sEvEUlRNS1_7ContextEE0_EEENS_5tupleIJDpOT_EEESB_, symObjAddr: 0x137874, symBinAddr: 0x100138B64, symSize: 0x1F8 }
  - { offsetInCU: 0x94B7E, offset: 0x94B7E, size: 0x8, addend: 0x0, symName: __ZNSt3__13getB8ue170006ILm0EJRKZN5Acorn13Compiler_Unit12init_stage_sEvEUlRNS1_7ContextEE0_EEERNS_13tuple_elementIXT_ENS_5tupleIJDpT0_EEEE4typeERSC_, symObjAddr: 0x138418, symBinAddr: 0x100139708, symSize: 0x24 }
  - { offsetInCU: 0x94BC0, offset: 0x94BC0, size: 0x8, addend: 0x0, symName: __ZNSt3__116forward_as_tupleB8ue170006IJRKNS_9allocatorIZN5Acorn13Compiler_Unit12init_stage_sEvEUlRNS2_7ContextEE0_EEEEENS_5tupleIJDpOT_EEESD_, symObjAddr: 0x138BB8, symBinAddr: 0x100139EA8, symSize: 0x1F8 }
  - { offsetInCU: 0x94C0F, offset: 0x94C0F, size: 0x8, addend: 0x0, symName: __ZNSt3__13getB8ue170006ILm0EJRKNS_9allocatorIZN5Acorn13Compiler_Unit12init_stage_sEvEUlRNS2_7ContextEE0_EEEEERNS_13tuple_elementIXT_ENS_5tupleIJDpT0_EEEE4typeERSE_, symObjAddr: 0x13974C, symBinAddr: 0x10013AA3C, symSize: 0x24 }
  - { offsetInCU: 0x94C52, offset: 0x94C52, size: 0x8, addend: 0x0, symName: __ZNSt3__18__invokeB8ue170006IRZN5Acorn13Compiler_Unit12init_stage_sEvEUlRNS1_7ContextEE0_JS4_EEEDTclclsr3stdE7declvalIT_EEspclsr3stdE7declvalIT0_EEEEOS7_DpOS8_, symObjAddr: 0x139860, symBinAddr: 0x10013AB50, symSize: 0x2C }
  - { offsetInCU: 0x94E02, offset: 0x94E02, size: 0x8, addend: 0x0, symName: __ZNSt3__116forward_as_tupleB8ue170006IJZN5Acorn13Compiler_Unit25add_type_stamping_handlerEjEUlRNS1_7ContextEE_EEENS_5tupleIJDpOT_EEES9_, symObjAddr: 0x13C19C, symBinAddr: 0x10013D48C, symSize: 0x1F8 }
  - { offsetInCU: 0x94E3C, offset: 0x94E3C, size: 0x8, addend: 0x0, symName: __ZNSt3__116forward_as_tupleB8ue170006IJNS_9allocatorIZN5Acorn13Compiler_Unit25add_type_stamping_handlerEjEUlRNS2_7ContextEE_EEEEENS_5tupleIJDpOT_EEESB_, symObjAddr: 0x13C394, symBinAddr: 0x10013D684, symSize: 0x1F8 }
  - { offsetInCU: 0x94EA0, offset: 0x94EA0, size: 0x8, addend: 0x0, symName: __ZNSt3__13getB8ue170006ILm0EJOZN5Acorn13Compiler_Unit25add_type_stamping_handlerEjEUlRNS1_7ContextEE_EEERNS_13tuple_elementIXT_ENS_5tupleIJDpT0_EEEE4typeERSB_, symObjAddr: 0x13D268, symBinAddr: 0x10013E558, symSize: 0x24 }
  - { offsetInCU: 0x94EE2, offset: 0x94EE2, size: 0x8, addend: 0x0, symName: __ZNSt3__13getB8ue170006ILm0EJONS_9allocatorIZN5Acorn13Compiler_Unit25add_type_stamping_handlerEjEUlRNS2_7ContextEE_EEEEERNS_13tuple_elementIXT_ENS_5tupleIJDpT0_EEEE4typeERSD_, symObjAddr: 0x13D2EC, symBinAddr: 0x10013E5DC, symSize: 0x24 }
  - { offsetInCU: 0x95408, offset: 0x95408, size: 0x8, addend: 0x0, symName: __ZNSt3__116forward_as_tupleB8ue170006IJRKZN5Acorn13Compiler_Unit25add_type_stamping_handlerEjEUlRNS1_7ContextEE_EEENS_5tupleIJDpOT_EEESB_, symObjAddr: 0x13DF80, symBinAddr: 0x10013F270, symSize: 0x1F8 }
  - { offsetInCU: 0x95457, offset: 0x95457, size: 0x8, addend: 0x0, symName: __ZNSt3__13getB8ue170006ILm0EJRKZN5Acorn13Compiler_Unit25add_type_stamping_handlerEjEUlRNS1_7ContextEE_EEERNS_13tuple_elementIXT_ENS_5tupleIJDpT0_EEEE4typeERSC_, symObjAddr: 0x13EB14, symBinAddr: 0x10013FE04, symSize: 0x24 }
  - { offsetInCU: 0x95499, offset: 0x95499, size: 0x8, addend: 0x0, symName: __ZNSt3__116forward_as_tupleB8ue170006IJRKNS_9allocatorIZN5Acorn13Compiler_Unit25add_type_stamping_handlerEjEUlRNS2_7ContextEE_EEEEENS_5tupleIJDpOT_EEESD_, symObjAddr: 0x13F2B4, symBinAddr: 0x1001405A4, symSize: 0x1F8 }
  - { offsetInCU: 0x954E8, offset: 0x954E8, size: 0x8, addend: 0x0, symName: __ZNSt3__13getB8ue170006ILm0EJRKNS_9allocatorIZN5Acorn13Compiler_Unit25add_type_stamping_handlerEjEUlRNS2_7ContextEE_EEEEERNS_13tuple_elementIXT_ENS_5tupleIJDpT0_EEEE4typeERSE_, symObjAddr: 0x13FE48, symBinAddr: 0x100141138, symSize: 0x24 }
  - { offsetInCU: 0x9552B, offset: 0x9552B, size: 0x8, addend: 0x0, symName: __ZNSt3__18__invokeB8ue170006IRZN5Acorn13Compiler_Unit25add_type_stamping_handlerEjEUlRNS1_7ContextEE_JS4_EEEDTclclsr3stdE7declvalIT_EEspclsr3stdE7declvalIT0_EEEEOS7_DpOS8_, symObjAddr: 0x13FF5C, symBinAddr: 0x10014124C, symSize: 0x2C }
  - { offsetInCU: 0x956DB, offset: 0x956DB, size: 0x8, addend: 0x0, symName: __ZNSt3__116forward_as_tupleB8ue170006IJZN5Acorn13Compiler_Unit4initEvEUlRNS1_7ContextEE_EEENS_5tupleIJDpOT_EEES9_, symObjAddr: 0x143E54, symBinAddr: 0x100145144, symSize: 0x1F8 }
  - { offsetInCU: 0x95715, offset: 0x95715, size: 0x8, addend: 0x0, symName: __ZNSt3__116forward_as_tupleB8ue170006IJNS_9allocatorIZN5Acorn13Compiler_Unit4initEvEUlRNS2_7ContextEE_EEEEENS_5tupleIJDpOT_EEESB_, symObjAddr: 0x14404C, symBinAddr: 0x10014533C, symSize: 0x1F8 }
  - { offsetInCU: 0x95779, offset: 0x95779, size: 0x8, addend: 0x0, symName: __ZNSt3__13getB8ue170006ILm0EJOZN5Acorn13Compiler_Unit4initEvEUlRNS1_7ContextEE_EEERNS_13tuple_elementIXT_ENS_5tupleIJDpT0_EEEE4typeERSB_, symObjAddr: 0x144F30, symBinAddr: 0x100146220, symSize: 0x24 }
  - { offsetInCU: 0x957BB, offset: 0x957BB, size: 0x8, addend: 0x0, symName: __ZNSt3__13getB8ue170006ILm0EJONS_9allocatorIZN5Acorn13Compiler_Unit4initEvEUlRNS2_7ContextEE_EEEEERNS_13tuple_elementIXT_ENS_5tupleIJDpT0_EEEE4typeERSD_, symObjAddr: 0x144FB4, symBinAddr: 0x1001462A4, symSize: 0x24 }
  - { offsetInCU: 0x95CE1, offset: 0x95CE1, size: 0x8, addend: 0x0, symName: __ZNSt3__116forward_as_tupleB8ue170006IJRKZN5Acorn13Compiler_Unit4initEvEUlRNS1_7ContextEE_EEENS_5tupleIJDpOT_EEESB_, symObjAddr: 0x145C48, symBinAddr: 0x100146F38, symSize: 0x1F8 }
  - { offsetInCU: 0x95D30, offset: 0x95D30, size: 0x8, addend: 0x0, symName: __ZNSt3__13getB8ue170006ILm0EJRKZN5Acorn13Compiler_Unit4initEvEUlRNS1_7ContextEE_EEERNS_13tuple_elementIXT_ENS_5tupleIJDpT0_EEEE4typeERSC_, symObjAddr: 0x1467EC, symBinAddr: 0x100147ADC, symSize: 0x24 }
  - { offsetInCU: 0x95D72, offset: 0x95D72, size: 0x8, addend: 0x0, symName: __ZNSt3__116forward_as_tupleB8ue170006IJRKNS_9allocatorIZN5Acorn13Compiler_Unit4initEvEUlRNS2_7ContextEE_EEEEENS_5tupleIJDpOT_EEESD_, symObjAddr: 0x146F8C, symBinAddr: 0x10014827C, symSize: 0x1F8 }
  - { offsetInCU: 0x95DC1, offset: 0x95DC1, size: 0x8, addend: 0x0, symName: __ZNSt3__13getB8ue170006ILm0EJRKNS_9allocatorIZN5Acorn13Compiler_Unit4initEvEUlRNS2_7ContextEE_EEEEERNS_13tuple_elementIXT_ENS_5tupleIJDpT0_EEEE4typeERSE_, symObjAddr: 0x147B20, symBinAddr: 0x100148E10, symSize: 0x24 }
  - { offsetInCU: 0x95E04, offset: 0x95E04, size: 0x8, addend: 0x0, symName: __ZNSt3__18__invokeB8ue170006IRZN5Acorn13Compiler_Unit4initEvEUlRNS1_7ContextEE_JS4_EEEDTclclsr3stdE7declvalIT_EEspclsr3stdE7declvalIT0_EEEEOS7_DpOS8_, symObjAddr: 0x147C34, symBinAddr: 0x100148F24, symSize: 0x2C }
  - { offsetInCU: 0x95FB4, offset: 0x95FB4, size: 0x8, addend: 0x0, symName: __ZNSt3__116forward_as_tupleB8ue170006IJZN5Acorn13Compiler_Unit4initEvEUlRNS1_7ContextEE0_EEENS_5tupleIJDpOT_EEES9_, symObjAddr: 0x1540B0, symBinAddr: 0x1001553A0, symSize: 0x1F8 }
  - { offsetInCU: 0x95FEE, offset: 0x95FEE, size: 0x8, addend: 0x0, symName: __ZNSt3__116forward_as_tupleB8ue170006IJNS_9allocatorIZN5Acorn13Compiler_Unit4initEvEUlRNS2_7ContextEE0_EEEEENS_5tupleIJDpOT_EEESB_, symObjAddr: 0x1542A8, symBinAddr: 0x100155598, symSize: 0x1F8 }
  - { offsetInCU: 0x96052, offset: 0x96052, size: 0x8, addend: 0x0, symName: __ZNSt3__13getB8ue170006ILm0EJOZN5Acorn13Compiler_Unit4initEvEUlRNS1_7ContextEE0_EEERNS_13tuple_elementIXT_ENS_5tupleIJDpT0_EEEE4typeERSB_, symObjAddr: 0x15518C, symBinAddr: 0x10015647C, symSize: 0x24 }
  - { offsetInCU: 0x96094, offset: 0x96094, size: 0x8, addend: 0x0, symName: __ZNSt3__13getB8ue170006ILm0EJONS_9allocatorIZN5Acorn13Compiler_Unit4initEvEUlRNS2_7ContextEE0_EEEEERNS_13tuple_elementIXT_ENS_5tupleIJDpT0_EEEE4typeERSD_, symObjAddr: 0x155210, symBinAddr: 0x100156500, symSize: 0x24 }
  - { offsetInCU: 0x965BA, offset: 0x965BA, size: 0x8, addend: 0x0, symName: __ZNSt3__116forward_as_tupleB8ue170006IJRKZN5Acorn13Compiler_Unit4initEvEUlRNS1_7ContextEE0_EEENS_5tupleIJDpOT_EEESB_, symObjAddr: 0x155EA4, symBinAddr: 0x100157194, symSize: 0x1F8 }
  - { offsetInCU: 0x96609, offset: 0x96609, size: 0x8, addend: 0x0, symName: __ZNSt3__13getB8ue170006ILm0EJRKZN5Acorn13Compiler_Unit4initEvEUlRNS1_7ContextEE0_EEERNS_13tuple_elementIXT_ENS_5tupleIJDpT0_EEEE4typeERSC_, symObjAddr: 0x156A48, symBinAddr: 0x100157D38, symSize: 0x24 }
  - { offsetInCU: 0x9664B, offset: 0x9664B, size: 0x8, addend: 0x0, symName: __ZNSt3__116forward_as_tupleB8ue170006IJRKNS_9allocatorIZN5Acorn13Compiler_Unit4initEvEUlRNS2_7ContextEE0_EEEEENS_5tupleIJDpOT_EEESD_, symObjAddr: 0x1571E8, symBinAddr: 0x1001584D8, symSize: 0x1F8 }
  - { offsetInCU: 0x9669A, offset: 0x9669A, size: 0x8, addend: 0x0, symName: __ZNSt3__13getB8ue170006ILm0EJRKNS_9allocatorIZN5Acorn13Compiler_Unit4initEvEUlRNS2_7ContextEE0_EEEEERNS_13tuple_elementIXT_ENS_5tupleIJDpT0_EEEE4typeERSE_, symObjAddr: 0x157D7C, symBinAddr: 0x10015906C, symSize: 0x24 }
  - { offsetInCU: 0x966DD, offset: 0x966DD, size: 0x8, addend: 0x0, symName: __ZNSt3__18__invokeB8ue170006IRZN5Acorn13Compiler_Unit4initEvEUlRNS1_7ContextEE0_JS4_EEEDTclclsr3stdE7declvalIT_EEspclsr3stdE7declvalIT0_EEEEOS7_DpOS8_, symObjAddr: 0x157E90, symBinAddr: 0x100159180, symSize: 0x2C }
  - { offsetInCU: 0x9688D, offset: 0x9688D, size: 0x8, addend: 0x0, symName: __ZNSt3__116forward_as_tupleB8ue170006IJZN5Acorn13Compiler_Unit4initEvEUlRNS1_7ContextEE1_EEENS_5tupleIJDpOT_EEES9_, symObjAddr: 0x15967C, symBinAddr: 0x10015A96C, symSize: 0x1F8 }
  - { offsetInCU: 0x968C7, offset: 0x968C7, size: 0x8, addend: 0x0, symName: __ZNSt3__116forward_as_tupleB8ue170006IJNS_9allocatorIZN5Acorn13Compiler_Unit4initEvEUlRNS2_7ContextEE1_EEEEENS_5tupleIJDpOT_EEESB_, symObjAddr: 0x159874, symBinAddr: 0x10015AB64, symSize: 0x1F8 }
  - { offsetInCU: 0x9692B, offset: 0x9692B, size: 0x8, addend: 0x0, symName: __ZNSt3__13getB8ue170006ILm0EJOZN5Acorn13Compiler_Unit4initEvEUlRNS1_7ContextEE1_EEERNS_13tuple_elementIXT_ENS_5tupleIJDpT0_EEEE4typeERSB_, symObjAddr: 0x15A758, symBinAddr: 0x10015BA48, symSize: 0x24 }
  - { offsetInCU: 0x9696D, offset: 0x9696D, size: 0x8, addend: 0x0, symName: __ZNSt3__13getB8ue170006ILm0EJONS_9allocatorIZN5Acorn13Compiler_Unit4initEvEUlRNS2_7ContextEE1_EEEEERNS_13tuple_elementIXT_ENS_5tupleIJDpT0_EEEE4typeERSD_, symObjAddr: 0x15A7DC, symBinAddr: 0x10015BACC, symSize: 0x24 }
  - { offsetInCU: 0x96E93, offset: 0x96E93, size: 0x8, addend: 0x0, symName: __ZNSt3__116forward_as_tupleB8ue170006IJRKZN5Acorn13Compiler_Unit4initEvEUlRNS1_7ContextEE1_EEENS_5tupleIJDpOT_EEESB_, symObjAddr: 0x15B470, symBinAddr: 0x10015C760, symSize: 0x1F8 }
  - { offsetInCU: 0x96EE2, offset: 0x96EE2, size: 0x8, addend: 0x0, symName: __ZNSt3__13getB8ue170006ILm0EJRKZN5Acorn13Compiler_Unit4initEvEUlRNS1_7ContextEE1_EEERNS_13tuple_elementIXT_ENS_5tupleIJDpT0_EEEE4typeERSC_, symObjAddr: 0x15C014, symBinAddr: 0x10015D304, symSize: 0x24 }
  - { offsetInCU: 0x96F24, offset: 0x96F24, size: 0x8, addend: 0x0, symName: __ZNSt3__116forward_as_tupleB8ue170006IJRKNS_9allocatorIZN5Acorn13Compiler_Unit4initEvEUlRNS2_7ContextEE1_EEEEENS_5tupleIJDpOT_EEESD_, symObjAddr: 0x15C7B4, symBinAddr: 0x10015DAA4, symSize: 0x1F8 }
  - { offsetInCU: 0x96F73, offset: 0x96F73, size: 0x8, addend: 0x0, symName: __ZNSt3__13getB8ue170006ILm0EJRKNS_9allocatorIZN5Acorn13Compiler_Unit4initEvEUlRNS2_7ContextEE1_EEEEERNS_13tuple_elementIXT_ENS_5tupleIJDpT0_EEEE4typeERSE_, symObjAddr: 0x15D348, symBinAddr: 0x10015E638, symSize: 0x24 }
  - { offsetInCU: 0x96FB6, offset: 0x96FB6, size: 0x8, addend: 0x0, symName: __ZNSt3__18__invokeB8ue170006IRZN5Acorn13Compiler_Unit4initEvEUlRNS1_7ContextEE1_JS4_EEEDTclclsr3stdE7declvalIT_EEspclsr3stdE7declvalIT0_EEEEOS7_DpOS8_, symObjAddr: 0x15D45C, symBinAddr: 0x10015E74C, symSize: 0x2C }
  - { offsetInCU: 0x97166, offset: 0x97166, size: 0x8, addend: 0x0, symName: __ZNSt3__116forward_as_tupleB8ue170006IJZN5Acorn13Compiler_Unit4initEvEUlRNS1_7ContextEE2_EEENS_5tupleIJDpOT_EEES9_, symObjAddr: 0x15EC48, symBinAddr: 0x10015FF38, symSize: 0x1F8 }
  - { offsetInCU: 0x971A0, offset: 0x971A0, size: 0x8, addend: 0x0, symName: __ZNSt3__116forward_as_tupleB8ue170006IJNS_9allocatorIZN5Acorn13Compiler_Unit4initEvEUlRNS2_7ContextEE2_EEEEENS_5tupleIJDpOT_EEESB_, symObjAddr: 0x15EE40, symBinAddr: 0x100160130, symSize: 0x1F8 }
  - { offsetInCU: 0x97204, offset: 0x97204, size: 0x8, addend: 0x0, symName: __ZNSt3__13getB8ue170006ILm0EJOZN5Acorn13Compiler_Unit4initEvEUlRNS1_7ContextEE2_EEERNS_13tuple_elementIXT_ENS_5tupleIJDpT0_EEEE4typeERSB_, symObjAddr: 0x15FD24, symBinAddr: 0x100161014, symSize: 0x24 }
  - { offsetInCU: 0x97246, offset: 0x97246, size: 0x8, addend: 0x0, symName: __ZNSt3__13getB8ue170006ILm0EJONS_9allocatorIZN5Acorn13Compiler_Unit4initEvEUlRNS2_7ContextEE2_EEEEERNS_13tuple_elementIXT_ENS_5tupleIJDpT0_EEEE4typeERSD_, symObjAddr: 0x15FDA8, symBinAddr: 0x100161098, symSize: 0x24 }
  - { offsetInCU: 0x9776C, offset: 0x9776C, size: 0x8, addend: 0x0, symName: __ZNSt3__116forward_as_tupleB8ue170006IJRKZN5Acorn13Compiler_Unit4initEvEUlRNS1_7ContextEE2_EEENS_5tupleIJDpOT_EEESB_, symObjAddr: 0x160A3C, symBinAddr: 0x100161D2C, symSize: 0x1F8 }
  - { offsetInCU: 0x977BB, offset: 0x977BB, size: 0x8, addend: 0x0, symName: __ZNSt3__13getB8ue170006ILm0EJRKZN5Acorn13Compiler_Unit4initEvEUlRNS1_7ContextEE2_EEERNS_13tuple_elementIXT_ENS_5tupleIJDpT0_EEEE4typeERSC_, symObjAddr: 0x1615E0, symBinAddr: 0x1001628D0, symSize: 0x24 }
  - { offsetInCU: 0x977FD, offset: 0x977FD, size: 0x8, addend: 0x0, symName: __ZNSt3__116forward_as_tupleB8ue170006IJRKNS_9allocatorIZN5Acorn13Compiler_Unit4initEvEUlRNS2_7ContextEE2_EEEEENS_5tupleIJDpOT_EEESD_, symObjAddr: 0x161D80, symBinAddr: 0x100163070, symSize: 0x1F8 }
  - { offsetInCU: 0x9784C, offset: 0x9784C, size: 0x8, addend: 0x0, symName: __ZNSt3__13getB8ue170006ILm0EJRKNS_9allocatorIZN5Acorn13Compiler_Unit4initEvEUlRNS2_7ContextEE2_EEEEERNS_13tuple_elementIXT_ENS_5tupleIJDpT0_EEEE4typeERSE_, symObjAddr: 0x162914, symBinAddr: 0x100163C04, symSize: 0x24 }
  - { offsetInCU: 0x9788F, offset: 0x9788F, size: 0x8, addend: 0x0, symName: __ZNSt3__18__invokeB8ue170006IRZN5Acorn13Compiler_Unit4initEvEUlRNS1_7ContextEE2_JS4_EEEDTclclsr3stdE7declvalIT_EEspclsr3stdE7declvalIT0_EEEEOS7_DpOS8_, symObjAddr: 0x162A28, symBinAddr: 0x100163D18, symSize: 0x2C }
  - { offsetInCU: 0x97A3F, offset: 0x97A3F, size: 0x8, addend: 0x0, symName: __ZNSt3__116forward_as_tupleB8ue170006IJZN5Acorn13Compiler_Unit4initEvEUlRNS1_7ContextEE3_EEENS_5tupleIJDpOT_EEES9_, symObjAddr: 0x164214, symBinAddr: 0x100165504, symSize: 0x1F8 }
  - { offsetInCU: 0x97A79, offset: 0x97A79, size: 0x8, addend: 0x0, symName: __ZNSt3__116forward_as_tupleB8ue170006IJNS_9allocatorIZN5Acorn13Compiler_Unit4initEvEUlRNS2_7ContextEE3_EEEEENS_5tupleIJDpOT_EEESB_, symObjAddr: 0x16440C, symBinAddr: 0x1001656FC, symSize: 0x1F8 }
  - { offsetInCU: 0x97ADD, offset: 0x97ADD, size: 0x8, addend: 0x0, symName: __ZNSt3__13getB8ue170006ILm0EJOZN5Acorn13Compiler_Unit4initEvEUlRNS1_7ContextEE3_EEERNS_13tuple_elementIXT_ENS_5tupleIJDpT0_EEEE4typeERSB_, symObjAddr: 0x1652F0, symBinAddr: 0x1001665E0, symSize: 0x24 }
  - { offsetInCU: 0x97B1F, offset: 0x97B1F, size: 0x8, addend: 0x0, symName: __ZNSt3__13getB8ue170006ILm0EJONS_9allocatorIZN5Acorn13Compiler_Unit4initEvEUlRNS2_7ContextEE3_EEEEERNS_13tuple_elementIXT_ENS_5tupleIJDpT0_EEEE4typeERSD_, symObjAddr: 0x165374, symBinAddr: 0x100166664, symSize: 0x24 }
  - { offsetInCU: 0x98045, offset: 0x98045, size: 0x8, addend: 0x0, symName: __ZNSt3__116forward_as_tupleB8ue170006IJRKZN5Acorn13Compiler_Unit4initEvEUlRNS1_7ContextEE3_EEENS_5tupleIJDpOT_EEESB_, symObjAddr: 0x166008, symBinAddr: 0x1001672F8, symSize: 0x1F8 }
  - { offsetInCU: 0x98094, offset: 0x98094, size: 0x8, addend: 0x0, symName: __ZNSt3__13getB8ue170006ILm0EJRKZN5Acorn13Compiler_Unit4initEvEUlRNS1_7ContextEE3_EEERNS_13tuple_elementIXT_ENS_5tupleIJDpT0_EEEE4typeERSC_, symObjAddr: 0x166BAC, symBinAddr: 0x100167E9C, symSize: 0x24 }
  - { offsetInCU: 0x980D6, offset: 0x980D6, size: 0x8, addend: 0x0, symName: __ZNSt3__116forward_as_tupleB8ue170006IJRKNS_9allocatorIZN5Acorn13Compiler_Unit4initEvEUlRNS2_7ContextEE3_EEEEENS_5tupleIJDpOT_EEESD_, symObjAddr: 0x16734C, symBinAddr: 0x10016863C, symSize: 0x1F8 }
  - { offsetInCU: 0x98125, offset: 0x98125, size: 0x8, addend: 0x0, symName: __ZNSt3__13getB8ue170006ILm0EJRKNS_9allocatorIZN5Acorn13Compiler_Unit4initEvEUlRNS2_7ContextEE3_EEEEERNS_13tuple_elementIXT_ENS_5tupleIJDpT0_EEEE4typeERSE_, symObjAddr: 0x167EE0, symBinAddr: 0x1001691D0, symSize: 0x24 }
  - { offsetInCU: 0x98168, offset: 0x98168, size: 0x8, addend: 0x0, symName: __ZNSt3__18__invokeB8ue170006IRZN5Acorn13Compiler_Unit4initEvEUlRNS1_7ContextEE3_JS4_EEEDTclclsr3stdE7declvalIT_EEspclsr3stdE7declvalIT0_EEEEOS7_DpOS8_, symObjAddr: 0x167FF4, symBinAddr: 0x1001692E4, symSize: 0x2C }
  - { offsetInCU: 0x98318, offset: 0x98318, size: 0x8, addend: 0x0, symName: __ZNSt3__116forward_as_tupleB8ue170006IJZN5Acorn13Compiler_Unit4initEvEUlRNS1_7ContextEE4_EEENS_5tupleIJDpOT_EEES9_, symObjAddr: 0x16A120, symBinAddr: 0x10016B410, symSize: 0x1F8 }
  - { offsetInCU: 0x98352, offset: 0x98352, size: 0x8, addend: 0x0, symName: __ZNSt3__116forward_as_tupleB8ue170006IJNS_9allocatorIZN5Acorn13Compiler_Unit4initEvEUlRNS2_7ContextEE4_EEEEENS_5tupleIJDpOT_EEESB_, symObjAddr: 0x16A318, symBinAddr: 0x10016B608, symSize: 0x1F8 }
  - { offsetInCU: 0x983B6, offset: 0x983B6, size: 0x8, addend: 0x0, symName: __ZNSt3__13getB8ue170006ILm0EJOZN5Acorn13Compiler_Unit4initEvEUlRNS1_7ContextEE4_EEERNS_13tuple_elementIXT_ENS_5tupleIJDpT0_EEEE4typeERSB_, symObjAddr: 0x16B1FC, symBinAddr: 0x10016C4EC, symSize: 0x24 }
  - { offsetInCU: 0x983F8, offset: 0x983F8, size: 0x8, addend: 0x0, symName: __ZNSt3__13getB8ue170006ILm0EJONS_9allocatorIZN5Acorn13Compiler_Unit4initEvEUlRNS2_7ContextEE4_EEEEERNS_13tuple_elementIXT_ENS_5tupleIJDpT0_EEEE4typeERSD_, symObjAddr: 0x16B280, symBinAddr: 0x10016C570, symSize: 0x24 }
  - { offsetInCU: 0x9891E, offset: 0x9891E, size: 0x8, addend: 0x0, symName: __ZNSt3__116forward_as_tupleB8ue170006IJRKZN5Acorn13Compiler_Unit4initEvEUlRNS1_7ContextEE4_EEENS_5tupleIJDpOT_EEESB_, symObjAddr: 0x16BF14, symBinAddr: 0x10016D204, symSize: 0x1F8 }
  - { offsetInCU: 0x9896D, offset: 0x9896D, size: 0x8, addend: 0x0, symName: __ZNSt3__13getB8ue170006ILm0EJRKZN5Acorn13Compiler_Unit4initEvEUlRNS1_7ContextEE4_EEERNS_13tuple_elementIXT_ENS_5tupleIJDpT0_EEEE4typeERSC_, symObjAddr: 0x16CAB8, symBinAddr: 0x10016DDA8, symSize: 0x24 }
  - { offsetInCU: 0x989AF, offset: 0x989AF, size: 0x8, addend: 0x0, symName: __ZNSt3__116forward_as_tupleB8ue170006IJRKNS_9allocatorIZN5Acorn13Compiler_Unit4initEvEUlRNS2_7ContextEE4_EEEEENS_5tupleIJDpOT_EEESD_, symObjAddr: 0x16D258, symBinAddr: 0x10016E548, symSize: 0x1F8 }
  - { offsetInCU: 0x989FE, offset: 0x989FE, size: 0x8, addend: 0x0, symName: __ZNSt3__13getB8ue170006ILm0EJRKNS_9allocatorIZN5Acorn13Compiler_Unit4initEvEUlRNS2_7ContextEE4_EEEEERNS_13tuple_elementIXT_ENS_5tupleIJDpT0_EEEE4typeERSE_, symObjAddr: 0x16DDEC, symBinAddr: 0x10016F0DC, symSize: 0x24 }
  - { offsetInCU: 0x98A41, offset: 0x98A41, size: 0x8, addend: 0x0, symName: __ZNSt3__18__invokeB8ue170006IRZN5Acorn13Compiler_Unit4initEvEUlRNS1_7ContextEE4_JS4_EEEDTclclsr3stdE7declvalIT_EEspclsr3stdE7declvalIT0_EEEEOS7_DpOS8_, symObjAddr: 0x16DF00, symBinAddr: 0x10016F1F0, symSize: 0x2C }
  - { offsetInCU: 0x98BF1, offset: 0x98BF1, size: 0x8, addend: 0x0, symName: __ZNSt3__116forward_as_tupleB8ue170006IJZN5Acorn13Compiler_Unit4initEvEUlRNS1_7ContextEE5_EEENS_5tupleIJDpOT_EEES9_, symObjAddr: 0x16FD9C, symBinAddr: 0x10017108C, symSize: 0x1F8 }
  - { offsetInCU: 0x98C2B, offset: 0x98C2B, size: 0x8, addend: 0x0, symName: __ZNSt3__116forward_as_tupleB8ue170006IJNS_9allocatorIZN5Acorn13Compiler_Unit4initEvEUlRNS2_7ContextEE5_EEEEENS_5tupleIJDpOT_EEESB_, symObjAddr: 0x16FF94, symBinAddr: 0x100171284, symSize: 0x1F8 }
  - { offsetInCU: 0x98C8F, offset: 0x98C8F, size: 0x8, addend: 0x0, symName: __ZNSt3__13getB8ue170006ILm0EJOZN5Acorn13Compiler_Unit4initEvEUlRNS1_7ContextEE5_EEERNS_13tuple_elementIXT_ENS_5tupleIJDpT0_EEEE4typeERSB_, symObjAddr: 0x170E78, symBinAddr: 0x100172168, symSize: 0x24 }
  - { offsetInCU: 0x98CD1, offset: 0x98CD1, size: 0x8, addend: 0x0, symName: __ZNSt3__13getB8ue170006ILm0EJONS_9allocatorIZN5Acorn13Compiler_Unit4initEvEUlRNS2_7ContextEE5_EEEEERNS_13tuple_elementIXT_ENS_5tupleIJDpT0_EEEE4typeERSD_, symObjAddr: 0x170EFC, symBinAddr: 0x1001721EC, symSize: 0x24 }
  - { offsetInCU: 0x991F7, offset: 0x991F7, size: 0x8, addend: 0x0, symName: __ZNSt3__116forward_as_tupleB8ue170006IJRKZN5Acorn13Compiler_Unit4initEvEUlRNS1_7ContextEE5_EEENS_5tupleIJDpOT_EEESB_, symObjAddr: 0x171B90, symBinAddr: 0x100172E80, symSize: 0x1F8 }
  - { offsetInCU: 0x99246, offset: 0x99246, size: 0x8, addend: 0x0, symName: __ZNSt3__13getB8ue170006ILm0EJRKZN5Acorn13Compiler_Unit4initEvEUlRNS1_7ContextEE5_EEERNS_13tuple_elementIXT_ENS_5tupleIJDpT0_EEEE4typeERSC_, symObjAddr: 0x172734, symBinAddr: 0x100173A24, symSize: 0x24 }
  - { offsetInCU: 0x99288, offset: 0x99288, size: 0x8, addend: 0x0, symName: __ZNSt3__116forward_as_tupleB8ue170006IJRKNS_9allocatorIZN5Acorn13Compiler_Unit4initEvEUlRNS2_7ContextEE5_EEEEENS_5tupleIJDpOT_EEESD_, symObjAddr: 0x172ED4, symBinAddr: 0x1001741C4, symSize: 0x1F8 }
  - { offsetInCU: 0x992D7, offset: 0x992D7, size: 0x8, addend: 0x0, symName: __ZNSt3__13getB8ue170006ILm0EJRKNS_9allocatorIZN5Acorn13Compiler_Unit4initEvEUlRNS2_7ContextEE5_EEEEERNS_13tuple_elementIXT_ENS_5tupleIJDpT0_EEEE4typeERSE_, symObjAddr: 0x173A68, symBinAddr: 0x100174D58, symSize: 0x24 }
  - { offsetInCU: 0x9931A, offset: 0x9931A, size: 0x8, addend: 0x0, symName: __ZNSt3__18__invokeB8ue170006IRZN5Acorn13Compiler_Unit4initEvEUlRNS1_7ContextEE5_JS4_EEEDTclclsr3stdE7declvalIT_EEspclsr3stdE7declvalIT0_EEEEOS7_DpOS8_, symObjAddr: 0x173B7C, symBinAddr: 0x100174E6C, symSize: 0x2C }
  - { offsetInCU: 0x994CA, offset: 0x994CA, size: 0x8, addend: 0x0, symName: __ZNSt3__116forward_as_tupleB8ue170006IJZN5Acorn13Compiler_Unit4initEvEUlRNS1_7ContextEE6_EEENS_5tupleIJDpOT_EEES9_, symObjAddr: 0x176318, symBinAddr: 0x100177608, symSize: 0x1F8 }
  - { offsetInCU: 0x99504, offset: 0x99504, size: 0x8, addend: 0x0, symName: __ZNSt3__116forward_as_tupleB8ue170006IJNS_9allocatorIZN5Acorn13Compiler_Unit4initEvEUlRNS2_7ContextEE6_EEEEENS_5tupleIJDpOT_EEESB_, symObjAddr: 0x176510, symBinAddr: 0x100177800, symSize: 0x1F8 }
  - { offsetInCU: 0x99568, offset: 0x99568, size: 0x8, addend: 0x0, symName: __ZNSt3__13getB8ue170006ILm0EJOZN5Acorn13Compiler_Unit4initEvEUlRNS1_7ContextEE6_EEERNS_13tuple_elementIXT_ENS_5tupleIJDpT0_EEEE4typeERSB_, symObjAddr: 0x1773F4, symBinAddr: 0x1001786E4, symSize: 0x24 }
  - { offsetInCU: 0x995AA, offset: 0x995AA, size: 0x8, addend: 0x0, symName: __ZNSt3__13getB8ue170006ILm0EJONS_9allocatorIZN5Acorn13Compiler_Unit4initEvEUlRNS2_7ContextEE6_EEEEERNS_13tuple_elementIXT_ENS_5tupleIJDpT0_EEEE4typeERSD_, symObjAddr: 0x177478, symBinAddr: 0x100178768, symSize: 0x24 }
  - { offsetInCU: 0x99AD0, offset: 0x99AD0, size: 0x8, addend: 0x0, symName: __ZNSt3__116forward_as_tupleB8ue170006IJRKZN5Acorn13Compiler_Unit4initEvEUlRNS1_7ContextEE6_EEENS_5tupleIJDpOT_EEESB_, symObjAddr: 0x17810C, symBinAddr: 0x1001793FC, symSize: 0x1F8 }
  - { offsetInCU: 0x99B1F, offset: 0x99B1F, size: 0x8, addend: 0x0, symName: __ZNSt3__13getB8ue170006ILm0EJRKZN5Acorn13Compiler_Unit4initEvEUlRNS1_7ContextEE6_EEERNS_13tuple_elementIXT_ENS_5tupleIJDpT0_EEEE4typeERSC_, symObjAddr: 0x178CB0, symBinAddr: 0x100179FA0, symSize: 0x24 }
  - { offsetInCU: 0x99B61, offset: 0x99B61, size: 0x8, addend: 0x0, symName: __ZNSt3__116forward_as_tupleB8ue170006IJRKNS_9allocatorIZN5Acorn13Compiler_Unit4initEvEUlRNS2_7ContextEE6_EEEEENS_5tupleIJDpOT_EEESD_, symObjAddr: 0x179450, symBinAddr: 0x10017A740, symSize: 0x1F8 }
  - { offsetInCU: 0x99BB0, offset: 0x99BB0, size: 0x8, addend: 0x0, symName: __ZNSt3__13getB8ue170006ILm0EJRKNS_9allocatorIZN5Acorn13Compiler_Unit4initEvEUlRNS2_7ContextEE6_EEEEERNS_13tuple_elementIXT_ENS_5tupleIJDpT0_EEEE4typeERSE_, symObjAddr: 0x179FE4, symBinAddr: 0x10017B2D4, symSize: 0x24 }
  - { offsetInCU: 0x99BF3, offset: 0x99BF3, size: 0x8, addend: 0x0, symName: __ZNSt3__18__invokeB8ue170006IRZN5Acorn13Compiler_Unit4initEvEUlRNS1_7ContextEE6_JS4_EEEDTclclsr3stdE7declvalIT_EEspclsr3stdE7declvalIT0_EEEEOS7_DpOS8_, symObjAddr: 0x17A0F8, symBinAddr: 0x10017B3E8, symSize: 0x2C }
  - { offsetInCU: 0x99DA3, offset: 0x99DA3, size: 0x8, addend: 0x0, symName: __ZNSt3__116forward_as_tupleB8ue170006IJZN5Acorn10Acorn_Dirt4initEvEUlRNS1_7ContextEE_EEENS_5tupleIJDpOT_EEES9_, symObjAddr: 0x184108, symBinAddr: 0x1001853F8, symSize: 0x1F8 }
  - { offsetInCU: 0x99DDD, offset: 0x99DDD, size: 0x8, addend: 0x0, symName: __ZNSt3__116forward_as_tupleB8ue170006IJNS_9allocatorIZN5Acorn10Acorn_Dirt4initEvEUlRNS2_7ContextEE_EEEEENS_5tupleIJDpOT_EEESB_, symObjAddr: 0x184300, symBinAddr: 0x1001855F0, symSize: 0x1F8 }
  - { offsetInCU: 0x99E41, offset: 0x99E41, size: 0x8, addend: 0x0, symName: __ZNSt3__13getB8ue170006ILm0EJOZN5Acorn10Acorn_Dirt4initEvEUlRNS1_7ContextEE_EEERNS_13tuple_elementIXT_ENS_5tupleIJDpT0_EEEE4typeERSB_, symObjAddr: 0x1851E4, symBinAddr: 0x1001864D4, symSize: 0x24 }
  - { offsetInCU: 0x99E83, offset: 0x99E83, size: 0x8, addend: 0x0, symName: __ZNSt3__13getB8ue170006ILm0EJONS_9allocatorIZN5Acorn10Acorn_Dirt4initEvEUlRNS2_7ContextEE_EEEEERNS_13tuple_elementIXT_ENS_5tupleIJDpT0_EEEE4typeERSD_, symObjAddr: 0x185268, symBinAddr: 0x100186558, symSize: 0x24 }
  - { offsetInCU: 0x9A3A9, offset: 0x9A3A9, size: 0x8, addend: 0x0, symName: __ZNSt3__116forward_as_tupleB8ue170006IJRKZN5Acorn10Acorn_Dirt4initEvEUlRNS1_7ContextEE_EEENS_5tupleIJDpOT_EEESB_, symObjAddr: 0x185EFC, symBinAddr: 0x1001871EC, symSize: 0x1F8 }
  - { offsetInCU: 0x9A3F8, offset: 0x9A3F8, size: 0x8, addend: 0x0, symName: __ZNSt3__13getB8ue170006ILm0EJRKZN5Acorn10Acorn_Dirt4initEvEUlRNS1_7ContextEE_EEERNS_13tuple_elementIXT_ENS_5tupleIJDpT0_EEEE4typeERSC_, symObjAddr: 0x186AA0, symBinAddr: 0x100187D90, symSize: 0x24 }
  - { offsetInCU: 0x9A43A, offset: 0x9A43A, size: 0x8, addend: 0x0, symName: __ZNSt3__116forward_as_tupleB8ue170006IJRKNS_9allocatorIZN5Acorn10Acorn_Dirt4initEvEUlRNS2_7ContextEE_EEEEENS_5tupleIJDpOT_EEESD_, symObjAddr: 0x187240, symBinAddr: 0x100188530, symSize: 0x1F8 }
  - { offsetInCU: 0x9A489, offset: 0x9A489, size: 0x8, addend: 0x0, symName: __ZNSt3__13getB8ue170006ILm0EJRKNS_9allocatorIZN5Acorn10Acorn_Dirt4initEvEUlRNS2_7ContextEE_EEEEERNS_13tuple_elementIXT_ENS_5tupleIJDpT0_EEEE4typeERSE_, symObjAddr: 0x187DD4, symBinAddr: 0x1001890C4, symSize: 0x24 }
  - { offsetInCU: 0x9A4CC, offset: 0x9A4CC, size: 0x8, addend: 0x0, symName: __ZNSt3__18__invokeB8ue170006IRZN5Acorn10Acorn_Dirt4initEvEUlRNS1_7ContextEE_JS4_EEEDTclclsr3stdE7declvalIT_EEspclsr3stdE7declvalIT0_EEEEOS7_DpOS8_, symObjAddr: 0x187EE8, symBinAddr: 0x1001891D8, symSize: 0x2C }
  - { offsetInCU: 0x9A67C, offset: 0x9A67C, size: 0x8, addend: 0x0, symName: __ZNSt3__116forward_as_tupleB8ue170006IJZN5Acorn10Acorn_Dirt4initEvEUlRNS1_7ContextEE0_EEENS_5tupleIJDpOT_EEES9_, symObjAddr: 0x189B90, symBinAddr: 0x10018AE80, symSize: 0x1F8 }
  - { offsetInCU: 0x9A6B6, offset: 0x9A6B6, size: 0x8, addend: 0x0, symName: __ZNSt3__116forward_as_tupleB8ue170006IJNS_9allocatorIZN5Acorn10Acorn_Dirt4initEvEUlRNS2_7ContextEE0_EEEEENS_5tupleIJDpOT_EEESB_, symObjAddr: 0x189D88, symBinAddr: 0x10018B078, symSize: 0x1F8 }
  - { offsetInCU: 0x9A71A, offset: 0x9A71A, size: 0x8, addend: 0x0, symName: __ZNSt3__13getB8ue170006ILm0EJOZN5Acorn10Acorn_Dirt4initEvEUlRNS1_7ContextEE0_EEERNS_13tuple_elementIXT_ENS_5tupleIJDpT0_EEEE4typeERSB_, symObjAddr: 0x18AC6C, symBinAddr: 0x10018BF5C, symSize: 0x24 }
  - { offsetInCU: 0x9A75C, offset: 0x9A75C, size: 0x8, addend: 0x0, symName: __ZNSt3__13getB8ue170006ILm0EJONS_9allocatorIZN5Acorn10Acorn_Dirt4initEvEUlRNS2_7ContextEE0_EEEEERNS_13tuple_elementIXT_ENS_5tupleIJDpT0_EEEE4typeERSD_, symObjAddr: 0x18ACF0, symBinAddr: 0x10018BFE0, symSize: 0x24 }
  - { offsetInCU: 0x9AC82, offset: 0x9AC82, size: 0x8, addend: 0x0, symName: __ZNSt3__116forward_as_tupleB8ue170006IJRKZN5Acorn10Acorn_Dirt4initEvEUlRNS1_7ContextEE0_EEENS_5tupleIJDpOT_EEESB_, symObjAddr: 0x18B984, symBinAddr: 0x10018CC74, symSize: 0x1F8 }
  - { offsetInCU: 0x9ACD1, offset: 0x9ACD1, size: 0x8, addend: 0x0, symName: __ZNSt3__13getB8ue170006ILm0EJRKZN5Acorn10Acorn_Dirt4initEvEUlRNS1_7ContextEE0_EEERNS_13tuple_elementIXT_ENS_5tupleIJDpT0_EEEE4typeERSC_, symObjAddr: 0x18C528, symBinAddr: 0x10018D818, symSize: 0x24 }
  - { offsetInCU: 0x9AD13, offset: 0x9AD13, size: 0x8, addend: 0x0, symName: __ZNSt3__116forward_as_tupleB8ue170006IJRKNS_9allocatorIZN5Acorn10Acorn_Dirt4initEvEUlRNS2_7ContextEE0_EEEEENS_5tupleIJDpOT_EEESD_, symObjAddr: 0x18CCC8, symBinAddr: 0x10018DFB8, symSize: 0x1F8 }
  - { offsetInCU: 0x9AD62, offset: 0x9AD62, size: 0x8, addend: 0x0, symName: __ZNSt3__13getB8ue170006ILm0EJRKNS_9allocatorIZN5Acorn10Acorn_Dirt4initEvEUlRNS2_7ContextEE0_EEEEERNS_13tuple_elementIXT_ENS_5tupleIJDpT0_EEEE4typeERSE_, symObjAddr: 0x18D85C, symBinAddr: 0x10018EB4C, symSize: 0x24 }
  - { offsetInCU: 0x9ADA5, offset: 0x9ADA5, size: 0x8, addend: 0x0, symName: __ZNSt3__18__invokeB8ue170006IRZN5Acorn10Acorn_Dirt4initEvEUlRNS1_7ContextEE0_JS4_EEEDTclclsr3stdE7declvalIT_EEspclsr3stdE7declvalIT0_EEEEOS7_DpOS8_, symObjAddr: 0x18D970, symBinAddr: 0x10018EC60, symSize: 0x2C }
  - { offsetInCU: 0x9AF55, offset: 0x9AF55, size: 0x8, addend: 0x0, symName: __ZNSt3__116forward_as_tupleB8ue170006IJZN5Acorn10Acorn_Dirt4initEvEUlRNS1_7ContextEE1_EEENS_5tupleIJDpOT_EEES9_, symObjAddr: 0x18FF84, symBinAddr: 0x100191274, symSize: 0x1F8 }
  - { offsetInCU: 0x9AF8F, offset: 0x9AF8F, size: 0x8, addend: 0x0, symName: __ZNSt3__116forward_as_tupleB8ue170006IJNS_9allocatorIZN5Acorn10Acorn_Dirt4initEvEUlRNS2_7ContextEE1_EEEEENS_5tupleIJDpOT_EEESB_, symObjAddr: 0x19017C, symBinAddr: 0x10019146C, symSize: 0x1F8 }
  - { offsetInCU: 0x9AFF3, offset: 0x9AFF3, size: 0x8, addend: 0x0, symName: __ZNSt3__13getB8ue170006ILm0EJOZN5Acorn10Acorn_Dirt4initEvEUlRNS1_7ContextEE1_EEERNS_13tuple_elementIXT_ENS_5tupleIJDpT0_EEEE4typeERSB_, symObjAddr: 0x191060, symBinAddr: 0x100192350, symSize: 0x24 }
  - { offsetInCU: 0x9B035, offset: 0x9B035, size: 0x8, addend: 0x0, symName: __ZNSt3__13getB8ue170006ILm0EJONS_9allocatorIZN5Acorn10Acorn_Dirt4initEvEUlRNS2_7ContextEE1_EEEEERNS_13tuple_elementIXT_ENS_5tupleIJDpT0_EEEE4typeERSD_, symObjAddr: 0x1910E4, symBinAddr: 0x1001923D4, symSize: 0x24 }
  - { offsetInCU: 0x9B55B, offset: 0x9B55B, size: 0x8, addend: 0x0, symName: __ZNSt3__116forward_as_tupleB8ue170006IJRKZN5Acorn10Acorn_Dirt4initEvEUlRNS1_7ContextEE1_EEENS_5tupleIJDpOT_EEESB_, symObjAddr: 0x191D78, symBinAddr: 0x100193068, symSize: 0x1F8 }
  - { offsetInCU: 0x9B5AA, offset: 0x9B5AA, size: 0x8, addend: 0x0, symName: __ZNSt3__13getB8ue170006ILm0EJRKZN5Acorn10Acorn_Dirt4initEvEUlRNS1_7ContextEE1_EEERNS_13tuple_elementIXT_ENS_5tupleIJDpT0_EEEE4typeERSC_, symObjAddr: 0x19291C, symBinAddr: 0x100193C0C, symSize: 0x24 }
  - { offsetInCU: 0x9B5EC, offset: 0x9B5EC, size: 0x8, addend: 0x0, symName: __ZNSt3__116forward_as_tupleB8ue170006IJRKNS_9allocatorIZN5Acorn10Acorn_Dirt4initEvEUlRNS2_7ContextEE1_EEEEENS_5tupleIJDpOT_EEESD_, symObjAddr: 0x1930BC, symBinAddr: 0x1001943AC, symSize: 0x1F8 }
  - { offsetInCU: 0x9B63B, offset: 0x9B63B, size: 0x8, addend: 0x0, symName: __ZNSt3__13getB8ue170006ILm0EJRKNS_9allocatorIZN5Acorn10Acorn_Dirt4initEvEUlRNS2_7ContextEE1_EEEEERNS_13tuple_elementIXT_ENS_5tupleIJDpT0_EEEE4typeERSE_, symObjAddr: 0x193C50, symBinAddr: 0x100194F40, symSize: 0x24 }
  - { offsetInCU: 0x9B67E, offset: 0x9B67E, size: 0x8, addend: 0x0, symName: __ZNSt3__18__invokeB8ue170006IRZN5Acorn10Acorn_Dirt4initEvEUlRNS1_7ContextEE1_JS4_EEEDTclclsr3stdE7declvalIT_EEspclsr3stdE7declvalIT0_EEEEOS7_DpOS8_, symObjAddr: 0x193D64, symBinAddr: 0x100195054, symSize: 0x2C }
  - { offsetInCU: 0x9B82E, offset: 0x9B82E, size: 0x8, addend: 0x0, symName: __ZNSt3__116forward_as_tupleB8ue170006IJZN5Acorn10Acorn_Dirt4initEvEUlRNS1_7ContextEE2_EEENS_5tupleIJDpOT_EEES9_, symObjAddr: 0x1954BC, symBinAddr: 0x1001967AC, symSize: 0x1F8 }
  - { offsetInCU: 0x9B868, offset: 0x9B868, size: 0x8, addend: 0x0, symName: __ZNSt3__116forward_as_tupleB8ue170006IJNS_9allocatorIZN5Acorn10Acorn_Dirt4initEvEUlRNS2_7ContextEE2_EEEEENS_5tupleIJDpOT_EEESB_, symObjAddr: 0x1956B4, symBinAddr: 0x1001969A4, symSize: 0x1F8 }
  - { offsetInCU: 0x9B8CC, offset: 0x9B8CC, size: 0x8, addend: 0x0, symName: __ZNSt3__13getB8ue170006ILm0EJOZN5Acorn10Acorn_Dirt4initEvEUlRNS1_7ContextEE2_EEERNS_13tuple_elementIXT_ENS_5tupleIJDpT0_EEEE4typeERSB_, symObjAddr: 0x196598, symBinAddr: 0x100197888, symSize: 0x24 }
  - { offsetInCU: 0x9B90E, offset: 0x9B90E, size: 0x8, addend: 0x0, symName: __ZNSt3__13getB8ue170006ILm0EJONS_9allocatorIZN5Acorn10Acorn_Dirt4initEvEUlRNS2_7ContextEE2_EEEEERNS_13tuple_elementIXT_ENS_5tupleIJDpT0_EEEE4typeERSD_, symObjAddr: 0x19661C, symBinAddr: 0x10019790C, symSize: 0x24 }
  - { offsetInCU: 0x9BE34, offset: 0x9BE34, size: 0x8, addend: 0x0, symName: __ZNSt3__116forward_as_tupleB8ue170006IJRKZN5Acorn10Acorn_Dirt4initEvEUlRNS1_7ContextEE2_EEENS_5tupleIJDpOT_EEESB_, symObjAddr: 0x1972B0, symBinAddr: 0x1001985A0, symSize: 0x1F8 }
  - { offsetInCU: 0x9BE83, offset: 0x9BE83, size: 0x8, addend: 0x0, symName: __ZNSt3__13getB8ue170006ILm0EJRKZN5Acorn10Acorn_Dirt4initEvEUlRNS1_7ContextEE2_EEERNS_13tuple_elementIXT_ENS_5tupleIJDpT0_EEEE4typeERSC_, symObjAddr: 0x197E54, symBinAddr: 0x100199144, symSize: 0x24 }
  - { offsetInCU: 0x9BEC5, offset: 0x9BEC5, size: 0x8, addend: 0x0, symName: __ZNSt3__116forward_as_tupleB8ue170006IJRKNS_9allocatorIZN5Acorn10Acorn_Dirt4initEvEUlRNS2_7ContextEE2_EEEEENS_5tupleIJDpOT_EEESD_, symObjAddr: 0x1985F4, symBinAddr: 0x1001998E4, symSize: 0x1F8 }
  - { offsetInCU: 0x9BF14, offset: 0x9BF14, size: 0x8, addend: 0x0, symName: __ZNSt3__13getB8ue170006ILm0EJRKNS_9allocatorIZN5Acorn10Acorn_Dirt4initEvEUlRNS2_7ContextEE2_EEEEERNS_13tuple_elementIXT_ENS_5tupleIJDpT0_EEEE4typeERSE_, symObjAddr: 0x199188, symBinAddr: 0x10019A478, symSize: 0x24 }
  - { offsetInCU: 0x9BF57, offset: 0x9BF57, size: 0x8, addend: 0x0, symName: __ZNSt3__18__invokeB8ue170006IRZN5Acorn10Acorn_Dirt4initEvEUlRNS1_7ContextEE2_JS4_EEEDTclclsr3stdE7declvalIT_EEspclsr3stdE7declvalIT0_EEEEOS7_DpOS8_, symObjAddr: 0x19929C, symBinAddr: 0x10019A58C, symSize: 0x2C }
  - { offsetInCU: 0x9C107, offset: 0x9C107, size: 0x8, addend: 0x0, symName: __ZNSt3__116forward_as_tupleB8ue170006IJZN5Acorn10Acorn_Dirt4initEvEUlRNS1_7ContextEE3_EEENS_5tupleIJDpOT_EEES9_, symObjAddr: 0x19AC08, symBinAddr: 0x10019BEF8, symSize: 0x1F8 }
  - { offsetInCU: 0x9C141, offset: 0x9C141, size: 0x8, addend: 0x0, symName: __ZNSt3__116forward_as_tupleB8ue170006IJNS_9allocatorIZN5Acorn10Acorn_Dirt4initEvEUlRNS2_7ContextEE3_EEEEENS_5tupleIJDpOT_EEESB_, symObjAddr: 0x19AE00, symBinAddr: 0x10019C0F0, symSize: 0x1F8 }
  - { offsetInCU: 0x9C1A5, offset: 0x9C1A5, size: 0x8, addend: 0x0, symName: __ZNSt3__13getB8ue170006ILm0EJOZN5Acorn10Acorn_Dirt4initEvEUlRNS1_7ContextEE3_EEERNS_13tuple_elementIXT_ENS_5tupleIJDpT0_EEEE4typeERSB_, symObjAddr: 0x19BCE4, symBinAddr: 0x10019CFD4, symSize: 0x24 }
  - { offsetInCU: 0x9C1E7, offset: 0x9C1E7, size: 0x8, addend: 0x0, symName: __ZNSt3__13getB8ue170006ILm0EJONS_9allocatorIZN5Acorn10Acorn_Dirt4initEvEUlRNS2_7ContextEE3_EEEEERNS_13tuple_elementIXT_ENS_5tupleIJDpT0_EEEE4typeERSD_, symObjAddr: 0x19BD68, symBinAddr: 0x10019D058, symSize: 0x24 }
  - { offsetInCU: 0x9C70D, offset: 0x9C70D, size: 0x8, addend: 0x0, symName: __ZNSt3__116forward_as_tupleB8ue170006IJRKZN5Acorn10Acorn_Dirt4initEvEUlRNS1_7ContextEE3_EEENS_5tupleIJDpOT_EEESB_, symObjAddr: 0x19C9FC, symBinAddr: 0x10019DCEC, symSize: 0x1F8 }
  - { offsetInCU: 0x9C75C, offset: 0x9C75C, size: 0x8, addend: 0x0, symName: __ZNSt3__13getB8ue170006ILm0EJRKZN5Acorn10Acorn_Dirt4initEvEUlRNS1_7ContextEE3_EEERNS_13tuple_elementIXT_ENS_5tupleIJDpT0_EEEE4typeERSC_, symObjAddr: 0x19D5A0, symBinAddr: 0x10019E890, symSize: 0x24 }
  - { offsetInCU: 0x9C79E, offset: 0x9C79E, size: 0x8, addend: 0x0, symName: __ZNSt3__116forward_as_tupleB8ue170006IJRKNS_9allocatorIZN5Acorn10Acorn_Dirt4initEvEUlRNS2_7ContextEE3_EEEEENS_5tupleIJDpOT_EEESD_, symObjAddr: 0x19DD40, symBinAddr: 0x10019F030, symSize: 0x1F8 }
  - { offsetInCU: 0x9C7ED, offset: 0x9C7ED, size: 0x8, addend: 0x0, symName: __ZNSt3__13getB8ue170006ILm0EJRKNS_9allocatorIZN5Acorn10Acorn_Dirt4initEvEUlRNS2_7ContextEE3_EEEEERNS_13tuple_elementIXT_ENS_5tupleIJDpT0_EEEE4typeERSE_, symObjAddr: 0x19E8D4, symBinAddr: 0x10019FBC4, symSize: 0x24 }
  - { offsetInCU: 0x9C830, offset: 0x9C830, size: 0x8, addend: 0x0, symName: __ZNSt3__18__invokeB8ue170006IRZN5Acorn10Acorn_Dirt4initEvEUlRNS1_7ContextEE3_JS4_EEEDTclclsr3stdE7declvalIT_EEspclsr3stdE7declvalIT0_EEEEOS7_DpOS8_, symObjAddr: 0x19E9E8, symBinAddr: 0x10019FCD8, symSize: 0x2C }
  - { offsetInCU: 0x9C9E0, offset: 0x9C9E0, size: 0x8, addend: 0x0, symName: __ZNSt3__116forward_as_tupleB8ue170006IJZN5Acorn10Acorn_Dirt4initEvEUlRNS1_7ContextEE4_EEENS_5tupleIJDpOT_EEES9_, symObjAddr: 0x1A192C, symBinAddr: 0x1001A2C1C, symSize: 0x1F8 }
  - { offsetInCU: 0x9CA1A, offset: 0x9CA1A, size: 0x8, addend: 0x0, symName: __ZNSt3__116forward_as_tupleB8ue170006IJNS_9allocatorIZN5Acorn10Acorn_Dirt4initEvEUlRNS2_7ContextEE4_EEEEENS_5tupleIJDpOT_EEESB_, symObjAddr: 0x1A1B24, symBinAddr: 0x1001A2E14, symSize: 0x1F8 }
  - { offsetInCU: 0x9CA7E, offset: 0x9CA7E, size: 0x8, addend: 0x0, symName: __ZNSt3__13getB8ue170006ILm0EJOZN5Acorn10Acorn_Dirt4initEvEUlRNS1_7ContextEE4_EEERNS_13tuple_elementIXT_ENS_5tupleIJDpT0_EEEE4typeERSB_, symObjAddr: 0x1A2A08, symBinAddr: 0x1001A3CF8, symSize: 0x24 }
  - { offsetInCU: 0x9CAC0, offset: 0x9CAC0, size: 0x8, addend: 0x0, symName: __ZNSt3__13getB8ue170006ILm0EJONS_9allocatorIZN5Acorn10Acorn_Dirt4initEvEUlRNS2_7ContextEE4_EEEEERNS_13tuple_elementIXT_ENS_5tupleIJDpT0_EEEE4typeERSD_, symObjAddr: 0x1A2A8C, symBinAddr: 0x1001A3D7C, symSize: 0x24 }
  - { offsetInCU: 0x9CFE6, offset: 0x9CFE6, size: 0x8, addend: 0x0, symName: __ZNSt3__116forward_as_tupleB8ue170006IJRKZN5Acorn10Acorn_Dirt4initEvEUlRNS1_7ContextEE4_EEENS_5tupleIJDpOT_EEESB_, symObjAddr: 0x1A3720, symBinAddr: 0x1001A4A10, symSize: 0x1F8 }
  - { offsetInCU: 0x9D035, offset: 0x9D035, size: 0x8, addend: 0x0, symName: __ZNSt3__13getB8ue170006ILm0EJRKZN5Acorn10Acorn_Dirt4initEvEUlRNS1_7ContextEE4_EEERNS_13tuple_elementIXT_ENS_5tupleIJDpT0_EEEE4typeERSC_, symObjAddr: 0x1A42C4, symBinAddr: 0x1001A55B4, symSize: 0x24 }
  - { offsetInCU: 0x9D077, offset: 0x9D077, size: 0x8, addend: 0x0, symName: __ZNSt3__116forward_as_tupleB8ue170006IJRKNS_9allocatorIZN5Acorn10Acorn_Dirt4initEvEUlRNS2_7ContextEE4_EEEEENS_5tupleIJDpOT_EEESD_, symObjAddr: 0x1A4A64, symBinAddr: 0x1001A5D54, symSize: 0x1F8 }
  - { offsetInCU: 0x9D0C6, offset: 0x9D0C6, size: 0x8, addend: 0x0, symName: __ZNSt3__13getB8ue170006ILm0EJRKNS_9allocatorIZN5Acorn10Acorn_Dirt4initEvEUlRNS2_7ContextEE4_EEEEERNS_13tuple_elementIXT_ENS_5tupleIJDpT0_EEEE4typeERSE_, symObjAddr: 0x1A55F8, symBinAddr: 0x1001A68E8, symSize: 0x24 }
  - { offsetInCU: 0x9D109, offset: 0x9D109, size: 0x8, addend: 0x0, symName: __ZNSt3__18__invokeB8ue170006IRZN5Acorn10Acorn_Dirt4initEvEUlRNS1_7ContextEE4_JS4_EEEDTclclsr3stdE7declvalIT_EEspclsr3stdE7declvalIT0_EEEEOS7_DpOS8_, symObjAddr: 0x1A570C, symBinAddr: 0x1001A69FC, symSize: 0x2C }
  - { offsetInCU: 0x9D2B9, offset: 0x9D2B9, size: 0x8, addend: 0x0, symName: __ZNSt3__116forward_as_tupleB8ue170006IJZN5Acorn10Acorn_Dirt4initEvEUlRNS1_7ContextEE5_EEENS_5tupleIJDpOT_EEES9_, symObjAddr: 0x1A6F6C, symBinAddr: 0x1001A825C, symSize: 0x1F8 }
  - { offsetInCU: 0x9D2F3, offset: 0x9D2F3, size: 0x8, addend: 0x0, symName: __ZNSt3__116forward_as_tupleB8ue170006IJNS_9allocatorIZN5Acorn10Acorn_Dirt4initEvEUlRNS2_7ContextEE5_EEEEENS_5tupleIJDpOT_EEESB_, symObjAddr: 0x1A7164, symBinAddr: 0x1001A8454, symSize: 0x1F8 }
  - { offsetInCU: 0x9D357, offset: 0x9D357, size: 0x8, addend: 0x0, symName: __ZNSt3__13getB8ue170006ILm0EJOZN5Acorn10Acorn_Dirt4initEvEUlRNS1_7ContextEE5_EEERNS_13tuple_elementIXT_ENS_5tupleIJDpT0_EEEE4typeERSB_, symObjAddr: 0x1A8048, symBinAddr: 0x1001A9338, symSize: 0x24 }
  - { offsetInCU: 0x9D399, offset: 0x9D399, size: 0x8, addend: 0x0, symName: __ZNSt3__13getB8ue170006ILm0EJONS_9allocatorIZN5Acorn10Acorn_Dirt4initEvEUlRNS2_7ContextEE5_EEEEERNS_13tuple_elementIXT_ENS_5tupleIJDpT0_EEEE4typeERSD_, symObjAddr: 0x1A80CC, symBinAddr: 0x1001A93BC, symSize: 0x24 }
  - { offsetInCU: 0x9D8BF, offset: 0x9D8BF, size: 0x8, addend: 0x0, symName: __ZNSt3__116forward_as_tupleB8ue170006IJRKZN5Acorn10Acorn_Dirt4initEvEUlRNS1_7ContextEE5_EEENS_5tupleIJDpOT_EEESB_, symObjAddr: 0x1A8D60, symBinAddr: 0x1001AA050, symSize: 0x1F8 }
  - { offsetInCU: 0x9D90E, offset: 0x9D90E, size: 0x8, addend: 0x0, symName: __ZNSt3__13getB8ue170006ILm0EJRKZN5Acorn10Acorn_Dirt4initEvEUlRNS1_7ContextEE5_EEERNS_13tuple_elementIXT_ENS_5tupleIJDpT0_EEEE4typeERSC_, symObjAddr: 0x1A9904, symBinAddr: 0x1001AABF4, symSize: 0x24 }
  - { offsetInCU: 0x9D950, offset: 0x9D950, size: 0x8, addend: 0x0, symName: __ZNSt3__116forward_as_tupleB8ue170006IJRKNS_9allocatorIZN5Acorn10Acorn_Dirt4initEvEUlRNS2_7ContextEE5_EEEEENS_5tupleIJDpOT_EEESD_, symObjAddr: 0x1AA0A4, symBinAddr: 0x1001AB394, symSize: 0x1F8 }
  - { offsetInCU: 0x9D99F, offset: 0x9D99F, size: 0x8, addend: 0x0, symName: __ZNSt3__13getB8ue170006ILm0EJRKNS_9allocatorIZN5Acorn10Acorn_Dirt4initEvEUlRNS2_7ContextEE5_EEEEERNS_13tuple_elementIXT_ENS_5tupleIJDpT0_EEEE4typeERSE_, symObjAddr: 0x1AAC38, symBinAddr: 0x1001ABF28, symSize: 0x24 }
  - { offsetInCU: 0x9D9E2, offset: 0x9D9E2, size: 0x8, addend: 0x0, symName: __ZNSt3__18__invokeB8ue170006IRZN5Acorn10Acorn_Dirt4initEvEUlRNS1_7ContextEE5_JS4_EEEDTclclsr3stdE7declvalIT_EEspclsr3stdE7declvalIT0_EEEEOS7_DpOS8_, symObjAddr: 0x1AAD4C, symBinAddr: 0x1001AC03C, symSize: 0x2C }
  - { offsetInCU: 0x9DB92, offset: 0x9DB92, size: 0x8, addend: 0x0, symName: __ZNSt3__116forward_as_tupleB8ue170006IJZN5Acorn10Acorn_Dirt4initEvEUlRNS1_7ContextEE6_EEENS_5tupleIJDpOT_EEES9_, symObjAddr: 0x1AC5DC, symBinAddr: 0x1001AD8CC, symSize: 0x1F8 }
  - { offsetInCU: 0x9DBCC, offset: 0x9DBCC, size: 0x8, addend: 0x0, symName: __ZNSt3__116forward_as_tupleB8ue170006IJNS_9allocatorIZN5Acorn10Acorn_Dirt4initEvEUlRNS2_7ContextEE6_EEEEENS_5tupleIJDpOT_EEESB_, symObjAddr: 0x1AC7D4, symBinAddr: 0x1001ADAC4, symSize: 0x1F8 }
  - { offsetInCU: 0x9DC30, offset: 0x9DC30, size: 0x8, addend: 0x0, symName: __ZNSt3__13getB8ue170006ILm0EJOZN5Acorn10Acorn_Dirt4initEvEUlRNS1_7ContextEE6_EEERNS_13tuple_elementIXT_ENS_5tupleIJDpT0_EEEE4typeERSB_, symObjAddr: 0x1AD6B8, symBinAddr: 0x1001AE9A8, symSize: 0x24 }
  - { offsetInCU: 0x9DC72, offset: 0x9DC72, size: 0x8, addend: 0x0, symName: __ZNSt3__13getB8ue170006ILm0EJONS_9allocatorIZN5Acorn10Acorn_Dirt4initEvEUlRNS2_7ContextEE6_EEEEERNS_13tuple_elementIXT_ENS_5tupleIJDpT0_EEEE4typeERSD_, symObjAddr: 0x1AD73C, symBinAddr: 0x1001AEA2C, symSize: 0x24 }
  - { offsetInCU: 0x9E198, offset: 0x9E198, size: 0x8, addend: 0x0, symName: __ZNSt3__116forward_as_tupleB8ue170006IJRKZN5Acorn10Acorn_Dirt4initEvEUlRNS1_7ContextEE6_EEENS_5tupleIJDpOT_EEESB_, symObjAddr: 0x1AE3D0, symBinAddr: 0x1001AF6C0, symSize: 0x1F8 }
  - { offsetInCU: 0x9E1E7, offset: 0x9E1E7, size: 0x8, addend: 0x0, symName: __ZNSt3__13getB8ue170006ILm0EJRKZN5Acorn10Acorn_Dirt4initEvEUlRNS1_7ContextEE6_EEERNS_13tuple_elementIXT_ENS_5tupleIJDpT0_EEEE4typeERSC_, symObjAddr: 0x1AEF74, symBinAddr: 0x1001B0264, symSize: 0x24 }
  - { offsetInCU: 0x9E229, offset: 0x9E229, size: 0x8, addend: 0x0, symName: __ZNSt3__116forward_as_tupleB8ue170006IJRKNS_9allocatorIZN5Acorn10Acorn_Dirt4initEvEUlRNS2_7ContextEE6_EEEEENS_5tupleIJDpOT_EEESD_, symObjAddr: 0x1AF714, symBinAddr: 0x1001B0A04, symSize: 0x1F8 }
  - { offsetInCU: 0x9E278, offset: 0x9E278, size: 0x8, addend: 0x0, symName: __ZNSt3__13getB8ue170006ILm0EJRKNS_9allocatorIZN5Acorn10Acorn_Dirt4initEvEUlRNS2_7ContextEE6_EEEEERNS_13tuple_elementIXT_ENS_5tupleIJDpT0_EEEE4typeERSE_, symObjAddr: 0x1B02A8, symBinAddr: 0x1001B1598, symSize: 0x24 }
  - { offsetInCU: 0x9E2BB, offset: 0x9E2BB, size: 0x8, addend: 0x0, symName: __ZNSt3__18__invokeB8ue170006IRZN5Acorn10Acorn_Dirt4initEvEUlRNS1_7ContextEE6_JS4_EEEDTclclsr3stdE7declvalIT_EEspclsr3stdE7declvalIT0_EEEEOS7_DpOS8_, symObjAddr: 0x1B03BC, symBinAddr: 0x1001B16AC, symSize: 0x2C }
  - { offsetInCU: 0x9E46B, offset: 0x9E46B, size: 0x8, addend: 0x0, symName: __ZNSt3__116forward_as_tupleB8ue170006IJZN5Acorn10Acorn_Dirt4initEvEUlRNS1_7ContextEE7_EEENS_5tupleIJDpOT_EEES9_, symObjAddr: 0x1B1BC4, symBinAddr: 0x1001B2EB4, symSize: 0x1F8 }
  - { offsetInCU: 0x9E4A5, offset: 0x9E4A5, size: 0x8, addend: 0x0, symName: __ZNSt3__116forward_as_tupleB8ue170006IJNS_9allocatorIZN5Acorn10Acorn_Dirt4initEvEUlRNS2_7ContextEE7_EEEEENS_5tupleIJDpOT_EEESB_, symObjAddr: 0x1B1DBC, symBinAddr: 0x1001B30AC, symSize: 0x1F8 }
  - { offsetInCU: 0x9E509, offset: 0x9E509, size: 0x8, addend: 0x0, symName: __ZNSt3__13getB8ue170006ILm0EJOZN5Acorn10Acorn_Dirt4initEvEUlRNS1_7ContextEE7_EEERNS_13tuple_elementIXT_ENS_5tupleIJDpT0_EEEE4typeERSB_, symObjAddr: 0x1B2CA0, symBinAddr: 0x1001B3F90, symSize: 0x24 }
  - { offsetInCU: 0x9E54B, offset: 0x9E54B, size: 0x8, addend: 0x0, symName: __ZNSt3__13getB8ue170006ILm0EJONS_9allocatorIZN5Acorn10Acorn_Dirt4initEvEUlRNS2_7ContextEE7_EEEEERNS_13tuple_elementIXT_ENS_5tupleIJDpT0_EEEE4typeERSD_, symObjAddr: 0x1B2D24, symBinAddr: 0x1001B4014, symSize: 0x24 }
  - { offsetInCU: 0x9EA71, offset: 0x9EA71, size: 0x8, addend: 0x0, symName: __ZNSt3__116forward_as_tupleB8ue170006IJRKZN5Acorn10Acorn_Dirt4initEvEUlRNS1_7ContextEE7_EEENS_5tupleIJDpOT_EEESB_, symObjAddr: 0x1B39B8, symBinAddr: 0x1001B4CA8, symSize: 0x1F8 }
  - { offsetInCU: 0x9EAC0, offset: 0x9EAC0, size: 0x8, addend: 0x0, symName: __ZNSt3__13getB8ue170006ILm0EJRKZN5Acorn10Acorn_Dirt4initEvEUlRNS1_7ContextEE7_EEERNS_13tuple_elementIXT_ENS_5tupleIJDpT0_EEEE4typeERSC_, symObjAddr: 0x1B455C, symBinAddr: 0x1001B584C, symSize: 0x24 }
  - { offsetInCU: 0x9EB02, offset: 0x9EB02, size: 0x8, addend: 0x0, symName: __ZNSt3__116forward_as_tupleB8ue170006IJRKNS_9allocatorIZN5Acorn10Acorn_Dirt4initEvEUlRNS2_7ContextEE7_EEEEENS_5tupleIJDpOT_EEESD_, symObjAddr: 0x1B4CFC, symBinAddr: 0x1001B5FEC, symSize: 0x1F8 }
  - { offsetInCU: 0x9EB51, offset: 0x9EB51, size: 0x8, addend: 0x0, symName: __ZNSt3__13getB8ue170006ILm0EJRKNS_9allocatorIZN5Acorn10Acorn_Dirt4initEvEUlRNS2_7ContextEE7_EEEEERNS_13tuple_elementIXT_ENS_5tupleIJDpT0_EEEE4typeERSE_, symObjAddr: 0x1B5890, symBinAddr: 0x1001B6B80, symSize: 0x24 }
  - { offsetInCU: 0x9EB94, offset: 0x9EB94, size: 0x8, addend: 0x0, symName: __ZNSt3__18__invokeB8ue170006IRZN5Acorn10Acorn_Dirt4initEvEUlRNS1_7ContextEE7_JS4_EEEDTclclsr3stdE7declvalIT_EEspclsr3stdE7declvalIT0_EEEEOS7_DpOS8_, symObjAddr: 0x1B59A4, symBinAddr: 0x1001B6C94, symSize: 0x2C }
  - { offsetInCU: 0x9ED44, offset: 0x9ED44, size: 0x8, addend: 0x0, symName: __ZNSt3__116forward_as_tupleB8ue170006IJZN5Acorn10Acorn_Dirt4initEvEUlRNS1_7ContextEE8_EEENS_5tupleIJDpOT_EEES9_, symObjAddr: 0x1B7238, symBinAddr: 0x1001B8528, symSize: 0x1F8 }
  - { offsetInCU: 0x9ED7E, offset: 0x9ED7E, size: 0x8, addend: 0x0, symName: __ZNSt3__116forward_as_tupleB8ue170006IJNS_9allocatorIZN5Acorn10Acorn_Dirt4initEvEUlRNS2_7ContextEE8_EEEEENS_5tupleIJDpOT_EEESB_, symObjAddr: 0x1B7430, symBinAddr: 0x1001B8720, symSize: 0x1F8 }
  - { offsetInCU: 0x9EDE2, offset: 0x9EDE2, size: 0x8, addend: 0x0, symName: __ZNSt3__13getB8ue170006ILm0EJOZN5Acorn10Acorn_Dirt4initEvEUlRNS1_7ContextEE8_EEERNS_13tuple_elementIXT_ENS_5tupleIJDpT0_EEEE4typeERSB_, symObjAddr: 0x1B8314, symBinAddr: 0x1001B9604, symSize: 0x24 }
  - { offsetInCU: 0x9EE24, offset: 0x9EE24, size: 0x8, addend: 0x0, symName: __ZNSt3__13getB8ue170006ILm0EJONS_9allocatorIZN5Acorn10Acorn_Dirt4initEvEUlRNS2_7ContextEE8_EEEEERNS_13tuple_elementIXT_ENS_5tupleIJDpT0_EEEE4typeERSD_, symObjAddr: 0x1B8398, symBinAddr: 0x1001B9688, symSize: 0x24 }
  - { offsetInCU: 0x9F34A, offset: 0x9F34A, size: 0x8, addend: 0x0, symName: __ZNSt3__116forward_as_tupleB8ue170006IJRKZN5Acorn10Acorn_Dirt4initEvEUlRNS1_7ContextEE8_EEENS_5tupleIJDpOT_EEESB_, symObjAddr: 0x1B902C, symBinAddr: 0x1001BA31C, symSize: 0x1F8 }
  - { offsetInCU: 0x9F399, offset: 0x9F399, size: 0x8, addend: 0x0, symName: __ZNSt3__13getB8ue170006ILm0EJRKZN5Acorn10Acorn_Dirt4initEvEUlRNS1_7ContextEE8_EEERNS_13tuple_elementIXT_ENS_5tupleIJDpT0_EEEE4typeERSC_, symObjAddr: 0x1B9BD0, symBinAddr: 0x1001BAEC0, symSize: 0x24 }
  - { offsetInCU: 0x9F3DB, offset: 0x9F3DB, size: 0x8, addend: 0x0, symName: __ZNSt3__116forward_as_tupleB8ue170006IJRKNS_9allocatorIZN5Acorn10Acorn_Dirt4initEvEUlRNS2_7ContextEE8_EEEEENS_5tupleIJDpOT_EEESD_, symObjAddr: 0x1BA370, symBinAddr: 0x1001BB660, symSize: 0x1F8 }
  - { offsetInCU: 0x9F42A, offset: 0x9F42A, size: 0x8, addend: 0x0, symName: __ZNSt3__13getB8ue170006ILm0EJRKNS_9allocatorIZN5Acorn10Acorn_Dirt4initEvEUlRNS2_7ContextEE8_EEEEERNS_13tuple_elementIXT_ENS_5tupleIJDpT0_EEEE4typeERSE_, symObjAddr: 0x1BAF04, symBinAddr: 0x1001BC1F4, symSize: 0x24 }
  - { offsetInCU: 0x9F46D, offset: 0x9F46D, size: 0x8, addend: 0x0, symName: __ZNSt3__18__invokeB8ue170006IRZN5Acorn10Acorn_Dirt4initEvEUlRNS1_7ContextEE8_JS4_EEEDTclclsr3stdE7declvalIT_EEspclsr3stdE7declvalIT0_EEEEOS7_DpOS8_, symObjAddr: 0x1BB018, symBinAddr: 0x1001BC308, symSize: 0x2C }
  - { offsetInCU: 0x9F61D, offset: 0x9F61D, size: 0x8, addend: 0x0, symName: __ZNSt3__116forward_as_tupleB8ue170006IJZN5Acorn10Acorn_Dirt4initEvEUlRNS1_7ContextEE9_EEENS_5tupleIJDpOT_EEES9_, symObjAddr: 0x1BC820, symBinAddr: 0x1001BDB10, symSize: 0x1F8 }
  - { offsetInCU: 0x9F657, offset: 0x9F657, size: 0x8, addend: 0x0, symName: __ZNSt3__116forward_as_tupleB8ue170006IJNS_9allocatorIZN5Acorn10Acorn_Dirt4initEvEUlRNS2_7ContextEE9_EEEEENS_5tupleIJDpOT_EEESB_, symObjAddr: 0x1BCA18, symBinAddr: 0x1001BDD08, symSize: 0x1F8 }
  - { offsetInCU: 0x9F6BB, offset: 0x9F6BB, size: 0x8, addend: 0x0, symName: __ZNSt3__13getB8ue170006ILm0EJOZN5Acorn10Acorn_Dirt4initEvEUlRNS1_7ContextEE9_EEERNS_13tuple_elementIXT_ENS_5tupleIJDpT0_EEEE4typeERSB_, symObjAddr: 0x1BD8FC, symBinAddr: 0x1001BEBEC, symSize: 0x24 }
  - { offsetInCU: 0x9F6FD, offset: 0x9F6FD, size: 0x8, addend: 0x0, symName: __ZNSt3__13getB8ue170006ILm0EJONS_9allocatorIZN5Acorn10Acorn_Dirt4initEvEUlRNS2_7ContextEE9_EEEEERNS_13tuple_elementIXT_ENS_5tupleIJDpT0_EEEE4typeERSD_, symObjAddr: 0x1BD980, symBinAddr: 0x1001BEC70, symSize: 0x24 }
  - { offsetInCU: 0x9FC23, offset: 0x9FC23, size: 0x8, addend: 0x0, symName: __ZNSt3__116forward_as_tupleB8ue170006IJRKZN5Acorn10Acorn_Dirt4initEvEUlRNS1_7ContextEE9_EEENS_5tupleIJDpOT_EEESB_, symObjAddr: 0x1BE614, symBinAddr: 0x1001BF904, symSize: 0x1F8 }
  - { offsetInCU: 0x9FC72, offset: 0x9FC72, size: 0x8, addend: 0x0, symName: __ZNSt3__13getB8ue170006ILm0EJRKZN5Acorn10Acorn_Dirt4initEvEUlRNS1_7ContextEE9_EEERNS_13tuple_elementIXT_ENS_5tupleIJDpT0_EEEE4typeERSC_, symObjAddr: 0x1BF1B8, symBinAddr: 0x1001C04A8, symSize: 0x24 }
  - { offsetInCU: 0x9FCB4, offset: 0x9FCB4, size: 0x8, addend: 0x0, symName: __ZNSt3__116forward_as_tupleB8ue170006IJRKNS_9allocatorIZN5Acorn10Acorn_Dirt4initEvEUlRNS2_7ContextEE9_EEEEENS_5tupleIJDpOT_EEESD_, symObjAddr: 0x1BF958, symBinAddr: 0x1001C0C48, symSize: 0x1F8 }
  - { offsetInCU: 0x9FD03, offset: 0x9FD03, size: 0x8, addend: 0x0, symName: __ZNSt3__13getB8ue170006ILm0EJRKNS_9allocatorIZN5Acorn10Acorn_Dirt4initEvEUlRNS2_7ContextEE9_EEEEERNS_13tuple_elementIXT_ENS_5tupleIJDpT0_EEEE4typeERSE_, symObjAddr: 0x1C04EC, symBinAddr: 0x1001C17DC, symSize: 0x24 }
  - { offsetInCU: 0x9FD46, offset: 0x9FD46, size: 0x8, addend: 0x0, symName: __ZNSt3__18__invokeB8ue170006IRZN5Acorn10Acorn_Dirt4initEvEUlRNS1_7ContextEE9_JS4_EEEDTclclsr3stdE7declvalIT_EEspclsr3stdE7declvalIT0_EEEEOS7_DpOS8_, symObjAddr: 0x1C0600, symBinAddr: 0x1001C18F0, symSize: 0x2C }
  - { offsetInCU: 0x9FEF6, offset: 0x9FEF6, size: 0x8, addend: 0x0, symName: __ZNSt3__116forward_as_tupleB8ue170006IJZN5Acorn10Acorn_Dirt4initEvEUlRNS1_7ContextEE10_EEENS_5tupleIJDpOT_EEES9_, symObjAddr: 0x1C1E74, symBinAddr: 0x1001C3164, symSize: 0x1F8 }
  - { offsetInCU: 0x9FF30, offset: 0x9FF30, size: 0x8, addend: 0x0, symName: __ZNSt3__116forward_as_tupleB8ue170006IJNS_9allocatorIZN5Acorn10Acorn_Dirt4initEvEUlRNS2_7ContextEE10_EEEEENS_5tupleIJDpOT_EEESB_, symObjAddr: 0x1C206C, symBinAddr: 0x1001C335C, symSize: 0x1F8 }
  - { offsetInCU: 0x9FF94, offset: 0x9FF94, size: 0x8, addend: 0x0, symName: __ZNSt3__13getB8ue170006ILm0EJOZN5Acorn10Acorn_Dirt4initEvEUlRNS1_7ContextEE10_EEERNS_13tuple_elementIXT_ENS_5tupleIJDpT0_EEEE4typeERSB_, symObjAddr: 0x1C2F50, symBinAddr: 0x1001C4240, symSize: 0x24 }
  - { offsetInCU: 0x9FFD6, offset: 0x9FFD6, size: 0x8, addend: 0x0, symName: __ZNSt3__13getB8ue170006ILm0EJONS_9allocatorIZN5Acorn10Acorn_Dirt4initEvEUlRNS2_7ContextEE10_EEEEERNS_13tuple_elementIXT_ENS_5tupleIJDpT0_EEEE4typeERSD_, symObjAddr: 0x1C2FD4, symBinAddr: 0x1001C42C4, symSize: 0x24 }
  - { offsetInCU: 0xA04FC, offset: 0xA04FC, size: 0x8, addend: 0x0, symName: __ZNSt3__116forward_as_tupleB8ue170006IJRKZN5Acorn10Acorn_Dirt4initEvEUlRNS1_7ContextEE10_EEENS_5tupleIJDpOT_EEESB_, symObjAddr: 0x1C3C68, symBinAddr: 0x1001C4F58, symSize: 0x1F8 }
  - { offsetInCU: 0xA054B, offset: 0xA054B, size: 0x8, addend: 0x0, symName: __ZNSt3__13getB8ue170006ILm0EJRKZN5Acorn10Acorn_Dirt4initEvEUlRNS1_7ContextEE10_EEERNS_13tuple_elementIXT_ENS_5tupleIJDpT0_EEEE4typeERSC_, symObjAddr: 0x1C480C, symBinAddr: 0x1001C5AFC, symSize: 0x24 }
  - { offsetInCU: 0xA058D, offset: 0xA058D, size: 0x8, addend: 0x0, symName: __ZNSt3__116forward_as_tupleB8ue170006IJRKNS_9allocatorIZN5Acorn10Acorn_Dirt4initEvEUlRNS2_7ContextEE10_EEEEENS_5tupleIJDpOT_EEESD_, symObjAddr: 0x1C4FAC, symBinAddr: 0x1001C629C, symSize: 0x1F8 }
  - { offsetInCU: 0xA05DC, offset: 0xA05DC, size: 0x8, addend: 0x0, symName: __ZNSt3__13getB8ue170006ILm0EJRKNS_9allocatorIZN5Acorn10Acorn_Dirt4initEvEUlRNS2_7ContextEE10_EEEEERNS_13tuple_elementIXT_ENS_5tupleIJDpT0_EEEE4typeERSE_, symObjAddr: 0x1C5B40, symBinAddr: 0x1001C6E30, symSize: 0x24 }
  - { offsetInCU: 0xA061F, offset: 0xA061F, size: 0x8, addend: 0x0, symName: __ZNSt3__18__invokeB8ue170006IRZN5Acorn10Acorn_Dirt4initEvEUlRNS1_7ContextEE10_JS4_EEEDTclclsr3stdE7declvalIT_EEspclsr3stdE7declvalIT0_EEEEOS7_DpOS8_, symObjAddr: 0x1C5C54, symBinAddr: 0x1001C6F44, symSize: 0x2C }
  - { offsetInCU: 0xA07CF, offset: 0xA07CF, size: 0x8, addend: 0x0, symName: __ZNSt3__116forward_as_tupleB8ue170006IJZN5Acorn10Acorn_Dirt4initEvEUlRNS1_7ContextEE11_EEENS_5tupleIJDpOT_EEES9_, symObjAddr: 0x1C74C8, symBinAddr: 0x1001C87B8, symSize: 0x1F8 }
  - { offsetInCU: 0xA0809, offset: 0xA0809, size: 0x8, addend: 0x0, symName: __ZNSt3__116forward_as_tupleB8ue170006IJNS_9allocatorIZN5Acorn10Acorn_Dirt4initEvEUlRNS2_7ContextEE11_EEEEENS_5tupleIJDpOT_EEESB_, symObjAddr: 0x1C76C0, symBinAddr: 0x1001C89B0, symSize: 0x1F8 }
  - { offsetInCU: 0xA086D, offset: 0xA086D, size: 0x8, addend: 0x0, symName: __ZNSt3__13getB8ue170006ILm0EJOZN5Acorn10Acorn_Dirt4initEvEUlRNS1_7ContextEE11_EEERNS_13tuple_elementIXT_ENS_5tupleIJDpT0_EEEE4typeERSB_, symObjAddr: 0x1C85A4, symBinAddr: 0x1001C9894, symSize: 0x24 }
  - { offsetInCU: 0xA08AF, offset: 0xA08AF, size: 0x8, addend: 0x0, symName: __ZNSt3__13getB8ue170006ILm0EJONS_9allocatorIZN5Acorn10Acorn_Dirt4initEvEUlRNS2_7ContextEE11_EEEEERNS_13tuple_elementIXT_ENS_5tupleIJDpT0_EEEE4typeERSD_, symObjAddr: 0x1C8628, symBinAddr: 0x1001C9918, symSize: 0x24 }
  - { offsetInCU: 0xA0DD5, offset: 0xA0DD5, size: 0x8, addend: 0x0, symName: __ZNSt3__116forward_as_tupleB8ue170006IJRKZN5Acorn10Acorn_Dirt4initEvEUlRNS1_7ContextEE11_EEENS_5tupleIJDpOT_EEESB_, symObjAddr: 0x1C92BC, symBinAddr: 0x1001CA5AC, symSize: 0x1F8 }
  - { offsetInCU: 0xA0E24, offset: 0xA0E24, size: 0x8, addend: 0x0, symName: __ZNSt3__13getB8ue170006ILm0EJRKZN5Acorn10Acorn_Dirt4initEvEUlRNS1_7ContextEE11_EEERNS_13tuple_elementIXT_ENS_5tupleIJDpT0_EEEE4typeERSC_, symObjAddr: 0x1C9E60, symBinAddr: 0x1001CB150, symSize: 0x24 }
  - { offsetInCU: 0xA0E66, offset: 0xA0E66, size: 0x8, addend: 0x0, symName: __ZNSt3__116forward_as_tupleB8ue170006IJRKNS_9allocatorIZN5Acorn10Acorn_Dirt4initEvEUlRNS2_7ContextEE11_EEEEENS_5tupleIJDpOT_EEESD_, symObjAddr: 0x1CA600, symBinAddr: 0x1001CB8F0, symSize: 0x1F8 }
  - { offsetInCU: 0xA0EB5, offset: 0xA0EB5, size: 0x8, addend: 0x0, symName: __ZNSt3__13getB8ue170006ILm0EJRKNS_9allocatorIZN5Acorn10Acorn_Dirt4initEvEUlRNS2_7ContextEE11_EEEEERNS_13tuple_elementIXT_ENS_5tupleIJDpT0_EEEE4typeERSE_, symObjAddr: 0x1CB194, symBinAddr: 0x1001CC484, symSize: 0x24 }
  - { offsetInCU: 0xA0EF8, offset: 0xA0EF8, size: 0x8, addend: 0x0, symName: __ZNSt3__18__invokeB8ue170006IRZN5Acorn10Acorn_Dirt4initEvEUlRNS1_7ContextEE11_JS4_EEEDTclclsr3stdE7declvalIT_EEspclsr3stdE7declvalIT0_EEEEOS7_DpOS8_, symObjAddr: 0x1CB2A8, symBinAddr: 0x1001CC598, symSize: 0x2C }
  - { offsetInCU: 0xA10A8, offset: 0xA10A8, size: 0x8, addend: 0x0, symName: __ZNSt3__116forward_as_tupleB8ue170006IJZN5Acorn10Acorn_Dirt4initEvEUlRNS1_7ContextEE12_EEENS_5tupleIJDpOT_EEES9_, symObjAddr: 0x1CCB18, symBinAddr: 0x1001CDE08, symSize: 0x1F8 }
  - { offsetInCU: 0xA10E2, offset: 0xA10E2, size: 0x8, addend: 0x0, symName: __ZNSt3__116forward_as_tupleB8ue170006IJNS_9allocatorIZN5Acorn10Acorn_Dirt4initEvEUlRNS2_7ContextEE12_EEEEENS_5tupleIJDpOT_EEESB_, symObjAddr: 0x1CCD10, symBinAddr: 0x1001CE000, symSize: 0x1F8 }
  - { offsetInCU: 0xA1146, offset: 0xA1146, size: 0x8, addend: 0x0, symName: __ZNSt3__13getB8ue170006ILm0EJOZN5Acorn10Acorn_Dirt4initEvEUlRNS1_7ContextEE12_EEERNS_13tuple_elementIXT_ENS_5tupleIJDpT0_EEEE4typeERSB_, symObjAddr: 0x1CDBF4, symBinAddr: 0x1001CEEE4, symSize: 0x24 }
  - { offsetInCU: 0xA1188, offset: 0xA1188, size: 0x8, addend: 0x0, symName: __ZNSt3__13getB8ue170006ILm0EJONS_9allocatorIZN5Acorn10Acorn_Dirt4initEvEUlRNS2_7ContextEE12_EEEEERNS_13tuple_elementIXT_ENS_5tupleIJDpT0_EEEE4typeERSD_, symObjAddr: 0x1CDC78, symBinAddr: 0x1001CEF68, symSize: 0x24 }
  - { offsetInCU: 0xA16AE, offset: 0xA16AE, size: 0x8, addend: 0x0, symName: __ZNSt3__116forward_as_tupleB8ue170006IJRKZN5Acorn10Acorn_Dirt4initEvEUlRNS1_7ContextEE12_EEENS_5tupleIJDpOT_EEESB_, symObjAddr: 0x1CE90C, symBinAddr: 0x1001CFBFC, symSize: 0x1F8 }
  - { offsetInCU: 0xA16FD, offset: 0xA16FD, size: 0x8, addend: 0x0, symName: __ZNSt3__13getB8ue170006ILm0EJRKZN5Acorn10Acorn_Dirt4initEvEUlRNS1_7ContextEE12_EEERNS_13tuple_elementIXT_ENS_5tupleIJDpT0_EEEE4typeERSC_, symObjAddr: 0x1CF4B0, symBinAddr: 0x1001D07A0, symSize: 0x24 }
  - { offsetInCU: 0xA173F, offset: 0xA173F, size: 0x8, addend: 0x0, symName: __ZNSt3__116forward_as_tupleB8ue170006IJRKNS_9allocatorIZN5Acorn10Acorn_Dirt4initEvEUlRNS2_7ContextEE12_EEEEENS_5tupleIJDpOT_EEESD_, symObjAddr: 0x1CFC50, symBinAddr: 0x1001D0F40, symSize: 0x1F8 }
  - { offsetInCU: 0xA178E, offset: 0xA178E, size: 0x8, addend: 0x0, symName: __ZNSt3__13getB8ue170006ILm0EJRKNS_9allocatorIZN5Acorn10Acorn_Dirt4initEvEUlRNS2_7ContextEE12_EEEEERNS_13tuple_elementIXT_ENS_5tupleIJDpT0_EEEE4typeERSE_, symObjAddr: 0x1D07E4, symBinAddr: 0x1001D1AD4, symSize: 0x24 }
  - { offsetInCU: 0xA17D1, offset: 0xA17D1, size: 0x8, addend: 0x0, symName: __ZNSt3__18__invokeB8ue170006IRZN5Acorn10Acorn_Dirt4initEvEUlRNS1_7ContextEE12_JS4_EEEDTclclsr3stdE7declvalIT_EEspclsr3stdE7declvalIT0_EEEEOS7_DpOS8_, symObjAddr: 0x1D08F8, symBinAddr: 0x1001D1BE8, symSize: 0x2C }
  - { offsetInCU: 0xA1981, offset: 0xA1981, size: 0x8, addend: 0x0, symName: __ZNSt3__116forward_as_tupleB8ue170006IJZN5Acorn10Acorn_Dirt4initEvEUlRNS1_7ContextEE13_EEENS_5tupleIJDpOT_EEES9_, symObjAddr: 0x1D21C4, symBinAddr: 0x1001D34B4, symSize: 0x1F8 }
  - { offsetInCU: 0xA19BB, offset: 0xA19BB, size: 0x8, addend: 0x0, symName: __ZNSt3__116forward_as_tupleB8ue170006IJNS_9allocatorIZN5Acorn10Acorn_Dirt4initEvEUlRNS2_7ContextEE13_EEEEENS_5tupleIJDpOT_EEESB_, symObjAddr: 0x1D23BC, symBinAddr: 0x1001D36AC, symSize: 0x1F8 }
  - { offsetInCU: 0xA1A1F, offset: 0xA1A1F, size: 0x8, addend: 0x0, symName: __ZNSt3__13getB8ue170006ILm0EJOZN5Acorn10Acorn_Dirt4initEvEUlRNS1_7ContextEE13_EEERNS_13tuple_elementIXT_ENS_5tupleIJDpT0_EEEE4typeERSB_, symObjAddr: 0x1D32A0, symBinAddr: 0x1001D4590, symSize: 0x24 }
  - { offsetInCU: 0xA1A61, offset: 0xA1A61, size: 0x8, addend: 0x0, symName: __ZNSt3__13getB8ue170006ILm0EJONS_9allocatorIZN5Acorn10Acorn_Dirt4initEvEUlRNS2_7ContextEE13_EEEEERNS_13tuple_elementIXT_ENS_5tupleIJDpT0_EEEE4typeERSD_, symObjAddr: 0x1D3324, symBinAddr: 0x1001D4614, symSize: 0x24 }
  - { offsetInCU: 0xA1F87, offset: 0xA1F87, size: 0x8, addend: 0x0, symName: __ZNSt3__116forward_as_tupleB8ue170006IJRKZN5Acorn10Acorn_Dirt4initEvEUlRNS1_7ContextEE13_EEENS_5tupleIJDpOT_EEESB_, symObjAddr: 0x1D3FB8, symBinAddr: 0x1001D52A8, symSize: 0x1F8 }
  - { offsetInCU: 0xA1FD6, offset: 0xA1FD6, size: 0x8, addend: 0x0, symName: __ZNSt3__13getB8ue170006ILm0EJRKZN5Acorn10Acorn_Dirt4initEvEUlRNS1_7ContextEE13_EEERNS_13tuple_elementIXT_ENS_5tupleIJDpT0_EEEE4typeERSC_, symObjAddr: 0x1D4B5C, symBinAddr: 0x1001D5E4C, symSize: 0x24 }
  - { offsetInCU: 0xA2018, offset: 0xA2018, size: 0x8, addend: 0x0, symName: __ZNSt3__116forward_as_tupleB8ue170006IJRKNS_9allocatorIZN5Acorn10Acorn_Dirt4initEvEUlRNS2_7ContextEE13_EEEEENS_5tupleIJDpOT_EEESD_, symObjAddr: 0x1D52FC, symBinAddr: 0x1001D65EC, symSize: 0x1F8 }
  - { offsetInCU: 0xA2067, offset: 0xA2067, size: 0x8, addend: 0x0, symName: __ZNSt3__13getB8ue170006ILm0EJRKNS_9allocatorIZN5Acorn10Acorn_Dirt4initEvEUlRNS2_7ContextEE13_EEEEERNS_13tuple_elementIXT_ENS_5tupleIJDpT0_EEEE4typeERSE_, symObjAddr: 0x1D5E90, symBinAddr: 0x1001D7180, symSize: 0x24 }
  - { offsetInCU: 0xA20AA, offset: 0xA20AA, size: 0x8, addend: 0x0, symName: __ZNSt3__18__invokeB8ue170006IRZN5Acorn10Acorn_Dirt4initEvEUlRNS1_7ContextEE13_JS4_EEEDTclclsr3stdE7declvalIT_EEspclsr3stdE7declvalIT0_EEEEOS7_DpOS8_, symObjAddr: 0x1D5FA4, symBinAddr: 0x1001D7294, symSize: 0x2C }
  - { offsetInCU: 0xA225A, offset: 0xA225A, size: 0x8, addend: 0x0, symName: __ZNSt3__116forward_as_tupleB8ue170006IJZN5Acorn10Acorn_Dirt4initEvEUlRNS1_7ContextEE14_EEENS_5tupleIJDpOT_EEES9_, symObjAddr: 0x1D7780, symBinAddr: 0x1001D8A70, symSize: 0x1F8 }
  - { offsetInCU: 0xA2294, offset: 0xA2294, size: 0x8, addend: 0x0, symName: __ZNSt3__116forward_as_tupleB8ue170006IJNS_9allocatorIZN5Acorn10Acorn_Dirt4initEvEUlRNS2_7ContextEE14_EEEEENS_5tupleIJDpOT_EEESB_, symObjAddr: 0x1D7978, symBinAddr: 0x1001D8C68, symSize: 0x1F8 }
  - { offsetInCU: 0xA22F8, offset: 0xA22F8, size: 0x8, addend: 0x0, symName: __ZNSt3__13getB8ue170006ILm0EJOZN5Acorn10Acorn_Dirt4initEvEUlRNS1_7ContextEE14_EEERNS_13tuple_elementIXT_ENS_5tupleIJDpT0_EEEE4typeERSB_, symObjAddr: 0x1D885C, symBinAddr: 0x1001D9B4C, symSize: 0x24 }
  - { offsetInCU: 0xA233A, offset: 0xA233A, size: 0x8, addend: 0x0, symName: __ZNSt3__13getB8ue170006ILm0EJONS_9allocatorIZN5Acorn10Acorn_Dirt4initEvEUlRNS2_7ContextEE14_EEEEERNS_13tuple_elementIXT_ENS_5tupleIJDpT0_EEEE4typeERSD_, symObjAddr: 0x1D88E0, symBinAddr: 0x1001D9BD0, symSize: 0x24 }
  - { offsetInCU: 0xA2860, offset: 0xA2860, size: 0x8, addend: 0x0, symName: __ZNSt3__116forward_as_tupleB8ue170006IJRKZN5Acorn10Acorn_Dirt4initEvEUlRNS1_7ContextEE14_EEENS_5tupleIJDpOT_EEESB_, symObjAddr: 0x1D9574, symBinAddr: 0x1001DA864, symSize: 0x1F8 }
  - { offsetInCU: 0xA28AF, offset: 0xA28AF, size: 0x8, addend: 0x0, symName: __ZNSt3__13getB8ue170006ILm0EJRKZN5Acorn10Acorn_Dirt4initEvEUlRNS1_7ContextEE14_EEERNS_13tuple_elementIXT_ENS_5tupleIJDpT0_EEEE4typeERSC_, symObjAddr: 0x1DA118, symBinAddr: 0x1001DB408, symSize: 0x24 }
  - { offsetInCU: 0xA28F1, offset: 0xA28F1, size: 0x8, addend: 0x0, symName: __ZNSt3__116forward_as_tupleB8ue170006IJRKNS_9allocatorIZN5Acorn10Acorn_Dirt4initEvEUlRNS2_7ContextEE14_EEEEENS_5tupleIJDpOT_EEESD_, symObjAddr: 0x1DA8B8, symBinAddr: 0x1001DBBA8, symSize: 0x1F8 }
  - { offsetInCU: 0xA2940, offset: 0xA2940, size: 0x8, addend: 0x0, symName: __ZNSt3__13getB8ue170006ILm0EJRKNS_9allocatorIZN5Acorn10Acorn_Dirt4initEvEUlRNS2_7ContextEE14_EEEEERNS_13tuple_elementIXT_ENS_5tupleIJDpT0_EEEE4typeERSE_, symObjAddr: 0x1DB44C, symBinAddr: 0x1001DC73C, symSize: 0x24 }
  - { offsetInCU: 0xA2983, offset: 0xA2983, size: 0x8, addend: 0x0, symName: __ZNSt3__18__invokeB8ue170006IRZN5Acorn10Acorn_Dirt4initEvEUlRNS1_7ContextEE14_JS4_EEEDTclclsr3stdE7declvalIT_EEspclsr3stdE7declvalIT0_EEEEOS7_DpOS8_, symObjAddr: 0x1DB560, symBinAddr: 0x1001DC850, symSize: 0x2C }
  - { offsetInCU: 0xA2B33, offset: 0xA2B33, size: 0x8, addend: 0x0, symName: __ZNSt3__116forward_as_tupleB8ue170006IJZN5Acorn10Acorn_Dirt4initEvEUlRNS1_7ContextEE15_EEENS_5tupleIJDpOT_EEES9_, symObjAddr: 0x1DCDB0, symBinAddr: 0x1001DE0A0, symSize: 0x1F8 }
  - { offsetInCU: 0xA2B6D, offset: 0xA2B6D, size: 0x8, addend: 0x0, symName: __ZNSt3__116forward_as_tupleB8ue170006IJNS_9allocatorIZN5Acorn10Acorn_Dirt4initEvEUlRNS2_7ContextEE15_EEEEENS_5tupleIJDpOT_EEESB_, symObjAddr: 0x1DCFA8, symBinAddr: 0x1001DE298, symSize: 0x1F8 }
  - { offsetInCU: 0xA2BD1, offset: 0xA2BD1, size: 0x8, addend: 0x0, symName: __ZNSt3__13getB8ue170006ILm0EJOZN5Acorn10Acorn_Dirt4initEvEUlRNS1_7ContextEE15_EEERNS_13tuple_elementIXT_ENS_5tupleIJDpT0_EEEE4typeERSB_, symObjAddr: 0x1DDE8C, symBinAddr: 0x1001DF17C, symSize: 0x24 }
  - { offsetInCU: 0xA2C13, offset: 0xA2C13, size: 0x8, addend: 0x0, symName: __ZNSt3__13getB8ue170006ILm0EJONS_9allocatorIZN5Acorn10Acorn_Dirt4initEvEUlRNS2_7ContextEE15_EEEEERNS_13tuple_elementIXT_ENS_5tupleIJDpT0_EEEE4typeERSD_, symObjAddr: 0x1DDF10, symBinAddr: 0x1001DF200, symSize: 0x24 }
  - { offsetInCU: 0xA3139, offset: 0xA3139, size: 0x8, addend: 0x0, symName: __ZNSt3__116forward_as_tupleB8ue170006IJRKZN5Acorn10Acorn_Dirt4initEvEUlRNS1_7ContextEE15_EEENS_5tupleIJDpOT_EEESB_, symObjAddr: 0x1DEBA4, symBinAddr: 0x1001DFE94, symSize: 0x1F8 }
  - { offsetInCU: 0xA3188, offset: 0xA3188, size: 0x8, addend: 0x0, symName: __ZNSt3__13getB8ue170006ILm0EJRKZN5Acorn10Acorn_Dirt4initEvEUlRNS1_7ContextEE15_EEERNS_13tuple_elementIXT_ENS_5tupleIJDpT0_EEEE4typeERSC_, symObjAddr: 0x1DF748, symBinAddr: 0x1001E0A38, symSize: 0x24 }
  - { offsetInCU: 0xA31CA, offset: 0xA31CA, size: 0x8, addend: 0x0, symName: __ZNSt3__116forward_as_tupleB8ue170006IJRKNS_9allocatorIZN5Acorn10Acorn_Dirt4initEvEUlRNS2_7ContextEE15_EEEEENS_5tupleIJDpOT_EEESD_, symObjAddr: 0x1DFEE8, symBinAddr: 0x1001E11D8, symSize: 0x1F8 }
  - { offsetInCU: 0xA3219, offset: 0xA3219, size: 0x8, addend: 0x0, symName: __ZNSt3__13getB8ue170006ILm0EJRKNS_9allocatorIZN5Acorn10Acorn_Dirt4initEvEUlRNS2_7ContextEE15_EEEEERNS_13tuple_elementIXT_ENS_5tupleIJDpT0_EEEE4typeERSE_, symObjAddr: 0x1E0A7C, symBinAddr: 0x1001E1D6C, symSize: 0x24 }
  - { offsetInCU: 0xA325C, offset: 0xA325C, size: 0x8, addend: 0x0, symName: __ZNSt3__18__invokeB8ue170006IRZN5Acorn10Acorn_Dirt4initEvEUlRNS1_7ContextEE15_JS4_EEEDTclclsr3stdE7declvalIT_EEspclsr3stdE7declvalIT0_EEEEOS7_DpOS8_, symObjAddr: 0x1E0B90, symBinAddr: 0x1001E1E80, symSize: 0x2C }
  - { offsetInCU: 0xA340C, offset: 0xA340C, size: 0x8, addend: 0x0, symName: __ZNSt3__116forward_as_tupleB8ue170006IJZN5Acorn10Acorn_Dirt4initEvEUlRNS1_7ContextEE16_EEENS_5tupleIJDpOT_EEES9_, symObjAddr: 0x1E2400, symBinAddr: 0x1001E36F0, symSize: 0x1F8 }
  - { offsetInCU: 0xA3446, offset: 0xA3446, size: 0x8, addend: 0x0, symName: __ZNSt3__116forward_as_tupleB8ue170006IJNS_9allocatorIZN5Acorn10Acorn_Dirt4initEvEUlRNS2_7ContextEE16_EEEEENS_5tupleIJDpOT_EEESB_, symObjAddr: 0x1E25F8, symBinAddr: 0x1001E38E8, symSize: 0x1F8 }
  - { offsetInCU: 0xA34AA, offset: 0xA34AA, size: 0x8, addend: 0x0, symName: __ZNSt3__13getB8ue170006ILm0EJOZN5Acorn10Acorn_Dirt4initEvEUlRNS1_7ContextEE16_EEERNS_13tuple_elementIXT_ENS_5tupleIJDpT0_EEEE4typeERSB_, symObjAddr: 0x1E34DC, symBinAddr: 0x1001E47CC, symSize: 0x24 }
  - { offsetInCU: 0xA34EC, offset: 0xA34EC, size: 0x8, addend: 0x0, symName: __ZNSt3__13getB8ue170006ILm0EJONS_9allocatorIZN5Acorn10Acorn_Dirt4initEvEUlRNS2_7ContextEE16_EEEEERNS_13tuple_elementIXT_ENS_5tupleIJDpT0_EEEE4typeERSD_, symObjAddr: 0x1E3560, symBinAddr: 0x1001E4850, symSize: 0x24 }
  - { offsetInCU: 0xA3A12, offset: 0xA3A12, size: 0x8, addend: 0x0, symName: __ZNSt3__116forward_as_tupleB8ue170006IJRKZN5Acorn10Acorn_Dirt4initEvEUlRNS1_7ContextEE16_EEENS_5tupleIJDpOT_EEESB_, symObjAddr: 0x1E41F4, symBinAddr: 0x1001E54E4, symSize: 0x1F8 }
  - { offsetInCU: 0xA3A61, offset: 0xA3A61, size: 0x8, addend: 0x0, symName: __ZNSt3__13getB8ue170006ILm0EJRKZN5Acorn10Acorn_Dirt4initEvEUlRNS1_7ContextEE16_EEERNS_13tuple_elementIXT_ENS_5tupleIJDpT0_EEEE4typeERSC_, symObjAddr: 0x1E4D98, symBinAddr: 0x1001E6088, symSize: 0x24 }
  - { offsetInCU: 0xA3AA3, offset: 0xA3AA3, size: 0x8, addend: 0x0, symName: __ZNSt3__116forward_as_tupleB8ue170006IJRKNS_9allocatorIZN5Acorn10Acorn_Dirt4initEvEUlRNS2_7ContextEE16_EEEEENS_5tupleIJDpOT_EEESD_, symObjAddr: 0x1E5538, symBinAddr: 0x1001E6828, symSize: 0x1F8 }
  - { offsetInCU: 0xA3AF2, offset: 0xA3AF2, size: 0x8, addend: 0x0, symName: __ZNSt3__13getB8ue170006ILm0EJRKNS_9allocatorIZN5Acorn10Acorn_Dirt4initEvEUlRNS2_7ContextEE16_EEEEERNS_13tuple_elementIXT_ENS_5tupleIJDpT0_EEEE4typeERSE_, symObjAddr: 0x1E60CC, symBinAddr: 0x1001E73BC, symSize: 0x24 }
  - { offsetInCU: 0xA3B35, offset: 0xA3B35, size: 0x8, addend: 0x0, symName: __ZNSt3__18__invokeB8ue170006IRZN5Acorn10Acorn_Dirt4initEvEUlRNS1_7ContextEE16_JS4_EEEDTclclsr3stdE7declvalIT_EEspclsr3stdE7declvalIT0_EEEEOS7_DpOS8_, symObjAddr: 0x1E61E0, symBinAddr: 0x1001E74D0, symSize: 0x2C }
  - { offsetInCU: 0xA3CE5, offset: 0xA3CE5, size: 0x8, addend: 0x0, symName: __ZNSt3__116forward_as_tupleB8ue170006IJZN5Acorn10Acorn_Dirt4initEvEUlRNS1_7ContextEE17_EEENS_5tupleIJDpOT_EEES9_, symObjAddr: 0x1E7A50, symBinAddr: 0x1001E8D40, symSize: 0x1F8 }
  - { offsetInCU: 0xA3D1F, offset: 0xA3D1F, size: 0x8, addend: 0x0, symName: __ZNSt3__116forward_as_tupleB8ue170006IJNS_9allocatorIZN5Acorn10Acorn_Dirt4initEvEUlRNS2_7ContextEE17_EEEEENS_5tupleIJDpOT_EEESB_, symObjAddr: 0x1E7C48, symBinAddr: 0x1001E8F38, symSize: 0x1F8 }
  - { offsetInCU: 0xA3D83, offset: 0xA3D83, size: 0x8, addend: 0x0, symName: __ZNSt3__13getB8ue170006ILm0EJOZN5Acorn10Acorn_Dirt4initEvEUlRNS1_7ContextEE17_EEERNS_13tuple_elementIXT_ENS_5tupleIJDpT0_EEEE4typeERSB_, symObjAddr: 0x1E8B2C, symBinAddr: 0x1001E9E1C, symSize: 0x24 }
  - { offsetInCU: 0xA3DC5, offset: 0xA3DC5, size: 0x8, addend: 0x0, symName: __ZNSt3__13getB8ue170006ILm0EJONS_9allocatorIZN5Acorn10Acorn_Dirt4initEvEUlRNS2_7ContextEE17_EEEEERNS_13tuple_elementIXT_ENS_5tupleIJDpT0_EEEE4typeERSD_, symObjAddr: 0x1E8BB0, symBinAddr: 0x1001E9EA0, symSize: 0x24 }
  - { offsetInCU: 0xA42EB, offset: 0xA42EB, size: 0x8, addend: 0x0, symName: __ZNSt3__116forward_as_tupleB8ue170006IJRKZN5Acorn10Acorn_Dirt4initEvEUlRNS1_7ContextEE17_EEENS_5tupleIJDpOT_EEESB_, symObjAddr: 0x1E9844, symBinAddr: 0x1001EAB34, symSize: 0x1F8 }
  - { offsetInCU: 0xA433A, offset: 0xA433A, size: 0x8, addend: 0x0, symName: __ZNSt3__13getB8ue170006ILm0EJRKZN5Acorn10Acorn_Dirt4initEvEUlRNS1_7ContextEE17_EEERNS_13tuple_elementIXT_ENS_5tupleIJDpT0_EEEE4typeERSC_, symObjAddr: 0x1EA3E8, symBinAddr: 0x1001EB6D8, symSize: 0x24 }
  - { offsetInCU: 0xA437C, offset: 0xA437C, size: 0x8, addend: 0x0, symName: __ZNSt3__116forward_as_tupleB8ue170006IJRKNS_9allocatorIZN5Acorn10Acorn_Dirt4initEvEUlRNS2_7ContextEE17_EEEEENS_5tupleIJDpOT_EEESD_, symObjAddr: 0x1EAB88, symBinAddr: 0x1001EBE78, symSize: 0x1F8 }
  - { offsetInCU: 0xA43CB, offset: 0xA43CB, size: 0x8, addend: 0x0, symName: __ZNSt3__13getB8ue170006ILm0EJRKNS_9allocatorIZN5Acorn10Acorn_Dirt4initEvEUlRNS2_7ContextEE17_EEEEERNS_13tuple_elementIXT_ENS_5tupleIJDpT0_EEEE4typeERSE_, symObjAddr: 0x1EB71C, symBinAddr: 0x1001ECA0C, symSize: 0x24 }
  - { offsetInCU: 0xA440E, offset: 0xA440E, size: 0x8, addend: 0x0, symName: __ZNSt3__18__invokeB8ue170006IRZN5Acorn10Acorn_Dirt4initEvEUlRNS1_7ContextEE17_JS4_EEEDTclclsr3stdE7declvalIT_EEspclsr3stdE7declvalIT0_EEEEOS7_DpOS8_, symObjAddr: 0x1EB830, symBinAddr: 0x1001ECB20, symSize: 0x2C }
  - { offsetInCU: 0xA45BE, offset: 0xA45BE, size: 0x8, addend: 0x0, symName: __ZNSt3__116forward_as_tupleB8ue170006IJZN5Acorn10Acorn_Dirt4initEvEUlRNS1_7ContextEE18_EEENS_5tupleIJDpOT_EEES9_, symObjAddr: 0x1ED078, symBinAddr: 0x1001EE368, symSize: 0x1F8 }
  - { offsetInCU: 0xA45F8, offset: 0xA45F8, size: 0x8, addend: 0x0, symName: __ZNSt3__116forward_as_tupleB8ue170006IJNS_9allocatorIZN5Acorn10Acorn_Dirt4initEvEUlRNS2_7ContextEE18_EEEEENS_5tupleIJDpOT_EEESB_, symObjAddr: 0x1ED270, symBinAddr: 0x1001EE560, symSize: 0x1F8 }
  - { offsetInCU: 0xA465C, offset: 0xA465C, size: 0x8, addend: 0x0, symName: __ZNSt3__13getB8ue170006ILm0EJOZN5Acorn10Acorn_Dirt4initEvEUlRNS1_7ContextEE18_EEERNS_13tuple_elementIXT_ENS_5tupleIJDpT0_EEEE4typeERSB_, symObjAddr: 0x1EE154, symBinAddr: 0x1001EF444, symSize: 0x24 }
  - { offsetInCU: 0xA469E, offset: 0xA469E, size: 0x8, addend: 0x0, symName: __ZNSt3__13getB8ue170006ILm0EJONS_9allocatorIZN5Acorn10Acorn_Dirt4initEvEUlRNS2_7ContextEE18_EEEEERNS_13tuple_elementIXT_ENS_5tupleIJDpT0_EEEE4typeERSD_, symObjAddr: 0x1EE1D8, symBinAddr: 0x1001EF4C8, symSize: 0x24 }
  - { offsetInCU: 0xA4BC4, offset: 0xA4BC4, size: 0x8, addend: 0x0, symName: __ZNSt3__116forward_as_tupleB8ue170006IJRKZN5Acorn10Acorn_Dirt4initEvEUlRNS1_7ContextEE18_EEENS_5tupleIJDpOT_EEESB_, symObjAddr: 0x1EEE6C, symBinAddr: 0x1001F015C, symSize: 0x1F8 }
  - { offsetInCU: 0xA4C13, offset: 0xA4C13, size: 0x8, addend: 0x0, symName: __ZNSt3__13getB8ue170006ILm0EJRKZN5Acorn10Acorn_Dirt4initEvEUlRNS1_7ContextEE18_EEERNS_13tuple_elementIXT_ENS_5tupleIJDpT0_EEEE4typeERSC_, symObjAddr: 0x1EFA10, symBinAddr: 0x1001F0D00, symSize: 0x24 }
  - { offsetInCU: 0xA4C55, offset: 0xA4C55, size: 0x8, addend: 0x0, symName: __ZNSt3__116forward_as_tupleB8ue170006IJRKNS_9allocatorIZN5Acorn10Acorn_Dirt4initEvEUlRNS2_7ContextEE18_EEEEENS_5tupleIJDpOT_EEESD_, symObjAddr: 0x1F01B0, symBinAddr: 0x1001F14A0, symSize: 0x1F8 }
  - { offsetInCU: 0xA4CA4, offset: 0xA4CA4, size: 0x8, addend: 0x0, symName: __ZNSt3__13getB8ue170006ILm0EJRKNS_9allocatorIZN5Acorn10Acorn_Dirt4initEvEUlRNS2_7ContextEE18_EEEEERNS_13tuple_elementIXT_ENS_5tupleIJDpT0_EEEE4typeERSE_, symObjAddr: 0x1F0D44, symBinAddr: 0x1001F2034, symSize: 0x24 }
  - { offsetInCU: 0xA4CE7, offset: 0xA4CE7, size: 0x8, addend: 0x0, symName: __ZNSt3__18__invokeB8ue170006IRZN5Acorn10Acorn_Dirt4initEvEUlRNS1_7ContextEE18_JS4_EEEDTclclsr3stdE7declvalIT_EEspclsr3stdE7declvalIT0_EEEEOS7_DpOS8_, symObjAddr: 0x1F0E58, symBinAddr: 0x1001F2148, symSize: 0x2C }
  - { offsetInCU: 0xA4E97, offset: 0xA4E97, size: 0x8, addend: 0x0, symName: __ZNSt3__116forward_as_tupleB8ue170006IJZN5Acorn10Acorn_Dirt4initEvEUlRNS1_7ContextEE19_EEENS_5tupleIJDpOT_EEES9_, symObjAddr: 0x1F26CC, symBinAddr: 0x1001F39BC, symSize: 0x1F8 }
  - { offsetInCU: 0xA4ED1, offset: 0xA4ED1, size: 0x8, addend: 0x0, symName: __ZNSt3__116forward_as_tupleB8ue170006IJNS_9allocatorIZN5Acorn10Acorn_Dirt4initEvEUlRNS2_7ContextEE19_EEEEENS_5tupleIJDpOT_EEESB_, symObjAddr: 0x1F28C4, symBinAddr: 0x1001F3BB4, symSize: 0x1F8 }
  - { offsetInCU: 0xA4F35, offset: 0xA4F35, size: 0x8, addend: 0x0, symName: __ZNSt3__13getB8ue170006ILm0EJOZN5Acorn10Acorn_Dirt4initEvEUlRNS1_7ContextEE19_EEERNS_13tuple_elementIXT_ENS_5tupleIJDpT0_EEEE4typeERSB_, symObjAddr: 0x1F37A8, symBinAddr: 0x1001F4A98, symSize: 0x24 }
  - { offsetInCU: 0xA4F77, offset: 0xA4F77, size: 0x8, addend: 0x0, symName: __ZNSt3__13getB8ue170006ILm0EJONS_9allocatorIZN5Acorn10Acorn_Dirt4initEvEUlRNS2_7ContextEE19_EEEEERNS_13tuple_elementIXT_ENS_5tupleIJDpT0_EEEE4typeERSD_, symObjAddr: 0x1F382C, symBinAddr: 0x1001F4B1C, symSize: 0x24 }
  - { offsetInCU: 0xA549D, offset: 0xA549D, size: 0x8, addend: 0x0, symName: __ZNSt3__116forward_as_tupleB8ue170006IJRKZN5Acorn10Acorn_Dirt4initEvEUlRNS1_7ContextEE19_EEENS_5tupleIJDpOT_EEESB_, symObjAddr: 0x1F44C0, symBinAddr: 0x1001F57B0, symSize: 0x1F8 }
  - { offsetInCU: 0xA54EC, offset: 0xA54EC, size: 0x8, addend: 0x0, symName: __ZNSt3__13getB8ue170006ILm0EJRKZN5Acorn10Acorn_Dirt4initEvEUlRNS1_7ContextEE19_EEERNS_13tuple_elementIXT_ENS_5tupleIJDpT0_EEEE4typeERSC_, symObjAddr: 0x1F5064, symBinAddr: 0x1001F6354, symSize: 0x24 }
  - { offsetInCU: 0xA552E, offset: 0xA552E, size: 0x8, addend: 0x0, symName: __ZNSt3__116forward_as_tupleB8ue170006IJRKNS_9allocatorIZN5Acorn10Acorn_Dirt4initEvEUlRNS2_7ContextEE19_EEEEENS_5tupleIJDpOT_EEESD_, symObjAddr: 0x1F5804, symBinAddr: 0x1001F6AF4, symSize: 0x1F8 }
  - { offsetInCU: 0xA557D, offset: 0xA557D, size: 0x8, addend: 0x0, symName: __ZNSt3__13getB8ue170006ILm0EJRKNS_9allocatorIZN5Acorn10Acorn_Dirt4initEvEUlRNS2_7ContextEE19_EEEEERNS_13tuple_elementIXT_ENS_5tupleIJDpT0_EEEE4typeERSE_, symObjAddr: 0x1F6398, symBinAddr: 0x1001F7688, symSize: 0x24 }
  - { offsetInCU: 0xA55C0, offset: 0xA55C0, size: 0x8, addend: 0x0, symName: __ZNSt3__18__invokeB8ue170006IRZN5Acorn10Acorn_Dirt4initEvEUlRNS1_7ContextEE19_JS4_EEEDTclclsr3stdE7declvalIT_EEspclsr3stdE7declvalIT0_EEEEOS7_DpOS8_, symObjAddr: 0x1F64AC, symBinAddr: 0x1001F779C, symSize: 0x2C }
  - { offsetInCU: 0xA5770, offset: 0xA5770, size: 0x8, addend: 0x0, symName: __ZNSt3__116forward_as_tupleB8ue170006IJZN5Acorn10Acorn_Dirt4initEvEUlRNS1_7ContextEE20_EEENS_5tupleIJDpOT_EEES9_, symObjAddr: 0x1F7D20, symBinAddr: 0x1001F9010, symSize: 0x1F8 }
  - { offsetInCU: 0xA57AA, offset: 0xA57AA, size: 0x8, addend: 0x0, symName: __ZNSt3__116forward_as_tupleB8ue170006IJNS_9allocatorIZN5Acorn10Acorn_Dirt4initEvEUlRNS2_7ContextEE20_EEEEENS_5tupleIJDpOT_EEESB_, symObjAddr: 0x1F7F18, symBinAddr: 0x1001F9208, symSize: 0x1F8 }
  - { offsetInCU: 0xA580E, offset: 0xA580E, size: 0x8, addend: 0x0, symName: __ZNSt3__13getB8ue170006ILm0EJOZN5Acorn10Acorn_Dirt4initEvEUlRNS1_7ContextEE20_EEERNS_13tuple_elementIXT_ENS_5tupleIJDpT0_EEEE4typeERSB_, symObjAddr: 0x1F8DFC, symBinAddr: 0x1001FA0EC, symSize: 0x24 }
  - { offsetInCU: 0xA5850, offset: 0xA5850, size: 0x8, addend: 0x0, symName: __ZNSt3__13getB8ue170006ILm0EJONS_9allocatorIZN5Acorn10Acorn_Dirt4initEvEUlRNS2_7ContextEE20_EEEEERNS_13tuple_elementIXT_ENS_5tupleIJDpT0_EEEE4typeERSD_, symObjAddr: 0x1F8E80, symBinAddr: 0x1001FA170, symSize: 0x24 }
  - { offsetInCU: 0xA5D76, offset: 0xA5D76, size: 0x8, addend: 0x0, symName: __ZNSt3__116forward_as_tupleB8ue170006IJRKZN5Acorn10Acorn_Dirt4initEvEUlRNS1_7ContextEE20_EEENS_5tupleIJDpOT_EEESB_, symObjAddr: 0x1F9B14, symBinAddr: 0x1001FAE04, symSize: 0x1F8 }
  - { offsetInCU: 0xA5DC5, offset: 0xA5DC5, size: 0x8, addend: 0x0, symName: __ZNSt3__13getB8ue170006ILm0EJRKZN5Acorn10Acorn_Dirt4initEvEUlRNS1_7ContextEE20_EEERNS_13tuple_elementIXT_ENS_5tupleIJDpT0_EEEE4typeERSC_, symObjAddr: 0x1FA6B8, symBinAddr: 0x1001FB9A8, symSize: 0x24 }
  - { offsetInCU: 0xA5E07, offset: 0xA5E07, size: 0x8, addend: 0x0, symName: __ZNSt3__116forward_as_tupleB8ue170006IJRKNS_9allocatorIZN5Acorn10Acorn_Dirt4initEvEUlRNS2_7ContextEE20_EEEEENS_5tupleIJDpOT_EEESD_, symObjAddr: 0x1FAE58, symBinAddr: 0x1001FC148, symSize: 0x1F8 }
  - { offsetInCU: 0xA5E56, offset: 0xA5E56, size: 0x8, addend: 0x0, symName: __ZNSt3__13getB8ue170006ILm0EJRKNS_9allocatorIZN5Acorn10Acorn_Dirt4initEvEUlRNS2_7ContextEE20_EEEEERNS_13tuple_elementIXT_ENS_5tupleIJDpT0_EEEE4typeERSE_, symObjAddr: 0x1FB9EC, symBinAddr: 0x1001FCCDC, symSize: 0x24 }
  - { offsetInCU: 0xA5E99, offset: 0xA5E99, size: 0x8, addend: 0x0, symName: __ZNSt3__18__invokeB8ue170006IRZN5Acorn10Acorn_Dirt4initEvEUlRNS1_7ContextEE20_JS4_EEEDTclclsr3stdE7declvalIT_EEspclsr3stdE7declvalIT0_EEEEOS7_DpOS8_, symObjAddr: 0x1FBB00, symBinAddr: 0x1001FCDF0, symSize: 0x2C }
  - { offsetInCU: 0xA6049, offset: 0xA6049, size: 0x8, addend: 0x0, symName: __ZNSt3__116forward_as_tupleB8ue170006IJZN5Acorn10Acorn_Dirt4initEvEUlRNS1_7ContextEE21_EEENS_5tupleIJDpOT_EEES9_, symObjAddr: 0x1FD368, symBinAddr: 0x1001FE658, symSize: 0x1F8 }
  - { offsetInCU: 0xA6083, offset: 0xA6083, size: 0x8, addend: 0x0, symName: __ZNSt3__116forward_as_tupleB8ue170006IJNS_9allocatorIZN5Acorn10Acorn_Dirt4initEvEUlRNS2_7ContextEE21_EEEEENS_5tupleIJDpOT_EEESB_, symObjAddr: 0x1FD560, symBinAddr: 0x1001FE850, symSize: 0x1F8 }
  - { offsetInCU: 0xA60E7, offset: 0xA60E7, size: 0x8, addend: 0x0, symName: __ZNSt3__13getB8ue170006ILm0EJOZN5Acorn10Acorn_Dirt4initEvEUlRNS1_7ContextEE21_EEERNS_13tuple_elementIXT_ENS_5tupleIJDpT0_EEEE4typeERSB_, symObjAddr: 0x1FE444, symBinAddr: 0x1001FF734, symSize: 0x24 }
  - { offsetInCU: 0xA6129, offset: 0xA6129, size: 0x8, addend: 0x0, symName: __ZNSt3__13getB8ue170006ILm0EJONS_9allocatorIZN5Acorn10Acorn_Dirt4initEvEUlRNS2_7ContextEE21_EEEEERNS_13tuple_elementIXT_ENS_5tupleIJDpT0_EEEE4typeERSD_, symObjAddr: 0x1FE4C8, symBinAddr: 0x1001FF7B8, symSize: 0x24 }
  - { offsetInCU: 0xA664F, offset: 0xA664F, size: 0x8, addend: 0x0, symName: __ZNSt3__116forward_as_tupleB8ue170006IJRKZN5Acorn10Acorn_Dirt4initEvEUlRNS1_7ContextEE21_EEENS_5tupleIJDpOT_EEESB_, symObjAddr: 0x1FF15C, symBinAddr: 0x10020044C, symSize: 0x1F8 }
  - { offsetInCU: 0xA669E, offset: 0xA669E, size: 0x8, addend: 0x0, symName: __ZNSt3__13getB8ue170006ILm0EJRKZN5Acorn10Acorn_Dirt4initEvEUlRNS1_7ContextEE21_EEERNS_13tuple_elementIXT_ENS_5tupleIJDpT0_EEEE4typeERSC_, symObjAddr: 0x1FFD00, symBinAddr: 0x100200FF0, symSize: 0x24 }
  - { offsetInCU: 0xA66E0, offset: 0xA66E0, size: 0x8, addend: 0x0, symName: __ZNSt3__116forward_as_tupleB8ue170006IJRKNS_9allocatorIZN5Acorn10Acorn_Dirt4initEvEUlRNS2_7ContextEE21_EEEEENS_5tupleIJDpOT_EEESD_, symObjAddr: 0x2004A0, symBinAddr: 0x100201790, symSize: 0x1F8 }
  - { offsetInCU: 0xA672F, offset: 0xA672F, size: 0x8, addend: 0x0, symName: __ZNSt3__13getB8ue170006ILm0EJRKNS_9allocatorIZN5Acorn10Acorn_Dirt4initEvEUlRNS2_7ContextEE21_EEEEERNS_13tuple_elementIXT_ENS_5tupleIJDpT0_EEEE4typeERSE_, symObjAddr: 0x201034, symBinAddr: 0x100202324, symSize: 0x24 }
  - { offsetInCU: 0xA6772, offset: 0xA6772, size: 0x8, addend: 0x0, symName: __ZNSt3__18__invokeB8ue170006IRZN5Acorn10Acorn_Dirt4initEvEUlRNS1_7ContextEE21_JS4_EEEDTclclsr3stdE7declvalIT_EEspclsr3stdE7declvalIT0_EEEEOS7_DpOS8_, symObjAddr: 0x201148, symBinAddr: 0x100202438, symSize: 0x2C }
  - { offsetInCU: 0xA6922, offset: 0xA6922, size: 0x8, addend: 0x0, symName: __ZNSt3__116forward_as_tupleB8ue170006IJZN5Acorn10Acorn_Dirt4initEvEUlRNS1_7ContextEE22_EEENS_5tupleIJDpOT_EEES9_, symObjAddr: 0x2029B4, symBinAddr: 0x100203CA4, symSize: 0x1F8 }
  - { offsetInCU: 0xA695C, offset: 0xA695C, size: 0x8, addend: 0x0, symName: __ZNSt3__116forward_as_tupleB8ue170006IJNS_9allocatorIZN5Acorn10Acorn_Dirt4initEvEUlRNS2_7ContextEE22_EEEEENS_5tupleIJDpOT_EEESB_, symObjAddr: 0x202BAC, symBinAddr: 0x100203E9C, symSize: 0x1F8 }
  - { offsetInCU: 0xA69C0, offset: 0xA69C0, size: 0x8, addend: 0x0, symName: __ZNSt3__13getB8ue170006ILm0EJOZN5Acorn10Acorn_Dirt4initEvEUlRNS1_7ContextEE22_EEERNS_13tuple_elementIXT_ENS_5tupleIJDpT0_EEEE4typeERSB_, symObjAddr: 0x203A90, symBinAddr: 0x100204D80, symSize: 0x24 }
  - { offsetInCU: 0xA6A02, offset: 0xA6A02, size: 0x8, addend: 0x0, symName: __ZNSt3__13getB8ue170006ILm0EJONS_9allocatorIZN5Acorn10Acorn_Dirt4initEvEUlRNS2_7ContextEE22_EEEEERNS_13tuple_elementIXT_ENS_5tupleIJDpT0_EEEE4typeERSD_, symObjAddr: 0x203B14, symBinAddr: 0x100204E04, symSize: 0x24 }
  - { offsetInCU: 0xA6F28, offset: 0xA6F28, size: 0x8, addend: 0x0, symName: __ZNSt3__116forward_as_tupleB8ue170006IJRKZN5Acorn10Acorn_Dirt4initEvEUlRNS1_7ContextEE22_EEENS_5tupleIJDpOT_EEESB_, symObjAddr: 0x2047A8, symBinAddr: 0x100205A98, symSize: 0x1F8 }
  - { offsetInCU: 0xA6F77, offset: 0xA6F77, size: 0x8, addend: 0x0, symName: __ZNSt3__13getB8ue170006ILm0EJRKZN5Acorn10Acorn_Dirt4initEvEUlRNS1_7ContextEE22_EEERNS_13tuple_elementIXT_ENS_5tupleIJDpT0_EEEE4typeERSC_, symObjAddr: 0x20534C, symBinAddr: 0x10020663C, symSize: 0x24 }
  - { offsetInCU: 0xA6FB9, offset: 0xA6FB9, size: 0x8, addend: 0x0, symName: __ZNSt3__116forward_as_tupleB8ue170006IJRKNS_9allocatorIZN5Acorn10Acorn_Dirt4initEvEUlRNS2_7ContextEE22_EEEEENS_5tupleIJDpOT_EEESD_, symObjAddr: 0x205AEC, symBinAddr: 0x100206DDC, symSize: 0x1F8 }
  - { offsetInCU: 0xA7008, offset: 0xA7008, size: 0x8, addend: 0x0, symName: __ZNSt3__13getB8ue170006ILm0EJRKNS_9allocatorIZN5Acorn10Acorn_Dirt4initEvEUlRNS2_7ContextEE22_EEEEERNS_13tuple_elementIXT_ENS_5tupleIJDpT0_EEEE4typeERSE_, symObjAddr: 0x206680, symBinAddr: 0x100207970, symSize: 0x24 }
  - { offsetInCU: 0xA704B, offset: 0xA704B, size: 0x8, addend: 0x0, symName: __ZNSt3__18__invokeB8ue170006IRZN5Acorn10Acorn_Dirt4initEvEUlRNS1_7ContextEE22_JS4_EEEDTclclsr3stdE7declvalIT_EEspclsr3stdE7declvalIT0_EEEEOS7_DpOS8_, symObjAddr: 0x206794, symBinAddr: 0x100207A84, symSize: 0x2C }
  - { offsetInCU: 0xA71FB, offset: 0xA71FB, size: 0x8, addend: 0x0, symName: __ZNSt3__116forward_as_tupleB8ue170006IJZN5Acorn10Acorn_Dirt4initEvEUlRNS1_7ContextEE23_EEENS_5tupleIJDpOT_EEES9_, symObjAddr: 0x207FEC, symBinAddr: 0x1002092DC, symSize: 0x1F8 }
  - { offsetInCU: 0xA7235, offset: 0xA7235, size: 0x8, addend: 0x0, symName: __ZNSt3__116forward_as_tupleB8ue170006IJNS_9allocatorIZN5Acorn10Acorn_Dirt4initEvEUlRNS2_7ContextEE23_EEEEENS_5tupleIJDpOT_EEESB_, symObjAddr: 0x2081E4, symBinAddr: 0x1002094D4, symSize: 0x1F8 }
  - { offsetInCU: 0xA7299, offset: 0xA7299, size: 0x8, addend: 0x0, symName: __ZNSt3__13getB8ue170006ILm0EJOZN5Acorn10Acorn_Dirt4initEvEUlRNS1_7ContextEE23_EEERNS_13tuple_elementIXT_ENS_5tupleIJDpT0_EEEE4typeERSB_, symObjAddr: 0x2090C8, symBinAddr: 0x10020A3B8, symSize: 0x24 }
  - { offsetInCU: 0xA72DB, offset: 0xA72DB, size: 0x8, addend: 0x0, symName: __ZNSt3__13getB8ue170006ILm0EJONS_9allocatorIZN5Acorn10Acorn_Dirt4initEvEUlRNS2_7ContextEE23_EEEEERNS_13tuple_elementIXT_ENS_5tupleIJDpT0_EEEE4typeERSD_, symObjAddr: 0x20914C, symBinAddr: 0x10020A43C, symSize: 0x24 }
  - { offsetInCU: 0xA7801, offset: 0xA7801, size: 0x8, addend: 0x0, symName: __ZNSt3__116forward_as_tupleB8ue170006IJRKZN5Acorn10Acorn_Dirt4initEvEUlRNS1_7ContextEE23_EEENS_5tupleIJDpOT_EEESB_, symObjAddr: 0x209DE0, symBinAddr: 0x10020B0D0, symSize: 0x1F8 }
  - { offsetInCU: 0xA7850, offset: 0xA7850, size: 0x8, addend: 0x0, symName: __ZNSt3__13getB8ue170006ILm0EJRKZN5Acorn10Acorn_Dirt4initEvEUlRNS1_7ContextEE23_EEERNS_13tuple_elementIXT_ENS_5tupleIJDpT0_EEEE4typeERSC_, symObjAddr: 0x20A984, symBinAddr: 0x10020BC74, symSize: 0x24 }
  - { offsetInCU: 0xA7892, offset: 0xA7892, size: 0x8, addend: 0x0, symName: __ZNSt3__116forward_as_tupleB8ue170006IJRKNS_9allocatorIZN5Acorn10Acorn_Dirt4initEvEUlRNS2_7ContextEE23_EEEEENS_5tupleIJDpOT_EEESD_, symObjAddr: 0x20B124, symBinAddr: 0x10020C414, symSize: 0x1F8 }
  - { offsetInCU: 0xA78E1, offset: 0xA78E1, size: 0x8, addend: 0x0, symName: __ZNSt3__13getB8ue170006ILm0EJRKNS_9allocatorIZN5Acorn10Acorn_Dirt4initEvEUlRNS2_7ContextEE23_EEEEERNS_13tuple_elementIXT_ENS_5tupleIJDpT0_EEEE4typeERSE_, symObjAddr: 0x20BCB8, symBinAddr: 0x10020CFA8, symSize: 0x24 }
  - { offsetInCU: 0xA7924, offset: 0xA7924, size: 0x8, addend: 0x0, symName: __ZNSt3__18__invokeB8ue170006IRZN5Acorn10Acorn_Dirt4initEvEUlRNS1_7ContextEE23_JS4_EEEDTclclsr3stdE7declvalIT_EEspclsr3stdE7declvalIT0_EEEEOS7_DpOS8_, symObjAddr: 0x20BDCC, symBinAddr: 0x10020D0BC, symSize: 0x2C }
  - { offsetInCU: 0xA7AD4, offset: 0xA7AD4, size: 0x8, addend: 0x0, symName: __ZNSt3__116forward_as_tupleB8ue170006IJZN5Acorn10Acorn_Dirt4initEvEUlRNS1_7ContextEE24_EEENS_5tupleIJDpOT_EEES9_, symObjAddr: 0x20D650, symBinAddr: 0x10020E940, symSize: 0x1F8 }
  - { offsetInCU: 0xA7B0E, offset: 0xA7B0E, size: 0x8, addend: 0x0, symName: __ZNSt3__116forward_as_tupleB8ue170006IJNS_9allocatorIZN5Acorn10Acorn_Dirt4initEvEUlRNS2_7ContextEE24_EEEEENS_5tupleIJDpOT_EEESB_, symObjAddr: 0x20D848, symBinAddr: 0x10020EB38, symSize: 0x1F8 }
  - { offsetInCU: 0xA7B72, offset: 0xA7B72, size: 0x8, addend: 0x0, symName: __ZNSt3__13getB8ue170006ILm0EJOZN5Acorn10Acorn_Dirt4initEvEUlRNS1_7ContextEE24_EEERNS_13tuple_elementIXT_ENS_5tupleIJDpT0_EEEE4typeERSB_, symObjAddr: 0x20E72C, symBinAddr: 0x10020FA1C, symSize: 0x24 }
  - { offsetInCU: 0xA7BB4, offset: 0xA7BB4, size: 0x8, addend: 0x0, symName: __ZNSt3__13getB8ue170006ILm0EJONS_9allocatorIZN5Acorn10Acorn_Dirt4initEvEUlRNS2_7ContextEE24_EEEEERNS_13tuple_elementIXT_ENS_5tupleIJDpT0_EEEE4typeERSD_, symObjAddr: 0x20E7B0, symBinAddr: 0x10020FAA0, symSize: 0x24 }
  - { offsetInCU: 0xA80DA, offset: 0xA80DA, size: 0x8, addend: 0x0, symName: __ZNSt3__116forward_as_tupleB8ue170006IJRKZN5Acorn10Acorn_Dirt4initEvEUlRNS1_7ContextEE24_EEENS_5tupleIJDpOT_EEESB_, symObjAddr: 0x20F444, symBinAddr: 0x100210734, symSize: 0x1F8 }
  - { offsetInCU: 0xA8129, offset: 0xA8129, size: 0x8, addend: 0x0, symName: __ZNSt3__13getB8ue170006ILm0EJRKZN5Acorn10Acorn_Dirt4initEvEUlRNS1_7ContextEE24_EEERNS_13tuple_elementIXT_ENS_5tupleIJDpT0_EEEE4typeERSC_, symObjAddr: 0x20FFE8, symBinAddr: 0x1002112D8, symSize: 0x24 }
  - { offsetInCU: 0xA816B, offset: 0xA816B, size: 0x8, addend: 0x0, symName: __ZNSt3__116forward_as_tupleB8ue170006IJRKNS_9allocatorIZN5Acorn10Acorn_Dirt4initEvEUlRNS2_7ContextEE24_EEEEENS_5tupleIJDpOT_EEESD_, symObjAddr: 0x210788, symBinAddr: 0x100211A78, symSize: 0x1F8 }
  - { offsetInCU: 0xA81BA, offset: 0xA81BA, size: 0x8, addend: 0x0, symName: __ZNSt3__13getB8ue170006ILm0EJRKNS_9allocatorIZN5Acorn10Acorn_Dirt4initEvEUlRNS2_7ContextEE24_EEEEERNS_13tuple_elementIXT_ENS_5tupleIJDpT0_EEEE4typeERSE_, symObjAddr: 0x21131C, symBinAddr: 0x10021260C, symSize: 0x24 }
  - { offsetInCU: 0xA81FD, offset: 0xA81FD, size: 0x8, addend: 0x0, symName: __ZNSt3__18__invokeB8ue170006IRZN5Acorn10Acorn_Dirt4initEvEUlRNS1_7ContextEE24_JS4_EEEDTclclsr3stdE7declvalIT_EEspclsr3stdE7declvalIT0_EEEEOS7_DpOS8_, symObjAddr: 0x211430, symBinAddr: 0x100212720, symSize: 0x2C }
  - { offsetInCU: 0xA83AD, offset: 0xA83AD, size: 0x8, addend: 0x0, symName: __ZNSt3__116forward_as_tupleB8ue170006IJZN5Acorn10Acorn_Dirt4initEvEUlRNS1_7ContextEE25_EEENS_5tupleIJDpOT_EEES9_, symObjAddr: 0x212CAC, symBinAddr: 0x100213F9C, symSize: 0x1F8 }
  - { offsetInCU: 0xA83E7, offset: 0xA83E7, size: 0x8, addend: 0x0, symName: __ZNSt3__116forward_as_tupleB8ue170006IJNS_9allocatorIZN5Acorn10Acorn_Dirt4initEvEUlRNS2_7ContextEE25_EEEEENS_5tupleIJDpOT_EEESB_, symObjAddr: 0x212EA4, symBinAddr: 0x100214194, symSize: 0x1F8 }
  - { offsetInCU: 0xA844B, offset: 0xA844B, size: 0x8, addend: 0x0, symName: __ZNSt3__13getB8ue170006ILm0EJOZN5Acorn10Acorn_Dirt4initEvEUlRNS1_7ContextEE25_EEERNS_13tuple_elementIXT_ENS_5tupleIJDpT0_EEEE4typeERSB_, symObjAddr: 0x213D88, symBinAddr: 0x100215078, symSize: 0x24 }
  - { offsetInCU: 0xA848D, offset: 0xA848D, size: 0x8, addend: 0x0, symName: __ZNSt3__13getB8ue170006ILm0EJONS_9allocatorIZN5Acorn10Acorn_Dirt4initEvEUlRNS2_7ContextEE25_EEEEERNS_13tuple_elementIXT_ENS_5tupleIJDpT0_EEEE4typeERSD_, symObjAddr: 0x213E0C, symBinAddr: 0x1002150FC, symSize: 0x24 }
  - { offsetInCU: 0xA89B3, offset: 0xA89B3, size: 0x8, addend: 0x0, symName: __ZNSt3__116forward_as_tupleB8ue170006IJRKZN5Acorn10Acorn_Dirt4initEvEUlRNS1_7ContextEE25_EEENS_5tupleIJDpOT_EEESB_, symObjAddr: 0x214AA0, symBinAddr: 0x100215D90, symSize: 0x1F8 }
  - { offsetInCU: 0xA8A02, offset: 0xA8A02, size: 0x8, addend: 0x0, symName: __ZNSt3__13getB8ue170006ILm0EJRKZN5Acorn10Acorn_Dirt4initEvEUlRNS1_7ContextEE25_EEERNS_13tuple_elementIXT_ENS_5tupleIJDpT0_EEEE4typeERSC_, symObjAddr: 0x215644, symBinAddr: 0x100216934, symSize: 0x24 }
  - { offsetInCU: 0xA8A44, offset: 0xA8A44, size: 0x8, addend: 0x0, symName: __ZNSt3__116forward_as_tupleB8ue170006IJRKNS_9allocatorIZN5Acorn10Acorn_Dirt4initEvEUlRNS2_7ContextEE25_EEEEENS_5tupleIJDpOT_EEESD_, symObjAddr: 0x215DE4, symBinAddr: 0x1002170D4, symSize: 0x1F8 }
  - { offsetInCU: 0xA8A93, offset: 0xA8A93, size: 0x8, addend: 0x0, symName: __ZNSt3__13getB8ue170006ILm0EJRKNS_9allocatorIZN5Acorn10Acorn_Dirt4initEvEUlRNS2_7ContextEE25_EEEEERNS_13tuple_elementIXT_ENS_5tupleIJDpT0_EEEE4typeERSE_, symObjAddr: 0x216978, symBinAddr: 0x100217C68, symSize: 0x24 }
  - { offsetInCU: 0xA8AD6, offset: 0xA8AD6, size: 0x8, addend: 0x0, symName: __ZNSt3__18__invokeB8ue170006IRZN5Acorn10Acorn_Dirt4initEvEUlRNS1_7ContextEE25_JS4_EEEDTclclsr3stdE7declvalIT_EEspclsr3stdE7declvalIT0_EEEEOS7_DpOS8_, symObjAddr: 0x216A8C, symBinAddr: 0x100217D7C, symSize: 0x2C }
  - { offsetInCU: 0xA8C86, offset: 0xA8C86, size: 0x8, addend: 0x0, symName: __ZNSt3__116forward_as_tupleB8ue170006IJZN5Acorn10Acorn_Dirt4initEvEUlRNS1_7ContextEE26_EEENS_5tupleIJDpOT_EEES9_, symObjAddr: 0x2182C4, symBinAddr: 0x1002195B4, symSize: 0x1F8 }
  - { offsetInCU: 0xA8CC0, offset: 0xA8CC0, size: 0x8, addend: 0x0, symName: __ZNSt3__116forward_as_tupleB8ue170006IJNS_9allocatorIZN5Acorn10Acorn_Dirt4initEvEUlRNS2_7ContextEE26_EEEEENS_5tupleIJDpOT_EEESB_, symObjAddr: 0x2184BC, symBinAddr: 0x1002197AC, symSize: 0x1F8 }
  - { offsetInCU: 0xA8D24, offset: 0xA8D24, size: 0x8, addend: 0x0, symName: __ZNSt3__13getB8ue170006ILm0EJOZN5Acorn10Acorn_Dirt4initEvEUlRNS1_7ContextEE26_EEERNS_13tuple_elementIXT_ENS_5tupleIJDpT0_EEEE4typeERSB_, symObjAddr: 0x2193A0, symBinAddr: 0x10021A690, symSize: 0x24 }
  - { offsetInCU: 0xA8D66, offset: 0xA8D66, size: 0x8, addend: 0x0, symName: __ZNSt3__13getB8ue170006ILm0EJONS_9allocatorIZN5Acorn10Acorn_Dirt4initEvEUlRNS2_7ContextEE26_EEEEERNS_13tuple_elementIXT_ENS_5tupleIJDpT0_EEEE4typeERSD_, symObjAddr: 0x219424, symBinAddr: 0x10021A714, symSize: 0x24 }
  - { offsetInCU: 0xA928C, offset: 0xA928C, size: 0x8, addend: 0x0, symName: __ZNSt3__116forward_as_tupleB8ue170006IJRKZN5Acorn10Acorn_Dirt4initEvEUlRNS1_7ContextEE26_EEENS_5tupleIJDpOT_EEESB_, symObjAddr: 0x21A0B8, symBinAddr: 0x10021B3A8, symSize: 0x1F8 }
  - { offsetInCU: 0xA92DB, offset: 0xA92DB, size: 0x8, addend: 0x0, symName: __ZNSt3__13getB8ue170006ILm0EJRKZN5Acorn10Acorn_Dirt4initEvEUlRNS1_7ContextEE26_EEERNS_13tuple_elementIXT_ENS_5tupleIJDpT0_EEEE4typeERSC_, symObjAddr: 0x21AC5C, symBinAddr: 0x10021BF4C, symSize: 0x24 }
  - { offsetInCU: 0xA931D, offset: 0xA931D, size: 0x8, addend: 0x0, symName: __ZNSt3__116forward_as_tupleB8ue170006IJRKNS_9allocatorIZN5Acorn10Acorn_Dirt4initEvEUlRNS2_7ContextEE26_EEEEENS_5tupleIJDpOT_EEESD_, symObjAddr: 0x21B3FC, symBinAddr: 0x10021C6EC, symSize: 0x1F8 }
  - { offsetInCU: 0xA936C, offset: 0xA936C, size: 0x8, addend: 0x0, symName: __ZNSt3__13getB8ue170006ILm0EJRKNS_9allocatorIZN5Acorn10Acorn_Dirt4initEvEUlRNS2_7ContextEE26_EEEEERNS_13tuple_elementIXT_ENS_5tupleIJDpT0_EEEE4typeERSE_, symObjAddr: 0x21BF90, symBinAddr: 0x10021D280, symSize: 0x24 }
  - { offsetInCU: 0xA93AF, offset: 0xA93AF, size: 0x8, addend: 0x0, symName: __ZNSt3__18__invokeB8ue170006IRZN5Acorn10Acorn_Dirt4initEvEUlRNS1_7ContextEE26_JS4_EEEDTclclsr3stdE7declvalIT_EEspclsr3stdE7declvalIT0_EEEEOS7_DpOS8_, symObjAddr: 0x21C0A4, symBinAddr: 0x10021D394, symSize: 0x2C }
  - { offsetInCU: 0xA955F, offset: 0xA955F, size: 0x8, addend: 0x0, symName: __ZNSt3__116forward_as_tupleB8ue170006IJZN5Acorn10Acorn_Dirt4initEvEUlRNS1_7ContextEE27_EEENS_5tupleIJDpOT_EEES9_, symObjAddr: 0x21D8D8, symBinAddr: 0x10021EBC8, symSize: 0x1F8 }
  - { offsetInCU: 0xA9599, offset: 0xA9599, size: 0x8, addend: 0x0, symName: __ZNSt3__116forward_as_tupleB8ue170006IJNS_9allocatorIZN5Acorn10Acorn_Dirt4initEvEUlRNS2_7ContextEE27_EEEEENS_5tupleIJDpOT_EEESB_, symObjAddr: 0x21DAD0, symBinAddr: 0x10021EDC0, symSize: 0x1F8 }
  - { offsetInCU: 0xA95FD, offset: 0xA95FD, size: 0x8, addend: 0x0, symName: __ZNSt3__13getB8ue170006ILm0EJOZN5Acorn10Acorn_Dirt4initEvEUlRNS1_7ContextEE27_EEERNS_13tuple_elementIXT_ENS_5tupleIJDpT0_EEEE4typeERSB_, symObjAddr: 0x21E9B4, symBinAddr: 0x10021FCA4, symSize: 0x24 }
  - { offsetInCU: 0xA963F, offset: 0xA963F, size: 0x8, addend: 0x0, symName: __ZNSt3__13getB8ue170006ILm0EJONS_9allocatorIZN5Acorn10Acorn_Dirt4initEvEUlRNS2_7ContextEE27_EEEEERNS_13tuple_elementIXT_ENS_5tupleIJDpT0_EEEE4typeERSD_, symObjAddr: 0x21EA38, symBinAddr: 0x10021FD28, symSize: 0x24 }
  - { offsetInCU: 0xA9B65, offset: 0xA9B65, size: 0x8, addend: 0x0, symName: __ZNSt3__116forward_as_tupleB8ue170006IJRKZN5Acorn10Acorn_Dirt4initEvEUlRNS1_7ContextEE27_EEENS_5tupleIJDpOT_EEESB_, symObjAddr: 0x21F6CC, symBinAddr: 0x1002209BC, symSize: 0x1F8 }
  - { offsetInCU: 0xA9BB4, offset: 0xA9BB4, size: 0x8, addend: 0x0, symName: __ZNSt3__13getB8ue170006ILm0EJRKZN5Acorn10Acorn_Dirt4initEvEUlRNS1_7ContextEE27_EEERNS_13tuple_elementIXT_ENS_5tupleIJDpT0_EEEE4typeERSC_, symObjAddr: 0x220270, symBinAddr: 0x100221560, symSize: 0x24 }
  - { offsetInCU: 0xA9BF6, offset: 0xA9BF6, size: 0x8, addend: 0x0, symName: __ZNSt3__116forward_as_tupleB8ue170006IJRKNS_9allocatorIZN5Acorn10Acorn_Dirt4initEvEUlRNS2_7ContextEE27_EEEEENS_5tupleIJDpOT_EEESD_, symObjAddr: 0x220A10, symBinAddr: 0x100221D00, symSize: 0x1F8 }
  - { offsetInCU: 0xA9C45, offset: 0xA9C45, size: 0x8, addend: 0x0, symName: __ZNSt3__13getB8ue170006ILm0EJRKNS_9allocatorIZN5Acorn10Acorn_Dirt4initEvEUlRNS2_7ContextEE27_EEEEERNS_13tuple_elementIXT_ENS_5tupleIJDpT0_EEEE4typeERSE_, symObjAddr: 0x2215A4, symBinAddr: 0x100222894, symSize: 0x24 }
  - { offsetInCU: 0xA9C88, offset: 0xA9C88, size: 0x8, addend: 0x0, symName: __ZNSt3__18__invokeB8ue170006IRZN5Acorn10Acorn_Dirt4initEvEUlRNS1_7ContextEE27_JS4_EEEDTclclsr3stdE7declvalIT_EEspclsr3stdE7declvalIT0_EEEEOS7_DpOS8_, symObjAddr: 0x2216B8, symBinAddr: 0x1002229A8, symSize: 0x2C }
  - { offsetInCU: 0xA9E38, offset: 0xA9E38, size: 0x8, addend: 0x0, symName: __ZNSt3__116forward_as_tupleB8ue170006IJZN5Acorn10Acorn_Dirt4initEvEUlRNS1_7ContextEE28_EEENS_5tupleIJDpOT_EEES9_, symObjAddr: 0x222EA4, symBinAddr: 0x100224194, symSize: 0x1F8 }
  - { offsetInCU: 0xA9E72, offset: 0xA9E72, size: 0x8, addend: 0x0, symName: __ZNSt3__116forward_as_tupleB8ue170006IJNS_9allocatorIZN5Acorn10Acorn_Dirt4initEvEUlRNS2_7ContextEE28_EEEEENS_5tupleIJDpOT_EEESB_, symObjAddr: 0x22309C, symBinAddr: 0x10022438C, symSize: 0x1F8 }
  - { offsetInCU: 0xA9ED6, offset: 0xA9ED6, size: 0x8, addend: 0x0, symName: __ZNSt3__13getB8ue170006ILm0EJOZN5Acorn10Acorn_Dirt4initEvEUlRNS1_7ContextEE28_EEERNS_13tuple_elementIXT_ENS_5tupleIJDpT0_EEEE4typeERSB_, symObjAddr: 0x223F80, symBinAddr: 0x100225270, symSize: 0x24 }
  - { offsetInCU: 0xA9F18, offset: 0xA9F18, size: 0x8, addend: 0x0, symName: __ZNSt3__13getB8ue170006ILm0EJONS_9allocatorIZN5Acorn10Acorn_Dirt4initEvEUlRNS2_7ContextEE28_EEEEERNS_13tuple_elementIXT_ENS_5tupleIJDpT0_EEEE4typeERSD_, symObjAddr: 0x224004, symBinAddr: 0x1002252F4, symSize: 0x24 }
  - { offsetInCU: 0xAA43E, offset: 0xAA43E, size: 0x8, addend: 0x0, symName: __ZNSt3__116forward_as_tupleB8ue170006IJRKZN5Acorn10Acorn_Dirt4initEvEUlRNS1_7ContextEE28_EEENS_5tupleIJDpOT_EEESB_, symObjAddr: 0x224C98, symBinAddr: 0x100225F88, symSize: 0x1F8 }
  - { offsetInCU: 0xAA48D, offset: 0xAA48D, size: 0x8, addend: 0x0, symName: __ZNSt3__13getB8ue170006ILm0EJRKZN5Acorn10Acorn_Dirt4initEvEUlRNS1_7ContextEE28_EEERNS_13tuple_elementIXT_ENS_5tupleIJDpT0_EEEE4typeERSC_, symObjAddr: 0x22583C, symBinAddr: 0x100226B2C, symSize: 0x24 }
  - { offsetInCU: 0xAA4CF, offset: 0xAA4CF, size: 0x8, addend: 0x0, symName: __ZNSt3__116forward_as_tupleB8ue170006IJRKNS_9allocatorIZN5Acorn10Acorn_Dirt4initEvEUlRNS2_7ContextEE28_EEEEENS_5tupleIJDpOT_EEESD_, symObjAddr: 0x225FDC, symBinAddr: 0x1002272CC, symSize: 0x1F8 }
  - { offsetInCU: 0xAA51E, offset: 0xAA51E, size: 0x8, addend: 0x0, symName: __ZNSt3__13getB8ue170006ILm0EJRKNS_9allocatorIZN5Acorn10Acorn_Dirt4initEvEUlRNS2_7ContextEE28_EEEEERNS_13tuple_elementIXT_ENS_5tupleIJDpT0_EEEE4typeERSE_, symObjAddr: 0x226B70, symBinAddr: 0x100227E60, symSize: 0x24 }
  - { offsetInCU: 0xAA561, offset: 0xAA561, size: 0x8, addend: 0x0, symName: __ZNSt3__18__invokeB8ue170006IRZN5Acorn10Acorn_Dirt4initEvEUlRNS1_7ContextEE28_JS4_EEEDTclclsr3stdE7declvalIT_EEspclsr3stdE7declvalIT0_EEEEOS7_DpOS8_, symObjAddr: 0x226C84, symBinAddr: 0x100227F74, symSize: 0x2C }
  - { offsetInCU: 0xAA711, offset: 0xAA711, size: 0x8, addend: 0x0, symName: __ZNSt3__116forward_as_tupleB8ue170006IJZN5Acorn10Acorn_Dirt4initEvEUlRNS1_7ContextEE29_EEENS_5tupleIJDpOT_EEES9_, symObjAddr: 0x22847C, symBinAddr: 0x10022976C, symSize: 0x1F8 }
  - { offsetInCU: 0xAA74B, offset: 0xAA74B, size: 0x8, addend: 0x0, symName: __ZNSt3__116forward_as_tupleB8ue170006IJNS_9allocatorIZN5Acorn10Acorn_Dirt4initEvEUlRNS2_7ContextEE29_EEEEENS_5tupleIJDpOT_EEESB_, symObjAddr: 0x228674, symBinAddr: 0x100229964, symSize: 0x1F8 }
  - { offsetInCU: 0xAA7AF, offset: 0xAA7AF, size: 0x8, addend: 0x0, symName: __ZNSt3__13getB8ue170006ILm0EJOZN5Acorn10Acorn_Dirt4initEvEUlRNS1_7ContextEE29_EEERNS_13tuple_elementIXT_ENS_5tupleIJDpT0_EEEE4typeERSB_, symObjAddr: 0x229558, symBinAddr: 0x10022A848, symSize: 0x24 }
  - { offsetInCU: 0xAA7F1, offset: 0xAA7F1, size: 0x8, addend: 0x0, symName: __ZNSt3__13getB8ue170006ILm0EJONS_9allocatorIZN5Acorn10Acorn_Dirt4initEvEUlRNS2_7ContextEE29_EEEEERNS_13tuple_elementIXT_ENS_5tupleIJDpT0_EEEE4typeERSD_, symObjAddr: 0x2295DC, symBinAddr: 0x10022A8CC, symSize: 0x24 }
  - { offsetInCU: 0xAAD17, offset: 0xAAD17, size: 0x8, addend: 0x0, symName: __ZNSt3__116forward_as_tupleB8ue170006IJRKZN5Acorn10Acorn_Dirt4initEvEUlRNS1_7ContextEE29_EEENS_5tupleIJDpOT_EEESB_, symObjAddr: 0x22A270, symBinAddr: 0x10022B560, symSize: 0x1F8 }
  - { offsetInCU: 0xAAD66, offset: 0xAAD66, size: 0x8, addend: 0x0, symName: __ZNSt3__13getB8ue170006ILm0EJRKZN5Acorn10Acorn_Dirt4initEvEUlRNS1_7ContextEE29_EEERNS_13tuple_elementIXT_ENS_5tupleIJDpT0_EEEE4typeERSC_, symObjAddr: 0x22AE14, symBinAddr: 0x10022C104, symSize: 0x24 }
  - { offsetInCU: 0xAADA8, offset: 0xAADA8, size: 0x8, addend: 0x0, symName: __ZNSt3__116forward_as_tupleB8ue170006IJRKNS_9allocatorIZN5Acorn10Acorn_Dirt4initEvEUlRNS2_7ContextEE29_EEEEENS_5tupleIJDpOT_EEESD_, symObjAddr: 0x22B5B4, symBinAddr: 0x10022C8A4, symSize: 0x1F8 }
  - { offsetInCU: 0xAADF7, offset: 0xAADF7, size: 0x8, addend: 0x0, symName: __ZNSt3__13getB8ue170006ILm0EJRKNS_9allocatorIZN5Acorn10Acorn_Dirt4initEvEUlRNS2_7ContextEE29_EEEEERNS_13tuple_elementIXT_ENS_5tupleIJDpT0_EEEE4typeERSE_, symObjAddr: 0x22C148, symBinAddr: 0x10022D438, symSize: 0x24 }
  - { offsetInCU: 0xAAE3A, offset: 0xAAE3A, size: 0x8, addend: 0x0, symName: __ZNSt3__18__invokeB8ue170006IRZN5Acorn10Acorn_Dirt4initEvEUlRNS1_7ContextEE29_JS4_EEEDTclclsr3stdE7declvalIT_EEspclsr3stdE7declvalIT0_EEEEOS7_DpOS8_, symObjAddr: 0x22C25C, symBinAddr: 0x10022D54C, symSize: 0x2C }
  - { offsetInCU: 0xAAFEA, offset: 0xAAFEA, size: 0x8, addend: 0x0, symName: __ZNSt3__116forward_as_tupleB8ue170006IJZN5Acorn10Acorn_Dirt4initEvEUlRNS1_7ContextEE30_EEENS_5tupleIJDpOT_EEES9_, symObjAddr: 0x22DA5C, symBinAddr: 0x10022ED4C, symSize: 0x1F8 }
  - { offsetInCU: 0xAB024, offset: 0xAB024, size: 0x8, addend: 0x0, symName: __ZNSt3__116forward_as_tupleB8ue170006IJNS_9allocatorIZN5Acorn10Acorn_Dirt4initEvEUlRNS2_7ContextEE30_EEEEENS_5tupleIJDpOT_EEESB_, symObjAddr: 0x22DC54, symBinAddr: 0x10022EF44, symSize: 0x1F8 }
  - { offsetInCU: 0xAB088, offset: 0xAB088, size: 0x8, addend: 0x0, symName: __ZNSt3__13getB8ue170006ILm0EJOZN5Acorn10Acorn_Dirt4initEvEUlRNS1_7ContextEE30_EEERNS_13tuple_elementIXT_ENS_5tupleIJDpT0_EEEE4typeERSB_, symObjAddr: 0x22EB38, symBinAddr: 0x10022FE28, symSize: 0x24 }
  - { offsetInCU: 0xAB0CA, offset: 0xAB0CA, size: 0x8, addend: 0x0, symName: __ZNSt3__13getB8ue170006ILm0EJONS_9allocatorIZN5Acorn10Acorn_Dirt4initEvEUlRNS2_7ContextEE30_EEEEERNS_13tuple_elementIXT_ENS_5tupleIJDpT0_EEEE4typeERSD_, symObjAddr: 0x22EBBC, symBinAddr: 0x10022FEAC, symSize: 0x24 }
  - { offsetInCU: 0xAB5F0, offset: 0xAB5F0, size: 0x8, addend: 0x0, symName: __ZNSt3__116forward_as_tupleB8ue170006IJRKZN5Acorn10Acorn_Dirt4initEvEUlRNS1_7ContextEE30_EEENS_5tupleIJDpOT_EEESB_, symObjAddr: 0x22F850, symBinAddr: 0x100230B40, symSize: 0x1F8 }
  - { offsetInCU: 0xAB63F, offset: 0xAB63F, size: 0x8, addend: 0x0, symName: __ZNSt3__13getB8ue170006ILm0EJRKZN5Acorn10Acorn_Dirt4initEvEUlRNS1_7ContextEE30_EEERNS_13tuple_elementIXT_ENS_5tupleIJDpT0_EEEE4typeERSC_, symObjAddr: 0x2303F4, symBinAddr: 0x1002316E4, symSize: 0x24 }
  - { offsetInCU: 0xAB681, offset: 0xAB681, size: 0x8, addend: 0x0, symName: __ZNSt3__116forward_as_tupleB8ue170006IJRKNS_9allocatorIZN5Acorn10Acorn_Dirt4initEvEUlRNS2_7ContextEE30_EEEEENS_5tupleIJDpOT_EEESD_, symObjAddr: 0x230B94, symBinAddr: 0x100231E84, symSize: 0x1F8 }
  - { offsetInCU: 0xAB6D0, offset: 0xAB6D0, size: 0x8, addend: 0x0, symName: __ZNSt3__13getB8ue170006ILm0EJRKNS_9allocatorIZN5Acorn10Acorn_Dirt4initEvEUlRNS2_7ContextEE30_EEEEERNS_13tuple_elementIXT_ENS_5tupleIJDpT0_EEEE4typeERSE_, symObjAddr: 0x231728, symBinAddr: 0x100232A18, symSize: 0x24 }
  - { offsetInCU: 0xAB713, offset: 0xAB713, size: 0x8, addend: 0x0, symName: __ZNSt3__18__invokeB8ue170006IRZN5Acorn10Acorn_Dirt4initEvEUlRNS1_7ContextEE30_JS4_EEEDTclclsr3stdE7declvalIT_EEspclsr3stdE7declvalIT0_EEEEOS7_DpOS8_, symObjAddr: 0x23183C, symBinAddr: 0x100232B2C, symSize: 0x2C }
  - { offsetInCU: 0xAB8C3, offset: 0xAB8C3, size: 0x8, addend: 0x0, symName: __ZNSt3__116forward_as_tupleB8ue170006IJZN5Acorn10Acorn_Dirt4initEvEUlRNS1_7ContextEE31_EEENS_5tupleIJDpOT_EEES9_, symObjAddr: 0x2330AC, symBinAddr: 0x10023439C, symSize: 0x1F8 }
  - { offsetInCU: 0xAB8FD, offset: 0xAB8FD, size: 0x8, addend: 0x0, symName: __ZNSt3__116forward_as_tupleB8ue170006IJNS_9allocatorIZN5Acorn10Acorn_Dirt4initEvEUlRNS2_7ContextEE31_EEEEENS_5tupleIJDpOT_EEESB_, symObjAddr: 0x2332A4, symBinAddr: 0x100234594, symSize: 0x1F8 }
  - { offsetInCU: 0xAB961, offset: 0xAB961, size: 0x8, addend: 0x0, symName: __ZNSt3__13getB8ue170006ILm0EJOZN5Acorn10Acorn_Dirt4initEvEUlRNS1_7ContextEE31_EEERNS_13tuple_elementIXT_ENS_5tupleIJDpT0_EEEE4typeERSB_, symObjAddr: 0x234188, symBinAddr: 0x100235478, symSize: 0x24 }
  - { offsetInCU: 0xAB9A3, offset: 0xAB9A3, size: 0x8, addend: 0x0, symName: __ZNSt3__13getB8ue170006ILm0EJONS_9allocatorIZN5Acorn10Acorn_Dirt4initEvEUlRNS2_7ContextEE31_EEEEERNS_13tuple_elementIXT_ENS_5tupleIJDpT0_EEEE4typeERSD_, symObjAddr: 0x23420C, symBinAddr: 0x1002354FC, symSize: 0x24 }
  - { offsetInCU: 0xABEC9, offset: 0xABEC9, size: 0x8, addend: 0x0, symName: __ZNSt3__116forward_as_tupleB8ue170006IJRKZN5Acorn10Acorn_Dirt4initEvEUlRNS1_7ContextEE31_EEENS_5tupleIJDpOT_EEESB_, symObjAddr: 0x234EA0, symBinAddr: 0x100236190, symSize: 0x1F8 }
  - { offsetInCU: 0xABF18, offset: 0xABF18, size: 0x8, addend: 0x0, symName: __ZNSt3__13getB8ue170006ILm0EJRKZN5Acorn10Acorn_Dirt4initEvEUlRNS1_7ContextEE31_EEERNS_13tuple_elementIXT_ENS_5tupleIJDpT0_EEEE4typeERSC_, symObjAddr: 0x235A44, symBinAddr: 0x100236D34, symSize: 0x24 }
  - { offsetInCU: 0xABF5A, offset: 0xABF5A, size: 0x8, addend: 0x0, symName: __ZNSt3__116forward_as_tupleB8ue170006IJRKNS_9allocatorIZN5Acorn10Acorn_Dirt4initEvEUlRNS2_7ContextEE31_EEEEENS_5tupleIJDpOT_EEESD_, symObjAddr: 0x2361E4, symBinAddr: 0x1002374D4, symSize: 0x1F8 }
  - { offsetInCU: 0xABFA9, offset: 0xABFA9, size: 0x8, addend: 0x0, symName: __ZNSt3__13getB8ue170006ILm0EJRKNS_9allocatorIZN5Acorn10Acorn_Dirt4initEvEUlRNS2_7ContextEE31_EEEEERNS_13tuple_elementIXT_ENS_5tupleIJDpT0_EEEE4typeERSE_, symObjAddr: 0x236D78, symBinAddr: 0x100238068, symSize: 0x24 }
  - { offsetInCU: 0xABFEC, offset: 0xABFEC, size: 0x8, addend: 0x0, symName: __ZNSt3__18__invokeB8ue170006IRZN5Acorn10Acorn_Dirt4initEvEUlRNS1_7ContextEE31_JS4_EEEDTclclsr3stdE7declvalIT_EEspclsr3stdE7declvalIT0_EEEEOS7_DpOS8_, symObjAddr: 0x236E8C, symBinAddr: 0x10023817C, symSize: 0x2C }
  - { offsetInCU: 0xAC19C, offset: 0xAC19C, size: 0x8, addend: 0x0, symName: __ZNSt3__116forward_as_tupleB8ue170006IJZN5Acorn10Acorn_Dirt4initEvEUlRNS1_7ContextEE32_EEENS_5tupleIJDpOT_EEES9_, symObjAddr: 0x2386C8, symBinAddr: 0x1002399B8, symSize: 0x1F8 }
  - { offsetInCU: 0xAC1D6, offset: 0xAC1D6, size: 0x8, addend: 0x0, symName: __ZNSt3__116forward_as_tupleB8ue170006IJNS_9allocatorIZN5Acorn10Acorn_Dirt4initEvEUlRNS2_7ContextEE32_EEEEENS_5tupleIJDpOT_EEESB_, symObjAddr: 0x2388C0, symBinAddr: 0x100239BB0, symSize: 0x1F8 }
  - { offsetInCU: 0xAC23A, offset: 0xAC23A, size: 0x8, addend: 0x0, symName: __ZNSt3__13getB8ue170006ILm0EJOZN5Acorn10Acorn_Dirt4initEvEUlRNS1_7ContextEE32_EEERNS_13tuple_elementIXT_ENS_5tupleIJDpT0_EEEE4typeERSB_, symObjAddr: 0x2397A4, symBinAddr: 0x10023AA94, symSize: 0x24 }
  - { offsetInCU: 0xAC27C, offset: 0xAC27C, size: 0x8, addend: 0x0, symName: __ZNSt3__13getB8ue170006ILm0EJONS_9allocatorIZN5Acorn10Acorn_Dirt4initEvEUlRNS2_7ContextEE32_EEEEERNS_13tuple_elementIXT_ENS_5tupleIJDpT0_EEEE4typeERSD_, symObjAddr: 0x239828, symBinAddr: 0x10023AB18, symSize: 0x24 }
  - { offsetInCU: 0xAC7A2, offset: 0xAC7A2, size: 0x8, addend: 0x0, symName: __ZNSt3__116forward_as_tupleB8ue170006IJRKZN5Acorn10Acorn_Dirt4initEvEUlRNS1_7ContextEE32_EEENS_5tupleIJDpOT_EEESB_, symObjAddr: 0x23A4BC, symBinAddr: 0x10023B7AC, symSize: 0x1F8 }
  - { offsetInCU: 0xAC7F1, offset: 0xAC7F1, size: 0x8, addend: 0x0, symName: __ZNSt3__13getB8ue170006ILm0EJRKZN5Acorn10Acorn_Dirt4initEvEUlRNS1_7ContextEE32_EEERNS_13tuple_elementIXT_ENS_5tupleIJDpT0_EEEE4typeERSC_, symObjAddr: 0x23B060, symBinAddr: 0x10023C350, symSize: 0x24 }
  - { offsetInCU: 0xAC833, offset: 0xAC833, size: 0x8, addend: 0x0, symName: __ZNSt3__116forward_as_tupleB8ue170006IJRKNS_9allocatorIZN5Acorn10Acorn_Dirt4initEvEUlRNS2_7ContextEE32_EEEEENS_5tupleIJDpOT_EEESD_, symObjAddr: 0x23B800, symBinAddr: 0x10023CAF0, symSize: 0x1F8 }
  - { offsetInCU: 0xAC882, offset: 0xAC882, size: 0x8, addend: 0x0, symName: __ZNSt3__13getB8ue170006ILm0EJRKNS_9allocatorIZN5Acorn10Acorn_Dirt4initEvEUlRNS2_7ContextEE32_EEEEERNS_13tuple_elementIXT_ENS_5tupleIJDpT0_EEEE4typeERSE_, symObjAddr: 0x23C394, symBinAddr: 0x10023D684, symSize: 0x24 }
  - { offsetInCU: 0xAC8C5, offset: 0xAC8C5, size: 0x8, addend: 0x0, symName: __ZNSt3__18__invokeB8ue170006IRZN5Acorn10Acorn_Dirt4initEvEUlRNS1_7ContextEE32_JS4_EEEDTclclsr3stdE7declvalIT_EEspclsr3stdE7declvalIT0_EEEEOS7_DpOS8_, symObjAddr: 0x23C4A8, symBinAddr: 0x10023D798, symSize: 0x2C }
  - { offsetInCU: 0xACA75, offset: 0xACA75, size: 0x8, addend: 0x0, symName: __ZNSt3__116forward_as_tupleB8ue170006IJZN5Acorn10Acorn_Dirt4initEvEUlRNS1_7ContextEE33_EEENS_5tupleIJDpOT_EEES9_, symObjAddr: 0x23DCE4, symBinAddr: 0x10023EFD4, symSize: 0x1F8 }
  - { offsetInCU: 0xACAAF, offset: 0xACAAF, size: 0x8, addend: 0x0, symName: __ZNSt3__116forward_as_tupleB8ue170006IJNS_9allocatorIZN5Acorn10Acorn_Dirt4initEvEUlRNS2_7ContextEE33_EEEEENS_5tupleIJDpOT_EEESB_, symObjAddr: 0x23DEDC, symBinAddr: 0x10023F1CC, symSize: 0x1F8 }
  - { offsetInCU: 0xACB13, offset: 0xACB13, size: 0x8, addend: 0x0, symName: __ZNSt3__13getB8ue170006ILm0EJOZN5Acorn10Acorn_Dirt4initEvEUlRNS1_7ContextEE33_EEERNS_13tuple_elementIXT_ENS_5tupleIJDpT0_EEEE4typeERSB_, symObjAddr: 0x23EDC0, symBinAddr: 0x1002400B0, symSize: 0x24 }
  - { offsetInCU: 0xACB55, offset: 0xACB55, size: 0x8, addend: 0x0, symName: __ZNSt3__13getB8ue170006ILm0EJONS_9allocatorIZN5Acorn10Acorn_Dirt4initEvEUlRNS2_7ContextEE33_EEEEERNS_13tuple_elementIXT_ENS_5tupleIJDpT0_EEEE4typeERSD_, symObjAddr: 0x23EE44, symBinAddr: 0x100240134, symSize: 0x24 }
  - { offsetInCU: 0xAD07B, offset: 0xAD07B, size: 0x8, addend: 0x0, symName: __ZNSt3__116forward_as_tupleB8ue170006IJRKZN5Acorn10Acorn_Dirt4initEvEUlRNS1_7ContextEE33_EEENS_5tupleIJDpOT_EEESB_, symObjAddr: 0x23FAD8, symBinAddr: 0x100240DC8, symSize: 0x1F8 }
  - { offsetInCU: 0xAD0CA, offset: 0xAD0CA, size: 0x8, addend: 0x0, symName: __ZNSt3__13getB8ue170006ILm0EJRKZN5Acorn10Acorn_Dirt4initEvEUlRNS1_7ContextEE33_EEERNS_13tuple_elementIXT_ENS_5tupleIJDpT0_EEEE4typeERSC_, symObjAddr: 0x24067C, symBinAddr: 0x10024196C, symSize: 0x24 }
  - { offsetInCU: 0xAD10C, offset: 0xAD10C, size: 0x8, addend: 0x0, symName: __ZNSt3__116forward_as_tupleB8ue170006IJRKNS_9allocatorIZN5Acorn10Acorn_Dirt4initEvEUlRNS2_7ContextEE33_EEEEENS_5tupleIJDpOT_EEESD_, symObjAddr: 0x240E1C, symBinAddr: 0x10024210C, symSize: 0x1F8 }
  - { offsetInCU: 0xAD15B, offset: 0xAD15B, size: 0x8, addend: 0x0, symName: __ZNSt3__13getB8ue170006ILm0EJRKNS_9allocatorIZN5Acorn10Acorn_Dirt4initEvEUlRNS2_7ContextEE33_EEEEERNS_13tuple_elementIXT_ENS_5tupleIJDpT0_EEEE4typeERSE_, symObjAddr: 0x2419B0, symBinAddr: 0x100242CA0, symSize: 0x24 }
  - { offsetInCU: 0xAD19E, offset: 0xAD19E, size: 0x8, addend: 0x0, symName: __ZNSt3__18__invokeB8ue170006IRZN5Acorn10Acorn_Dirt4initEvEUlRNS1_7ContextEE33_JS4_EEEDTclclsr3stdE7declvalIT_EEspclsr3stdE7declvalIT0_EEEEOS7_DpOS8_, symObjAddr: 0x241AC4, symBinAddr: 0x100242DB4, symSize: 0x2C }
  - { offsetInCU: 0xAD34E, offset: 0xAD34E, size: 0x8, addend: 0x0, symName: __ZNSt3__116forward_as_tupleB8ue170006IJZN5Acorn10Acorn_Dirt4initEvEUlRNS1_7ContextEE34_EEENS_5tupleIJDpOT_EEES9_, symObjAddr: 0x243300, symBinAddr: 0x1002445F0, symSize: 0x1F8 }
  - { offsetInCU: 0xAD388, offset: 0xAD388, size: 0x8, addend: 0x0, symName: __ZNSt3__116forward_as_tupleB8ue170006IJNS_9allocatorIZN5Acorn10Acorn_Dirt4initEvEUlRNS2_7ContextEE34_EEEEENS_5tupleIJDpOT_EEESB_, symObjAddr: 0x2434F8, symBinAddr: 0x1002447E8, symSize: 0x1F8 }
  - { offsetInCU: 0xAD3EC, offset: 0xAD3EC, size: 0x8, addend: 0x0, symName: __ZNSt3__13getB8ue170006ILm0EJOZN5Acorn10Acorn_Dirt4initEvEUlRNS1_7ContextEE34_EEERNS_13tuple_elementIXT_ENS_5tupleIJDpT0_EEEE4typeERSB_, symObjAddr: 0x2443DC, symBinAddr: 0x1002456CC, symSize: 0x24 }
  - { offsetInCU: 0xAD42E, offset: 0xAD42E, size: 0x8, addend: 0x0, symName: __ZNSt3__13getB8ue170006ILm0EJONS_9allocatorIZN5Acorn10Acorn_Dirt4initEvEUlRNS2_7ContextEE34_EEEEERNS_13tuple_elementIXT_ENS_5tupleIJDpT0_EEEE4typeERSD_, symObjAddr: 0x244460, symBinAddr: 0x100245750, symSize: 0x24 }
  - { offsetInCU: 0xAD954, offset: 0xAD954, size: 0x8, addend: 0x0, symName: __ZNSt3__116forward_as_tupleB8ue170006IJRKZN5Acorn10Acorn_Dirt4initEvEUlRNS1_7ContextEE34_EEENS_5tupleIJDpOT_EEESB_, symObjAddr: 0x2450F4, symBinAddr: 0x1002463E4, symSize: 0x1F8 }
  - { offsetInCU: 0xAD9A3, offset: 0xAD9A3, size: 0x8, addend: 0x0, symName: __ZNSt3__13getB8ue170006ILm0EJRKZN5Acorn10Acorn_Dirt4initEvEUlRNS1_7ContextEE34_EEERNS_13tuple_elementIXT_ENS_5tupleIJDpT0_EEEE4typeERSC_, symObjAddr: 0x245C98, symBinAddr: 0x100246F88, symSize: 0x24 }
  - { offsetInCU: 0xAD9E5, offset: 0xAD9E5, size: 0x8, addend: 0x0, symName: __ZNSt3__116forward_as_tupleB8ue170006IJRKNS_9allocatorIZN5Acorn10Acorn_Dirt4initEvEUlRNS2_7ContextEE34_EEEEENS_5tupleIJDpOT_EEESD_, symObjAddr: 0x246438, symBinAddr: 0x100247728, symSize: 0x1F8 }
  - { offsetInCU: 0xADA34, offset: 0xADA34, size: 0x8, addend: 0x0, symName: __ZNSt3__13getB8ue170006ILm0EJRKNS_9allocatorIZN5Acorn10Acorn_Dirt4initEvEUlRNS2_7ContextEE34_EEEEERNS_13tuple_elementIXT_ENS_5tupleIJDpT0_EEEE4typeERSE_, symObjAddr: 0x246FCC, symBinAddr: 0x1002482BC, symSize: 0x24 }
  - { offsetInCU: 0xADA77, offset: 0xADA77, size: 0x8, addend: 0x0, symName: __ZNSt3__18__invokeB8ue170006IRZN5Acorn10Acorn_Dirt4initEvEUlRNS1_7ContextEE34_JS4_EEEDTclclsr3stdE7declvalIT_EEspclsr3stdE7declvalIT0_EEEEOS7_DpOS8_, symObjAddr: 0x2470E0, symBinAddr: 0x1002483D0, symSize: 0x2C }
  - { offsetInCU: 0xADC27, offset: 0xADC27, size: 0x8, addend: 0x0, symName: __ZNSt3__116forward_as_tupleB8ue170006IJZN5Acorn10Acorn_Dirt4initEvEUlRNS1_7ContextEE35_EEENS_5tupleIJDpOT_EEES9_, symObjAddr: 0x24891C, symBinAddr: 0x100249C0C, symSize: 0x1F8 }
  - { offsetInCU: 0xADC61, offset: 0xADC61, size: 0x8, addend: 0x0, symName: __ZNSt3__116forward_as_tupleB8ue170006IJNS_9allocatorIZN5Acorn10Acorn_Dirt4initEvEUlRNS2_7ContextEE35_EEEEENS_5tupleIJDpOT_EEESB_, symObjAddr: 0x248B14, symBinAddr: 0x100249E04, symSize: 0x1F8 }
  - { offsetInCU: 0xADCC5, offset: 0xADCC5, size: 0x8, addend: 0x0, symName: __ZNSt3__13getB8ue170006ILm0EJOZN5Acorn10Acorn_Dirt4initEvEUlRNS1_7ContextEE35_EEERNS_13tuple_elementIXT_ENS_5tupleIJDpT0_EEEE4typeERSB_, symObjAddr: 0x2499F8, symBinAddr: 0x10024ACE8, symSize: 0x24 }
  - { offsetInCU: 0xADD07, offset: 0xADD07, size: 0x8, addend: 0x0, symName: __ZNSt3__13getB8ue170006ILm0EJONS_9allocatorIZN5Acorn10Acorn_Dirt4initEvEUlRNS2_7ContextEE35_EEEEERNS_13tuple_elementIXT_ENS_5tupleIJDpT0_EEEE4typeERSD_, symObjAddr: 0x249A7C, symBinAddr: 0x10024AD6C, symSize: 0x24 }
  - { offsetInCU: 0xAE22D, offset: 0xAE22D, size: 0x8, addend: 0x0, symName: __ZNSt3__116forward_as_tupleB8ue170006IJRKZN5Acorn10Acorn_Dirt4initEvEUlRNS1_7ContextEE35_EEENS_5tupleIJDpOT_EEESB_, symObjAddr: 0x24A710, symBinAddr: 0x10024BA00, symSize: 0x1F8 }
  - { offsetInCU: 0xAE27C, offset: 0xAE27C, size: 0x8, addend: 0x0, symName: __ZNSt3__13getB8ue170006ILm0EJRKZN5Acorn10Acorn_Dirt4initEvEUlRNS1_7ContextEE35_EEERNS_13tuple_elementIXT_ENS_5tupleIJDpT0_EEEE4typeERSC_, symObjAddr: 0x24B2B4, symBinAddr: 0x10024C5A4, symSize: 0x24 }
  - { offsetInCU: 0xAE2BE, offset: 0xAE2BE, size: 0x8, addend: 0x0, symName: __ZNSt3__116forward_as_tupleB8ue170006IJRKNS_9allocatorIZN5Acorn10Acorn_Dirt4initEvEUlRNS2_7ContextEE35_EEEEENS_5tupleIJDpOT_EEESD_, symObjAddr: 0x24BA54, symBinAddr: 0x10024CD44, symSize: 0x1F8 }
  - { offsetInCU: 0xAE30D, offset: 0xAE30D, size: 0x8, addend: 0x0, symName: __ZNSt3__13getB8ue170006ILm0EJRKNS_9allocatorIZN5Acorn10Acorn_Dirt4initEvEUlRNS2_7ContextEE35_EEEEERNS_13tuple_elementIXT_ENS_5tupleIJDpT0_EEEE4typeERSE_, symObjAddr: 0x24C5E8, symBinAddr: 0x10024D8D8, symSize: 0x24 }
  - { offsetInCU: 0xAE350, offset: 0xAE350, size: 0x8, addend: 0x0, symName: __ZNSt3__18__invokeB8ue170006IRZN5Acorn10Acorn_Dirt4initEvEUlRNS1_7ContextEE35_JS4_EEEDTclclsr3stdE7declvalIT_EEspclsr3stdE7declvalIT0_EEEEOS7_DpOS8_, symObjAddr: 0x24C6FC, symBinAddr: 0x10024D9EC, symSize: 0x2C }
  - { offsetInCU: 0xAE500, offset: 0xAE500, size: 0x8, addend: 0x0, symName: __ZNSt3__116forward_as_tupleB8ue170006IJZN5Acorn10Acorn_Dirt4initEvEUlRNS1_7ContextEE36_EEENS_5tupleIJDpOT_EEES9_, symObjAddr: 0x24DF38, symBinAddr: 0x10024F228, symSize: 0x1F8 }
  - { offsetInCU: 0xAE53A, offset: 0xAE53A, size: 0x8, addend: 0x0, symName: __ZNSt3__116forward_as_tupleB8ue170006IJNS_9allocatorIZN5Acorn10Acorn_Dirt4initEvEUlRNS2_7ContextEE36_EEEEENS_5tupleIJDpOT_EEESB_, symObjAddr: 0x24E130, symBinAddr: 0x10024F420, symSize: 0x1F8 }
  - { offsetInCU: 0xAE59E, offset: 0xAE59E, size: 0x8, addend: 0x0, symName: __ZNSt3__13getB8ue170006ILm0EJOZN5Acorn10Acorn_Dirt4initEvEUlRNS1_7ContextEE36_EEERNS_13tuple_elementIXT_ENS_5tupleIJDpT0_EEEE4typeERSB_, symObjAddr: 0x24F014, symBinAddr: 0x100250304, symSize: 0x24 }
  - { offsetInCU: 0xAE5E0, offset: 0xAE5E0, size: 0x8, addend: 0x0, symName: __ZNSt3__13getB8ue170006ILm0EJONS_9allocatorIZN5Acorn10Acorn_Dirt4initEvEUlRNS2_7ContextEE36_EEEEERNS_13tuple_elementIXT_ENS_5tupleIJDpT0_EEEE4typeERSD_, symObjAddr: 0x24F098, symBinAddr: 0x100250388, symSize: 0x24 }
  - { offsetInCU: 0xAEB06, offset: 0xAEB06, size: 0x8, addend: 0x0, symName: __ZNSt3__116forward_as_tupleB8ue170006IJRKZN5Acorn10Acorn_Dirt4initEvEUlRNS1_7ContextEE36_EEENS_5tupleIJDpOT_EEESB_, symObjAddr: 0x24FD2C, symBinAddr: 0x10025101C, symSize: 0x1F8 }
  - { offsetInCU: 0xAEB55, offset: 0xAEB55, size: 0x8, addend: 0x0, symName: __ZNSt3__13getB8ue170006ILm0EJRKZN5Acorn10Acorn_Dirt4initEvEUlRNS1_7ContextEE36_EEERNS_13tuple_elementIXT_ENS_5tupleIJDpT0_EEEE4typeERSC_, symObjAddr: 0x2508D0, symBinAddr: 0x100251BC0, symSize: 0x24 }
  - { offsetInCU: 0xAEB97, offset: 0xAEB97, size: 0x8, addend: 0x0, symName: __ZNSt3__116forward_as_tupleB8ue170006IJRKNS_9allocatorIZN5Acorn10Acorn_Dirt4initEvEUlRNS2_7ContextEE36_EEEEENS_5tupleIJDpOT_EEESD_, symObjAddr: 0x251070, symBinAddr: 0x100252360, symSize: 0x1F8 }
  - { offsetInCU: 0xAEBE6, offset: 0xAEBE6, size: 0x8, addend: 0x0, symName: __ZNSt3__13getB8ue170006ILm0EJRKNS_9allocatorIZN5Acorn10Acorn_Dirt4initEvEUlRNS2_7ContextEE36_EEEEERNS_13tuple_elementIXT_ENS_5tupleIJDpT0_EEEE4typeERSE_, symObjAddr: 0x251C04, symBinAddr: 0x100252EF4, symSize: 0x24 }
  - { offsetInCU: 0xAEC29, offset: 0xAEC29, size: 0x8, addend: 0x0, symName: __ZNSt3__18__invokeB8ue170006IRZN5Acorn10Acorn_Dirt4initEvEUlRNS1_7ContextEE36_JS4_EEEDTclclsr3stdE7declvalIT_EEspclsr3stdE7declvalIT0_EEEEOS7_DpOS8_, symObjAddr: 0x251D18, symBinAddr: 0x100253008, symSize: 0x2C }
  - { offsetInCU: 0xAEDD9, offset: 0xAEDD9, size: 0x8, addend: 0x0, symName: __ZNSt3__116forward_as_tupleB8ue170006IJZN5Acorn10Acorn_Dirt4initEvEUlRNS1_7ContextEE37_EEENS_5tupleIJDpOT_EEES9_, symObjAddr: 0x2535A0, symBinAddr: 0x100254890, symSize: 0x1F8 }
  - { offsetInCU: 0xAEE13, offset: 0xAEE13, size: 0x8, addend: 0x0, symName: __ZNSt3__116forward_as_tupleB8ue170006IJNS_9allocatorIZN5Acorn10Acorn_Dirt4initEvEUlRNS2_7ContextEE37_EEEEENS_5tupleIJDpOT_EEESB_, symObjAddr: 0x253798, symBinAddr: 0x100254A88, symSize: 0x1F8 }
  - { offsetInCU: 0xAEE77, offset: 0xAEE77, size: 0x8, addend: 0x0, symName: __ZNSt3__13getB8ue170006ILm0EJOZN5Acorn10Acorn_Dirt4initEvEUlRNS1_7ContextEE37_EEERNS_13tuple_elementIXT_ENS_5tupleIJDpT0_EEEE4typeERSB_, symObjAddr: 0x25467C, symBinAddr: 0x10025596C, symSize: 0x24 }
  - { offsetInCU: 0xAEEB9, offset: 0xAEEB9, size: 0x8, addend: 0x0, symName: __ZNSt3__13getB8ue170006ILm0EJONS_9allocatorIZN5Acorn10Acorn_Dirt4initEvEUlRNS2_7ContextEE37_EEEEERNS_13tuple_elementIXT_ENS_5tupleIJDpT0_EEEE4typeERSD_, symObjAddr: 0x254700, symBinAddr: 0x1002559F0, symSize: 0x24 }
  - { offsetInCU: 0xAF3DF, offset: 0xAF3DF, size: 0x8, addend: 0x0, symName: __ZNSt3__116forward_as_tupleB8ue170006IJRKZN5Acorn10Acorn_Dirt4initEvEUlRNS1_7ContextEE37_EEENS_5tupleIJDpOT_EEESB_, symObjAddr: 0x255394, symBinAddr: 0x100256684, symSize: 0x1F8 }
  - { offsetInCU: 0xAF42E, offset: 0xAF42E, size: 0x8, addend: 0x0, symName: __ZNSt3__13getB8ue170006ILm0EJRKZN5Acorn10Acorn_Dirt4initEvEUlRNS1_7ContextEE37_EEERNS_13tuple_elementIXT_ENS_5tupleIJDpT0_EEEE4typeERSC_, symObjAddr: 0x255F38, symBinAddr: 0x100257228, symSize: 0x24 }
  - { offsetInCU: 0xAF470, offset: 0xAF470, size: 0x8, addend: 0x0, symName: __ZNSt3__116forward_as_tupleB8ue170006IJRKNS_9allocatorIZN5Acorn10Acorn_Dirt4initEvEUlRNS2_7ContextEE37_EEEEENS_5tupleIJDpOT_EEESD_, symObjAddr: 0x2566D8, symBinAddr: 0x1002579C8, symSize: 0x1F8 }
  - { offsetInCU: 0xAF4BF, offset: 0xAF4BF, size: 0x8, addend: 0x0, symName: __ZNSt3__13getB8ue170006ILm0EJRKNS_9allocatorIZN5Acorn10Acorn_Dirt4initEvEUlRNS2_7ContextEE37_EEEEERNS_13tuple_elementIXT_ENS_5tupleIJDpT0_EEEE4typeERSE_, symObjAddr: 0x25726C, symBinAddr: 0x10025855C, symSize: 0x24 }
  - { offsetInCU: 0xAF502, offset: 0xAF502, size: 0x8, addend: 0x0, symName: __ZNSt3__18__invokeB8ue170006IRZN5Acorn10Acorn_Dirt4initEvEUlRNS1_7ContextEE37_JS4_EEEDTclclsr3stdE7declvalIT_EEspclsr3stdE7declvalIT0_EEEEOS7_DpOS8_, symObjAddr: 0x257380, symBinAddr: 0x100258670, symSize: 0x2C }
  - { offsetInCU: 0xAF6B2, offset: 0xAF6B2, size: 0x8, addend: 0x0, symName: __ZNSt3__116forward_as_tupleB8ue170006IJZN5Acorn10Acorn_Dirt4initEvEUlRNS1_7ContextEE38_EEENS_5tupleIJDpOT_EEES9_, symObjAddr: 0x258BBC, symBinAddr: 0x100259EAC, symSize: 0x1F8 }
  - { offsetInCU: 0xAF6EC, offset: 0xAF6EC, size: 0x8, addend: 0x0, symName: __ZNSt3__116forward_as_tupleB8ue170006IJNS_9allocatorIZN5Acorn10Acorn_Dirt4initEvEUlRNS2_7ContextEE38_EEEEENS_5tupleIJDpOT_EEESB_, symObjAddr: 0x258DB4, symBinAddr: 0x10025A0A4, symSize: 0x1F8 }
  - { offsetInCU: 0xAF750, offset: 0xAF750, size: 0x8, addend: 0x0, symName: __ZNSt3__13getB8ue170006ILm0EJOZN5Acorn10Acorn_Dirt4initEvEUlRNS1_7ContextEE38_EEERNS_13tuple_elementIXT_ENS_5tupleIJDpT0_EEEE4typeERSB_, symObjAddr: 0x259C98, symBinAddr: 0x10025AF88, symSize: 0x24 }
  - { offsetInCU: 0xAF792, offset: 0xAF792, size: 0x8, addend: 0x0, symName: __ZNSt3__13getB8ue170006ILm0EJONS_9allocatorIZN5Acorn10Acorn_Dirt4initEvEUlRNS2_7ContextEE38_EEEEERNS_13tuple_elementIXT_ENS_5tupleIJDpT0_EEEE4typeERSD_, symObjAddr: 0x259D1C, symBinAddr: 0x10025B00C, symSize: 0x24 }
  - { offsetInCU: 0xAFCB8, offset: 0xAFCB8, size: 0x8, addend: 0x0, symName: __ZNSt3__116forward_as_tupleB8ue170006IJRKZN5Acorn10Acorn_Dirt4initEvEUlRNS1_7ContextEE38_EEENS_5tupleIJDpOT_EEESB_, symObjAddr: 0x25A9B0, symBinAddr: 0x10025BCA0, symSize: 0x1F8 }
  - { offsetInCU: 0xAFD07, offset: 0xAFD07, size: 0x8, addend: 0x0, symName: __ZNSt3__13getB8ue170006ILm0EJRKZN5Acorn10Acorn_Dirt4initEvEUlRNS1_7ContextEE38_EEERNS_13tuple_elementIXT_ENS_5tupleIJDpT0_EEEE4typeERSC_, symObjAddr: 0x25B554, symBinAddr: 0x10025C844, symSize: 0x24 }
  - { offsetInCU: 0xAFD49, offset: 0xAFD49, size: 0x8, addend: 0x0, symName: __ZNSt3__116forward_as_tupleB8ue170006IJRKNS_9allocatorIZN5Acorn10Acorn_Dirt4initEvEUlRNS2_7ContextEE38_EEEEENS_5tupleIJDpOT_EEESD_, symObjAddr: 0x25BCF4, symBinAddr: 0x10025CFE4, symSize: 0x1F8 }
  - { offsetInCU: 0xAFD98, offset: 0xAFD98, size: 0x8, addend: 0x0, symName: __ZNSt3__13getB8ue170006ILm0EJRKNS_9allocatorIZN5Acorn10Acorn_Dirt4initEvEUlRNS2_7ContextEE38_EEEEERNS_13tuple_elementIXT_ENS_5tupleIJDpT0_EEEE4typeERSE_, symObjAddr: 0x25C888, symBinAddr: 0x10025DB78, symSize: 0x24 }
  - { offsetInCU: 0xAFDDB, offset: 0xAFDDB, size: 0x8, addend: 0x0, symName: __ZNSt3__18__invokeB8ue170006IRZN5Acorn10Acorn_Dirt4initEvEUlRNS1_7ContextEE38_JS4_EEEDTclclsr3stdE7declvalIT_EEspclsr3stdE7declvalIT0_EEEEOS7_DpOS8_, symObjAddr: 0x25C99C, symBinAddr: 0x10025DC8C, symSize: 0x2C }
  - { offsetInCU: 0xAFF8B, offset: 0xAFF8B, size: 0x8, addend: 0x0, symName: __ZNSt3__116forward_as_tupleB8ue170006IJZN5Acorn10Acorn_Dirt4initEvEUlRNS1_7ContextEE39_EEENS_5tupleIJDpOT_EEES9_, symObjAddr: 0x25E1D8, symBinAddr: 0x10025F4C8, symSize: 0x1F8 }
  - { offsetInCU: 0xAFFC5, offset: 0xAFFC5, size: 0x8, addend: 0x0, symName: __ZNSt3__116forward_as_tupleB8ue170006IJNS_9allocatorIZN5Acorn10Acorn_Dirt4initEvEUlRNS2_7ContextEE39_EEEEENS_5tupleIJDpOT_EEESB_, symObjAddr: 0x25E3D0, symBinAddr: 0x10025F6C0, symSize: 0x1F8 }
  - { offsetInCU: 0xB0029, offset: 0xB0029, size: 0x8, addend: 0x0, symName: __ZNSt3__13getB8ue170006ILm0EJOZN5Acorn10Acorn_Dirt4initEvEUlRNS1_7ContextEE39_EEERNS_13tuple_elementIXT_ENS_5tupleIJDpT0_EEEE4typeERSB_, symObjAddr: 0x25F2B4, symBinAddr: 0x1002605A4, symSize: 0x24 }
  - { offsetInCU: 0xB006B, offset: 0xB006B, size: 0x8, addend: 0x0, symName: __ZNSt3__13getB8ue170006ILm0EJONS_9allocatorIZN5Acorn10Acorn_Dirt4initEvEUlRNS2_7ContextEE39_EEEEERNS_13tuple_elementIXT_ENS_5tupleIJDpT0_EEEE4typeERSD_, symObjAddr: 0x25F338, symBinAddr: 0x100260628, symSize: 0x24 }
  - { offsetInCU: 0xB0591, offset: 0xB0591, size: 0x8, addend: 0x0, symName: __ZNSt3__116forward_as_tupleB8ue170006IJRKZN5Acorn10Acorn_Dirt4initEvEUlRNS1_7ContextEE39_EEENS_5tupleIJDpOT_EEESB_, symObjAddr: 0x25FFCC, symBinAddr: 0x1002612BC, symSize: 0x1F8 }
  - { offsetInCU: 0xB05E0, offset: 0xB05E0, size: 0x8, addend: 0x0, symName: __ZNSt3__13getB8ue170006ILm0EJRKZN5Acorn10Acorn_Dirt4initEvEUlRNS1_7ContextEE39_EEERNS_13tuple_elementIXT_ENS_5tupleIJDpT0_EEEE4typeERSC_, symObjAddr: 0x260B70, symBinAddr: 0x100261E60, symSize: 0x24 }
  - { offsetInCU: 0xB0622, offset: 0xB0622, size: 0x8, addend: 0x0, symName: __ZNSt3__116forward_as_tupleB8ue170006IJRKNS_9allocatorIZN5Acorn10Acorn_Dirt4initEvEUlRNS2_7ContextEE39_EEEEENS_5tupleIJDpOT_EEESD_, symObjAddr: 0x261310, symBinAddr: 0x100262600, symSize: 0x1F8 }
  - { offsetInCU: 0xB0671, offset: 0xB0671, size: 0x8, addend: 0x0, symName: __ZNSt3__13getB8ue170006ILm0EJRKNS_9allocatorIZN5Acorn10Acorn_Dirt4initEvEUlRNS2_7ContextEE39_EEEEERNS_13tuple_elementIXT_ENS_5tupleIJDpT0_EEEE4typeERSE_, symObjAddr: 0x261EA4, symBinAddr: 0x100263194, symSize: 0x24 }
  - { offsetInCU: 0xB06B4, offset: 0xB06B4, size: 0x8, addend: 0x0, symName: __ZNSt3__18__invokeB8ue170006IRZN5Acorn10Acorn_Dirt4initEvEUlRNS1_7ContextEE39_JS4_EEEDTclclsr3stdE7declvalIT_EEspclsr3stdE7declvalIT0_EEEEOS7_DpOS8_, symObjAddr: 0x261FB8, symBinAddr: 0x1002632A8, symSize: 0x2C }
  - { offsetInCU: 0xB0A7D, offset: 0xB0A7D, size: 0x8, addend: 0x0, symName: __ZNSt3__1plB8ue170006IcNS_11char_traitsIcEENS_9allocatorIcEEEENS_12basic_stringIT_T0_T1_EERKS9_OS9_, symObjAddr: 0x2639B4, symBinAddr: 0x100264CA4, symSize: 0x44 }
  - { offsetInCU: 0xB0C43, offset: 0xB0C43, size: 0x8, addend: 0x0, symName: __ZNSt3__116forward_as_tupleB8ue170006IJZN5Acorn10Acorn_Dirt4initEvEUlRNS1_7ContextEE40_EEENS_5tupleIJDpOT_EEES9_, symObjAddr: 0x266720, symBinAddr: 0x100267A10, symSize: 0x1F8 }
  - { offsetInCU: 0xB0C7D, offset: 0xB0C7D, size: 0x8, addend: 0x0, symName: __ZNSt3__116forward_as_tupleB8ue170006IJNS_9allocatorIZN5Acorn10Acorn_Dirt4initEvEUlRNS2_7ContextEE40_EEEEENS_5tupleIJDpOT_EEESB_, symObjAddr: 0x266918, symBinAddr: 0x100267C08, symSize: 0x1F8 }
  - { offsetInCU: 0xB0CE1, offset: 0xB0CE1, size: 0x8, addend: 0x0, symName: __ZNSt3__13getB8ue170006ILm0EJOZN5Acorn10Acorn_Dirt4initEvEUlRNS1_7ContextEE40_EEERNS_13tuple_elementIXT_ENS_5tupleIJDpT0_EEEE4typeERSB_, symObjAddr: 0x2677FC, symBinAddr: 0x100268AEC, symSize: 0x24 }
  - { offsetInCU: 0xB0D23, offset: 0xB0D23, size: 0x8, addend: 0x0, symName: __ZNSt3__13getB8ue170006ILm0EJONS_9allocatorIZN5Acorn10Acorn_Dirt4initEvEUlRNS2_7ContextEE40_EEEEERNS_13tuple_elementIXT_ENS_5tupleIJDpT0_EEEE4typeERSD_, symObjAddr: 0x267880, symBinAddr: 0x100268B70, symSize: 0x24 }
  - { offsetInCU: 0xB1249, offset: 0xB1249, size: 0x8, addend: 0x0, symName: __ZNSt3__116forward_as_tupleB8ue170006IJRKZN5Acorn10Acorn_Dirt4initEvEUlRNS1_7ContextEE40_EEENS_5tupleIJDpOT_EEESB_, symObjAddr: 0x268514, symBinAddr: 0x100269804, symSize: 0x1F8 }
  - { offsetInCU: 0xB1298, offset: 0xB1298, size: 0x8, addend: 0x0, symName: __ZNSt3__13getB8ue170006ILm0EJRKZN5Acorn10Acorn_Dirt4initEvEUlRNS1_7ContextEE40_EEERNS_13tuple_elementIXT_ENS_5tupleIJDpT0_EEEE4typeERSC_, symObjAddr: 0x2690B8, symBinAddr: 0x10026A3A8, symSize: 0x24 }
  - { offsetInCU: 0xB12DA, offset: 0xB12DA, size: 0x8, addend: 0x0, symName: __ZNSt3__116forward_as_tupleB8ue170006IJRKNS_9allocatorIZN5Acorn10Acorn_Dirt4initEvEUlRNS2_7ContextEE40_EEEEENS_5tupleIJDpOT_EEESD_, symObjAddr: 0x269858, symBinAddr: 0x10026AB48, symSize: 0x1F8 }
  - { offsetInCU: 0xB1329, offset: 0xB1329, size: 0x8, addend: 0x0, symName: __ZNSt3__13getB8ue170006ILm0EJRKNS_9allocatorIZN5Acorn10Acorn_Dirt4initEvEUlRNS2_7ContextEE40_EEEEERNS_13tuple_elementIXT_ENS_5tupleIJDpT0_EEEE4typeERSE_, symObjAddr: 0x26A3EC, symBinAddr: 0x10026B6DC, symSize: 0x24 }
  - { offsetInCU: 0xB136C, offset: 0xB136C, size: 0x8, addend: 0x0, symName: __ZNSt3__18__invokeB8ue170006IRZN5Acorn10Acorn_Dirt4initEvEUlRNS1_7ContextEE40_JS4_EEEDTclclsr3stdE7declvalIT_EEspclsr3stdE7declvalIT0_EEEEOS7_DpOS8_, symObjAddr: 0x26A500, symBinAddr: 0x10026B7F0, symSize: 0x2C }
  - { offsetInCU: 0xB151C, offset: 0xB151C, size: 0x8, addend: 0x0, symName: __ZNSt3__116forward_as_tupleB8ue170006IJZN5Acorn10Acorn_Dirt4initEvEUlRNS1_7ContextEE41_EEENS_5tupleIJDpOT_EEES9_, symObjAddr: 0x26C9FC, symBinAddr: 0x10026DCEC, symSize: 0x1F8 }
  - { offsetInCU: 0xB1556, offset: 0xB1556, size: 0x8, addend: 0x0, symName: __ZNSt3__116forward_as_tupleB8ue170006IJNS_9allocatorIZN5Acorn10Acorn_Dirt4initEvEUlRNS2_7ContextEE41_EEEEENS_5tupleIJDpOT_EEESB_, symObjAddr: 0x26CBF4, symBinAddr: 0x10026DEE4, symSize: 0x1F8 }
  - { offsetInCU: 0xB15BA, offset: 0xB15BA, size: 0x8, addend: 0x0, symName: __ZNSt3__13getB8ue170006ILm0EJOZN5Acorn10Acorn_Dirt4initEvEUlRNS1_7ContextEE41_EEERNS_13tuple_elementIXT_ENS_5tupleIJDpT0_EEEE4typeERSB_, symObjAddr: 0x26DAD8, symBinAddr: 0x10026EDC8, symSize: 0x24 }
  - { offsetInCU: 0xB15FC, offset: 0xB15FC, size: 0x8, addend: 0x0, symName: __ZNSt3__13getB8ue170006ILm0EJONS_9allocatorIZN5Acorn10Acorn_Dirt4initEvEUlRNS2_7ContextEE41_EEEEERNS_13tuple_elementIXT_ENS_5tupleIJDpT0_EEEE4typeERSD_, symObjAddr: 0x26DB5C, symBinAddr: 0x10026EE4C, symSize: 0x24 }
  - { offsetInCU: 0xB1B22, offset: 0xB1B22, size: 0x8, addend: 0x0, symName: __ZNSt3__116forward_as_tupleB8ue170006IJRKZN5Acorn10Acorn_Dirt4initEvEUlRNS1_7ContextEE41_EEENS_5tupleIJDpOT_EEESB_, symObjAddr: 0x26E7F0, symBinAddr: 0x10026FAE0, symSize: 0x1F8 }
  - { offsetInCU: 0xB1B71, offset: 0xB1B71, size: 0x8, addend: 0x0, symName: __ZNSt3__13getB8ue170006ILm0EJRKZN5Acorn10Acorn_Dirt4initEvEUlRNS1_7ContextEE41_EEERNS_13tuple_elementIXT_ENS_5tupleIJDpT0_EEEE4typeERSC_, symObjAddr: 0x26F394, symBinAddr: 0x100270684, symSize: 0x24 }
  - { offsetInCU: 0xB1BB3, offset: 0xB1BB3, size: 0x8, addend: 0x0, symName: __ZNSt3__116forward_as_tupleB8ue170006IJRKNS_9allocatorIZN5Acorn10Acorn_Dirt4initEvEUlRNS2_7ContextEE41_EEEEENS_5tupleIJDpOT_EEESD_, symObjAddr: 0x26FB34, symBinAddr: 0x100270E24, symSize: 0x1F8 }
  - { offsetInCU: 0xB1C02, offset: 0xB1C02, size: 0x8, addend: 0x0, symName: __ZNSt3__13getB8ue170006ILm0EJRKNS_9allocatorIZN5Acorn10Acorn_Dirt4initEvEUlRNS2_7ContextEE41_EEEEERNS_13tuple_elementIXT_ENS_5tupleIJDpT0_EEEE4typeERSE_, symObjAddr: 0x2706C8, symBinAddr: 0x1002719B8, symSize: 0x24 }
  - { offsetInCU: 0xB1C45, offset: 0xB1C45, size: 0x8, addend: 0x0, symName: __ZNSt3__18__invokeB8ue170006IRZN5Acorn10Acorn_Dirt4initEvEUlRNS1_7ContextEE41_JS4_EEEDTclclsr3stdE7declvalIT_EEspclsr3stdE7declvalIT0_EEEEOS7_DpOS8_, symObjAddr: 0x2707DC, symBinAddr: 0x100271ACC, symSize: 0x2C }
  - { offsetInCU: 0xB1DF5, offset: 0xB1DF5, size: 0x8, addend: 0x0, symName: __ZNSt3__116forward_as_tupleB8ue170006IJZN5Acorn10Acorn_Dirt4initEvEUlRNS1_7ContextEE42_EEENS_5tupleIJDpOT_EEES9_, symObjAddr: 0x273240, symBinAddr: 0x100274530, symSize: 0x1F8 }
  - { offsetInCU: 0xB1E2F, offset: 0xB1E2F, size: 0x8, addend: 0x0, symName: __ZNSt3__116forward_as_tupleB8ue170006IJNS_9allocatorIZN5Acorn10Acorn_Dirt4initEvEUlRNS2_7ContextEE42_EEEEENS_5tupleIJDpOT_EEESB_, symObjAddr: 0x273438, symBinAddr: 0x100274728, symSize: 0x1F8 }
  - { offsetInCU: 0xB1E93, offset: 0xB1E93, size: 0x8, addend: 0x0, symName: __ZNSt3__13getB8ue170006ILm0EJOZN5Acorn10Acorn_Dirt4initEvEUlRNS1_7ContextEE42_EEERNS_13tuple_elementIXT_ENS_5tupleIJDpT0_EEEE4typeERSB_, symObjAddr: 0x27431C, symBinAddr: 0x10027560C, symSize: 0x24 }
  - { offsetInCU: 0xB1ED5, offset: 0xB1ED5, size: 0x8, addend: 0x0, symName: __ZNSt3__13getB8ue170006ILm0EJONS_9allocatorIZN5Acorn10Acorn_Dirt4initEvEUlRNS2_7ContextEE42_EEEEERNS_13tuple_elementIXT_ENS_5tupleIJDpT0_EEEE4typeERSD_, symObjAddr: 0x2743A0, symBinAddr: 0x100275690, symSize: 0x24 }
  - { offsetInCU: 0xB23FB, offset: 0xB23FB, size: 0x8, addend: 0x0, symName: __ZNSt3__116forward_as_tupleB8ue170006IJRKZN5Acorn10Acorn_Dirt4initEvEUlRNS1_7ContextEE42_EEENS_5tupleIJDpOT_EEESB_, symObjAddr: 0x275034, symBinAddr: 0x100276324, symSize: 0x1F8 }
  - { offsetInCU: 0xB244A, offset: 0xB244A, size: 0x8, addend: 0x0, symName: __ZNSt3__13getB8ue170006ILm0EJRKZN5Acorn10Acorn_Dirt4initEvEUlRNS1_7ContextEE42_EEERNS_13tuple_elementIXT_ENS_5tupleIJDpT0_EEEE4typeERSC_, symObjAddr: 0x275BD8, symBinAddr: 0x100276EC8, symSize: 0x24 }
  - { offsetInCU: 0xB248C, offset: 0xB248C, size: 0x8, addend: 0x0, symName: __ZNSt3__116forward_as_tupleB8ue170006IJRKNS_9allocatorIZN5Acorn10Acorn_Dirt4initEvEUlRNS2_7ContextEE42_EEEEENS_5tupleIJDpOT_EEESD_, symObjAddr: 0x276378, symBinAddr: 0x100277668, symSize: 0x1F8 }
  - { offsetInCU: 0xB24DB, offset: 0xB24DB, size: 0x8, addend: 0x0, symName: __ZNSt3__13getB8ue170006ILm0EJRKNS_9allocatorIZN5Acorn10Acorn_Dirt4initEvEUlRNS2_7ContextEE42_EEEEERNS_13tuple_elementIXT_ENS_5tupleIJDpT0_EEEE4typeERSE_, symObjAddr: 0x276F0C, symBinAddr: 0x1002781FC, symSize: 0x24 }
  - { offsetInCU: 0xB251E, offset: 0xB251E, size: 0x8, addend: 0x0, symName: __ZNSt3__18__invokeB8ue170006IRZN5Acorn10Acorn_Dirt4initEvEUlRNS1_7ContextEE42_JS4_EEEDTclclsr3stdE7declvalIT_EEspclsr3stdE7declvalIT0_EEEEOS7_DpOS8_, symObjAddr: 0x277020, symBinAddr: 0x100278310, symSize: 0x2C }
  - { offsetInCU: 0xB26CE, offset: 0xB26CE, size: 0x8, addend: 0x0, symName: __ZNSt3__116forward_as_tupleB8ue170006IJZN5Acorn10Acorn_Dirt4initEvEUlRNS1_7ContextEE43_EEENS_5tupleIJDpOT_EEES9_, symObjAddr: 0x278A68, symBinAddr: 0x100279D58, symSize: 0x1F8 }
  - { offsetInCU: 0xB2708, offset: 0xB2708, size: 0x8, addend: 0x0, symName: __ZNSt3__116forward_as_tupleB8ue170006IJNS_9allocatorIZN5Acorn10Acorn_Dirt4initEvEUlRNS2_7ContextEE43_EEEEENS_5tupleIJDpOT_EEESB_, symObjAddr: 0x278C60, symBinAddr: 0x100279F50, symSize: 0x1F8 }
  - { offsetInCU: 0xB276C, offset: 0xB276C, size: 0x8, addend: 0x0, symName: __ZNSt3__13getB8ue170006ILm0EJOZN5Acorn10Acorn_Dirt4initEvEUlRNS1_7ContextEE43_EEERNS_13tuple_elementIXT_ENS_5tupleIJDpT0_EEEE4typeERSB_, symObjAddr: 0x279B44, symBinAddr: 0x10027AE34, symSize: 0x24 }
  - { offsetInCU: 0xB27AE, offset: 0xB27AE, size: 0x8, addend: 0x0, symName: __ZNSt3__13getB8ue170006ILm0EJONS_9allocatorIZN5Acorn10Acorn_Dirt4initEvEUlRNS2_7ContextEE43_EEEEERNS_13tuple_elementIXT_ENS_5tupleIJDpT0_EEEE4typeERSD_, symObjAddr: 0x279BC8, symBinAddr: 0x10027AEB8, symSize: 0x24 }
  - { offsetInCU: 0xB2CD4, offset: 0xB2CD4, size: 0x8, addend: 0x0, symName: __ZNSt3__116forward_as_tupleB8ue170006IJRKZN5Acorn10Acorn_Dirt4initEvEUlRNS1_7ContextEE43_EEENS_5tupleIJDpOT_EEESB_, symObjAddr: 0x27A85C, symBinAddr: 0x10027BB4C, symSize: 0x1F8 }
  - { offsetInCU: 0xB2D23, offset: 0xB2D23, size: 0x8, addend: 0x0, symName: __ZNSt3__13getB8ue170006ILm0EJRKZN5Acorn10Acorn_Dirt4initEvEUlRNS1_7ContextEE43_EEERNS_13tuple_elementIXT_ENS_5tupleIJDpT0_EEEE4typeERSC_, symObjAddr: 0x27B400, symBinAddr: 0x10027C6F0, symSize: 0x24 }
  - { offsetInCU: 0xB2D65, offset: 0xB2D65, size: 0x8, addend: 0x0, symName: __ZNSt3__116forward_as_tupleB8ue170006IJRKNS_9allocatorIZN5Acorn10Acorn_Dirt4initEvEUlRNS2_7ContextEE43_EEEEENS_5tupleIJDpOT_EEESD_, symObjAddr: 0x27BBA0, symBinAddr: 0x10027CE90, symSize: 0x1F8 }
  - { offsetInCU: 0xB2DB4, offset: 0xB2DB4, size: 0x8, addend: 0x0, symName: __ZNSt3__13getB8ue170006ILm0EJRKNS_9allocatorIZN5Acorn10Acorn_Dirt4initEvEUlRNS2_7ContextEE43_EEEEERNS_13tuple_elementIXT_ENS_5tupleIJDpT0_EEEE4typeERSE_, symObjAddr: 0x27C734, symBinAddr: 0x10027DA24, symSize: 0x24 }
  - { offsetInCU: 0xB2DF7, offset: 0xB2DF7, size: 0x8, addend: 0x0, symName: __ZNSt3__18__invokeB8ue170006IRZN5Acorn10Acorn_Dirt4initEvEUlRNS1_7ContextEE43_JS4_EEEDTclclsr3stdE7declvalIT_EEspclsr3stdE7declvalIT0_EEEEOS7_DpOS8_, symObjAddr: 0x27C848, symBinAddr: 0x10027DB38, symSize: 0x2C }
  - { offsetInCU: 0xB2FA7, offset: 0xB2FA7, size: 0x8, addend: 0x0, symName: __ZNSt3__116forward_as_tupleB8ue170006IJZN5Acorn10Acorn_Dirt4initEvEUlRNS1_7ContextEE44_EEENS_5tupleIJDpOT_EEES9_, symObjAddr: 0x27E224, symBinAddr: 0x10027F514, symSize: 0x1F8 }
  - { offsetInCU: 0xB2FE1, offset: 0xB2FE1, size: 0x8, addend: 0x0, symName: __ZNSt3__116forward_as_tupleB8ue170006IJNS_9allocatorIZN5Acorn10Acorn_Dirt4initEvEUlRNS2_7ContextEE44_EEEEENS_5tupleIJDpOT_EEESB_, symObjAddr: 0x27E41C, symBinAddr: 0x10027F70C, symSize: 0x1F8 }
  - { offsetInCU: 0xB3045, offset: 0xB3045, size: 0x8, addend: 0x0, symName: __ZNSt3__13getB8ue170006ILm0EJOZN5Acorn10Acorn_Dirt4initEvEUlRNS1_7ContextEE44_EEERNS_13tuple_elementIXT_ENS_5tupleIJDpT0_EEEE4typeERSB_, symObjAddr: 0x27F300, symBinAddr: 0x1002805F0, symSize: 0x24 }
  - { offsetInCU: 0xB3087, offset: 0xB3087, size: 0x8, addend: 0x0, symName: __ZNSt3__13getB8ue170006ILm0EJONS_9allocatorIZN5Acorn10Acorn_Dirt4initEvEUlRNS2_7ContextEE44_EEEEERNS_13tuple_elementIXT_ENS_5tupleIJDpT0_EEEE4typeERSD_, symObjAddr: 0x27F384, symBinAddr: 0x100280674, symSize: 0x24 }
  - { offsetInCU: 0xB35AD, offset: 0xB35AD, size: 0x8, addend: 0x0, symName: __ZNSt3__116forward_as_tupleB8ue170006IJRKZN5Acorn10Acorn_Dirt4initEvEUlRNS1_7ContextEE44_EEENS_5tupleIJDpOT_EEESB_, symObjAddr: 0x280018, symBinAddr: 0x100281308, symSize: 0x1F8 }
  - { offsetInCU: 0xB35FC, offset: 0xB35FC, size: 0x8, addend: 0x0, symName: __ZNSt3__13getB8ue170006ILm0EJRKZN5Acorn10Acorn_Dirt4initEvEUlRNS1_7ContextEE44_EEERNS_13tuple_elementIXT_ENS_5tupleIJDpT0_EEEE4typeERSC_, symObjAddr: 0x280BBC, symBinAddr: 0x100281EAC, symSize: 0x24 }
  - { offsetInCU: 0xB363E, offset: 0xB363E, size: 0x8, addend: 0x0, symName: __ZNSt3__116forward_as_tupleB8ue170006IJRKNS_9allocatorIZN5Acorn10Acorn_Dirt4initEvEUlRNS2_7ContextEE44_EEEEENS_5tupleIJDpOT_EEESD_, symObjAddr: 0x28135C, symBinAddr: 0x10028264C, symSize: 0x1F8 }
  - { offsetInCU: 0xB368D, offset: 0xB368D, size: 0x8, addend: 0x0, symName: __ZNSt3__13getB8ue170006ILm0EJRKNS_9allocatorIZN5Acorn10Acorn_Dirt4initEvEUlRNS2_7ContextEE44_EEEEERNS_13tuple_elementIXT_ENS_5tupleIJDpT0_EEEE4typeERSE_, symObjAddr: 0x281EF0, symBinAddr: 0x1002831E0, symSize: 0x24 }
  - { offsetInCU: 0xB36D0, offset: 0xB36D0, size: 0x8, addend: 0x0, symName: __ZNSt3__18__invokeB8ue170006IRZN5Acorn10Acorn_Dirt4initEvEUlRNS1_7ContextEE44_JS4_EEEDTclclsr3stdE7declvalIT_EEspclsr3stdE7declvalIT0_EEEEOS7_DpOS8_, symObjAddr: 0x282004, symBinAddr: 0x1002832F4, symSize: 0x2C }
  - { offsetInCU: 0xB3880, offset: 0xB3880, size: 0x8, addend: 0x0, symName: __ZNSt3__116forward_as_tupleB8ue170006IJZN5Acorn10Acorn_Dirt4initEvEUlRNS1_7ContextEE45_EEENS_5tupleIJDpOT_EEES9_, symObjAddr: 0x28396C, symBinAddr: 0x100284C5C, symSize: 0x1F8 }
  - { offsetInCU: 0xB38BA, offset: 0xB38BA, size: 0x8, addend: 0x0, symName: __ZNSt3__116forward_as_tupleB8ue170006IJNS_9allocatorIZN5Acorn10Acorn_Dirt4initEvEUlRNS2_7ContextEE45_EEEEENS_5tupleIJDpOT_EEESB_, symObjAddr: 0x283B64, symBinAddr: 0x100284E54, symSize: 0x1F8 }
  - { offsetInCU: 0xB391E, offset: 0xB391E, size: 0x8, addend: 0x0, symName: __ZNSt3__13getB8ue170006ILm0EJOZN5Acorn10Acorn_Dirt4initEvEUlRNS1_7ContextEE45_EEERNS_13tuple_elementIXT_ENS_5tupleIJDpT0_EEEE4typeERSB_, symObjAddr: 0x284A48, symBinAddr: 0x100285D38, symSize: 0x24 }
  - { offsetInCU: 0xB3960, offset: 0xB3960, size: 0x8, addend: 0x0, symName: __ZNSt3__13getB8ue170006ILm0EJONS_9allocatorIZN5Acorn10Acorn_Dirt4initEvEUlRNS2_7ContextEE45_EEEEERNS_13tuple_elementIXT_ENS_5tupleIJDpT0_EEEE4typeERSD_, symObjAddr: 0x284ACC, symBinAddr: 0x100285DBC, symSize: 0x24 }
  - { offsetInCU: 0xB3E86, offset: 0xB3E86, size: 0x8, addend: 0x0, symName: __ZNSt3__116forward_as_tupleB8ue170006IJRKZN5Acorn10Acorn_Dirt4initEvEUlRNS1_7ContextEE45_EEENS_5tupleIJDpOT_EEESB_, symObjAddr: 0x285760, symBinAddr: 0x100286A50, symSize: 0x1F8 }
  - { offsetInCU: 0xB3ED5, offset: 0xB3ED5, size: 0x8, addend: 0x0, symName: __ZNSt3__13getB8ue170006ILm0EJRKZN5Acorn10Acorn_Dirt4initEvEUlRNS1_7ContextEE45_EEERNS_13tuple_elementIXT_ENS_5tupleIJDpT0_EEEE4typeERSC_, symObjAddr: 0x286304, symBinAddr: 0x1002875F4, symSize: 0x24 }
  - { offsetInCU: 0xB3F17, offset: 0xB3F17, size: 0x8, addend: 0x0, symName: __ZNSt3__116forward_as_tupleB8ue170006IJRKNS_9allocatorIZN5Acorn10Acorn_Dirt4initEvEUlRNS2_7ContextEE45_EEEEENS_5tupleIJDpOT_EEESD_, symObjAddr: 0x286AA4, symBinAddr: 0x100287D94, symSize: 0x1F8 }
  - { offsetInCU: 0xB3F66, offset: 0xB3F66, size: 0x8, addend: 0x0, symName: __ZNSt3__13getB8ue170006ILm0EJRKNS_9allocatorIZN5Acorn10Acorn_Dirt4initEvEUlRNS2_7ContextEE45_EEEEERNS_13tuple_elementIXT_ENS_5tupleIJDpT0_EEEE4typeERSE_, symObjAddr: 0x287638, symBinAddr: 0x100288928, symSize: 0x24 }
  - { offsetInCU: 0xB3FA9, offset: 0xB3FA9, size: 0x8, addend: 0x0, symName: __ZNSt3__18__invokeB8ue170006IRZN5Acorn10Acorn_Dirt4initEvEUlRNS1_7ContextEE45_JS4_EEEDTclclsr3stdE7declvalIT_EEspclsr3stdE7declvalIT0_EEEEOS7_DpOS8_, symObjAddr: 0x28774C, symBinAddr: 0x100288A3C, symSize: 0x2C }
  - { offsetInCU: 0xB4159, offset: 0xB4159, size: 0x8, addend: 0x0, symName: __ZNSt3__116forward_as_tupleB8ue170006IJZN5Acorn10Acorn_Dirt4initEvEUlRNS1_7ContextEE46_EEENS_5tupleIJDpOT_EEES9_, symObjAddr: 0x288F1C, symBinAddr: 0x10028A20C, symSize: 0x1F8 }
  - { offsetInCU: 0xB4193, offset: 0xB4193, size: 0x8, addend: 0x0, symName: __ZNSt3__116forward_as_tupleB8ue170006IJNS_9allocatorIZN5Acorn10Acorn_Dirt4initEvEUlRNS2_7ContextEE46_EEEEENS_5tupleIJDpOT_EEESB_, symObjAddr: 0x289114, symBinAddr: 0x10028A404, symSize: 0x1F8 }
  - { offsetInCU: 0xB41F7, offset: 0xB41F7, size: 0x8, addend: 0x0, symName: __ZNSt3__13getB8ue170006ILm0EJOZN5Acorn10Acorn_Dirt4initEvEUlRNS1_7ContextEE46_EEERNS_13tuple_elementIXT_ENS_5tupleIJDpT0_EEEE4typeERSB_, symObjAddr: 0x289FF8, symBinAddr: 0x10028B2E8, symSize: 0x24 }
  - { offsetInCU: 0xB4239, offset: 0xB4239, size: 0x8, addend: 0x0, symName: __ZNSt3__13getB8ue170006ILm0EJONS_9allocatorIZN5Acorn10Acorn_Dirt4initEvEUlRNS2_7ContextEE46_EEEEERNS_13tuple_elementIXT_ENS_5tupleIJDpT0_EEEE4typeERSD_, symObjAddr: 0x28A07C, symBinAddr: 0x10028B36C, symSize: 0x24 }
  - { offsetInCU: 0xB475F, offset: 0xB475F, size: 0x8, addend: 0x0, symName: __ZNSt3__116forward_as_tupleB8ue170006IJRKZN5Acorn10Acorn_Dirt4initEvEUlRNS1_7ContextEE46_EEENS_5tupleIJDpOT_EEESB_, symObjAddr: 0x28AD10, symBinAddr: 0x10028C000, symSize: 0x1F8 }
  - { offsetInCU: 0xB47AE, offset: 0xB47AE, size: 0x8, addend: 0x0, symName: __ZNSt3__13getB8ue170006ILm0EJRKZN5Acorn10Acorn_Dirt4initEvEUlRNS1_7ContextEE46_EEERNS_13tuple_elementIXT_ENS_5tupleIJDpT0_EEEE4typeERSC_, symObjAddr: 0x28B8B4, symBinAddr: 0x10028CBA4, symSize: 0x24 }
  - { offsetInCU: 0xB47F0, offset: 0xB47F0, size: 0x8, addend: 0x0, symName: __ZNSt3__116forward_as_tupleB8ue170006IJRKNS_9allocatorIZN5Acorn10Acorn_Dirt4initEvEUlRNS2_7ContextEE46_EEEEENS_5tupleIJDpOT_EEESD_, symObjAddr: 0x28C054, symBinAddr: 0x10028D344, symSize: 0x1F8 }
  - { offsetInCU: 0xB483F, offset: 0xB483F, size: 0x8, addend: 0x0, symName: __ZNSt3__13getB8ue170006ILm0EJRKNS_9allocatorIZN5Acorn10Acorn_Dirt4initEvEUlRNS2_7ContextEE46_EEEEERNS_13tuple_elementIXT_ENS_5tupleIJDpT0_EEEE4typeERSE_, symObjAddr: 0x28CBE8, symBinAddr: 0x10028DED8, symSize: 0x24 }
  - { offsetInCU: 0xB4882, offset: 0xB4882, size: 0x8, addend: 0x0, symName: __ZNSt3__18__invokeB8ue170006IRZN5Acorn10Acorn_Dirt4initEvEUlRNS1_7ContextEE46_JS4_EEEDTclclsr3stdE7declvalIT_EEspclsr3stdE7declvalIT0_EEEEOS7_DpOS8_, symObjAddr: 0x28CCFC, symBinAddr: 0x10028DFEC, symSize: 0x2C }
  - { offsetInCU: 0xB4A32, offset: 0xB4A32, size: 0x8, addend: 0x0, symName: __ZNSt3__116forward_as_tupleB8ue170006IJZN5Acorn10Acorn_Dirt4initEvEUlRNS1_7ContextEE47_EEENS_5tupleIJDpOT_EEES9_, symObjAddr: 0x28E494, symBinAddr: 0x10028F784, symSize: 0x1F8 }
  - { offsetInCU: 0xB4A6C, offset: 0xB4A6C, size: 0x8, addend: 0x0, symName: __ZNSt3__116forward_as_tupleB8ue170006IJNS_9allocatorIZN5Acorn10Acorn_Dirt4initEvEUlRNS2_7ContextEE47_EEEEENS_5tupleIJDpOT_EEESB_, symObjAddr: 0x28E68C, symBinAddr: 0x10028F97C, symSize: 0x1F8 }
  - { offsetInCU: 0xB4AD0, offset: 0xB4AD0, size: 0x8, addend: 0x0, symName: __ZNSt3__13getB8ue170006ILm0EJOZN5Acorn10Acorn_Dirt4initEvEUlRNS1_7ContextEE47_EEERNS_13tuple_elementIXT_ENS_5tupleIJDpT0_EEEE4typeERSB_, symObjAddr: 0x28F570, symBinAddr: 0x100290860, symSize: 0x24 }
  - { offsetInCU: 0xB4B12, offset: 0xB4B12, size: 0x8, addend: 0x0, symName: __ZNSt3__13getB8ue170006ILm0EJONS_9allocatorIZN5Acorn10Acorn_Dirt4initEvEUlRNS2_7ContextEE47_EEEEERNS_13tuple_elementIXT_ENS_5tupleIJDpT0_EEEE4typeERSD_, symObjAddr: 0x28F5F4, symBinAddr: 0x1002908E4, symSize: 0x24 }
  - { offsetInCU: 0xB5038, offset: 0xB5038, size: 0x8, addend: 0x0, symName: __ZNSt3__116forward_as_tupleB8ue170006IJRKZN5Acorn10Acorn_Dirt4initEvEUlRNS1_7ContextEE47_EEENS_5tupleIJDpOT_EEESB_, symObjAddr: 0x290288, symBinAddr: 0x100291578, symSize: 0x1F8 }
  - { offsetInCU: 0xB5087, offset: 0xB5087, size: 0x8, addend: 0x0, symName: __ZNSt3__13getB8ue170006ILm0EJRKZN5Acorn10Acorn_Dirt4initEvEUlRNS1_7ContextEE47_EEERNS_13tuple_elementIXT_ENS_5tupleIJDpT0_EEEE4typeERSC_, symObjAddr: 0x290E2C, symBinAddr: 0x10029211C, symSize: 0x24 }
  - { offsetInCU: 0xB50C9, offset: 0xB50C9, size: 0x8, addend: 0x0, symName: __ZNSt3__116forward_as_tupleB8ue170006IJRKNS_9allocatorIZN5Acorn10Acorn_Dirt4initEvEUlRNS2_7ContextEE47_EEEEENS_5tupleIJDpOT_EEESD_, symObjAddr: 0x2915CC, symBinAddr: 0x1002928BC, symSize: 0x1F8 }
  - { offsetInCU: 0xB5118, offset: 0xB5118, size: 0x8, addend: 0x0, symName: __ZNSt3__13getB8ue170006ILm0EJRKNS_9allocatorIZN5Acorn10Acorn_Dirt4initEvEUlRNS2_7ContextEE47_EEEEERNS_13tuple_elementIXT_ENS_5tupleIJDpT0_EEEE4typeERSE_, symObjAddr: 0x292160, symBinAddr: 0x100293450, symSize: 0x24 }
  - { offsetInCU: 0xB515B, offset: 0xB515B, size: 0x8, addend: 0x0, symName: __ZNSt3__18__invokeB8ue170006IRZN5Acorn10Acorn_Dirt4initEvEUlRNS1_7ContextEE47_JS4_EEEDTclclsr3stdE7declvalIT_EEspclsr3stdE7declvalIT0_EEEEOS7_DpOS8_, symObjAddr: 0x292274, symBinAddr: 0x100293564, symSize: 0x2C }
  - { offsetInCU: 0xB530B, offset: 0xB530B, size: 0x8, addend: 0x0, symName: __ZNSt3__116forward_as_tupleB8ue170006IJZN5Acorn10Acorn_Dirt4initEvEUlRNS1_7ContextEE48_EEENS_5tupleIJDpOT_EEES9_, symObjAddr: 0x293C2C, symBinAddr: 0x100294F1C, symSize: 0x1F8 }
  - { offsetInCU: 0xB5345, offset: 0xB5345, size: 0x8, addend: 0x0, symName: __ZNSt3__116forward_as_tupleB8ue170006IJNS_9allocatorIZN5Acorn10Acorn_Dirt4initEvEUlRNS2_7ContextEE48_EEEEENS_5tupleIJDpOT_EEESB_, symObjAddr: 0x293E24, symBinAddr: 0x100295114, symSize: 0x1F8 }
  - { offsetInCU: 0xB53A9, offset: 0xB53A9, size: 0x8, addend: 0x0, symName: __ZNSt3__13getB8ue170006ILm0EJOZN5Acorn10Acorn_Dirt4initEvEUlRNS1_7ContextEE48_EEERNS_13tuple_elementIXT_ENS_5tupleIJDpT0_EEEE4typeERSB_, symObjAddr: 0x294D08, symBinAddr: 0x100295FF8, symSize: 0x24 }
  - { offsetInCU: 0xB53EB, offset: 0xB53EB, size: 0x8, addend: 0x0, symName: __ZNSt3__13getB8ue170006ILm0EJONS_9allocatorIZN5Acorn10Acorn_Dirt4initEvEUlRNS2_7ContextEE48_EEEEERNS_13tuple_elementIXT_ENS_5tupleIJDpT0_EEEE4typeERSD_, symObjAddr: 0x294D8C, symBinAddr: 0x10029607C, symSize: 0x24 }
  - { offsetInCU: 0xB5911, offset: 0xB5911, size: 0x8, addend: 0x0, symName: __ZNSt3__116forward_as_tupleB8ue170006IJRKZN5Acorn10Acorn_Dirt4initEvEUlRNS1_7ContextEE48_EEENS_5tupleIJDpOT_EEESB_, symObjAddr: 0x295A20, symBinAddr: 0x100296D10, symSize: 0x1F8 }
  - { offsetInCU: 0xB5960, offset: 0xB5960, size: 0x8, addend: 0x0, symName: __ZNSt3__13getB8ue170006ILm0EJRKZN5Acorn10Acorn_Dirt4initEvEUlRNS1_7ContextEE48_EEERNS_13tuple_elementIXT_ENS_5tupleIJDpT0_EEEE4typeERSC_, symObjAddr: 0x2965C4, symBinAddr: 0x1002978B4, symSize: 0x24 }
  - { offsetInCU: 0xB59A2, offset: 0xB59A2, size: 0x8, addend: 0x0, symName: __ZNSt3__116forward_as_tupleB8ue170006IJRKNS_9allocatorIZN5Acorn10Acorn_Dirt4initEvEUlRNS2_7ContextEE48_EEEEENS_5tupleIJDpOT_EEESD_, symObjAddr: 0x296D64, symBinAddr: 0x100298054, symSize: 0x1F8 }
  - { offsetInCU: 0xB59F1, offset: 0xB59F1, size: 0x8, addend: 0x0, symName: __ZNSt3__13getB8ue170006ILm0EJRKNS_9allocatorIZN5Acorn10Acorn_Dirt4initEvEUlRNS2_7ContextEE48_EEEEERNS_13tuple_elementIXT_ENS_5tupleIJDpT0_EEEE4typeERSE_, symObjAddr: 0x2978F8, symBinAddr: 0x100298BE8, symSize: 0x24 }
  - { offsetInCU: 0xB5A34, offset: 0xB5A34, size: 0x8, addend: 0x0, symName: __ZNSt3__18__invokeB8ue170006IRZN5Acorn10Acorn_Dirt4initEvEUlRNS1_7ContextEE48_JS4_EEEDTclclsr3stdE7declvalIT_EEspclsr3stdE7declvalIT0_EEEEOS7_DpOS8_, symObjAddr: 0x297A0C, symBinAddr: 0x100298CFC, symSize: 0x2C }
  - { offsetInCU: 0xB5BE4, offset: 0xB5BE4, size: 0x8, addend: 0x0, symName: __ZNSt3__116forward_as_tupleB8ue170006IJZN5Acorn10Acorn_Dirt4initEvEUlRNS1_7ContextEE49_EEENS_5tupleIJDpOT_EEES9_, symObjAddr: 0x2991C8, symBinAddr: 0x10029A4B8, symSize: 0x1F8 }
  - { offsetInCU: 0xB5C1E, offset: 0xB5C1E, size: 0x8, addend: 0x0, symName: __ZNSt3__116forward_as_tupleB8ue170006IJNS_9allocatorIZN5Acorn10Acorn_Dirt4initEvEUlRNS2_7ContextEE49_EEEEENS_5tupleIJDpOT_EEESB_, symObjAddr: 0x2993C0, symBinAddr: 0x10029A6B0, symSize: 0x1F8 }
  - { offsetInCU: 0xB5C82, offset: 0xB5C82, size: 0x8, addend: 0x0, symName: __ZNSt3__13getB8ue170006ILm0EJOZN5Acorn10Acorn_Dirt4initEvEUlRNS1_7ContextEE49_EEERNS_13tuple_elementIXT_ENS_5tupleIJDpT0_EEEE4typeERSB_, symObjAddr: 0x29A2A4, symBinAddr: 0x10029B594, symSize: 0x24 }
  - { offsetInCU: 0xB5CC4, offset: 0xB5CC4, size: 0x8, addend: 0x0, symName: __ZNSt3__13getB8ue170006ILm0EJONS_9allocatorIZN5Acorn10Acorn_Dirt4initEvEUlRNS2_7ContextEE49_EEEEERNS_13tuple_elementIXT_ENS_5tupleIJDpT0_EEEE4typeERSD_, symObjAddr: 0x29A328, symBinAddr: 0x10029B618, symSize: 0x24 }
  - { offsetInCU: 0xB61EA, offset: 0xB61EA, size: 0x8, addend: 0x0, symName: __ZNSt3__116forward_as_tupleB8ue170006IJRKZN5Acorn10Acorn_Dirt4initEvEUlRNS1_7ContextEE49_EEENS_5tupleIJDpOT_EEESB_, symObjAddr: 0x29AFBC, symBinAddr: 0x10029C2AC, symSize: 0x1F8 }
  - { offsetInCU: 0xB6239, offset: 0xB6239, size: 0x8, addend: 0x0, symName: __ZNSt3__13getB8ue170006ILm0EJRKZN5Acorn10Acorn_Dirt4initEvEUlRNS1_7ContextEE49_EEERNS_13tuple_elementIXT_ENS_5tupleIJDpT0_EEEE4typeERSC_, symObjAddr: 0x29BB60, symBinAddr: 0x10029CE50, symSize: 0x24 }
  - { offsetInCU: 0xB627B, offset: 0xB627B, size: 0x8, addend: 0x0, symName: __ZNSt3__116forward_as_tupleB8ue170006IJRKNS_9allocatorIZN5Acorn10Acorn_Dirt4initEvEUlRNS2_7ContextEE49_EEEEENS_5tupleIJDpOT_EEESD_, symObjAddr: 0x29C300, symBinAddr: 0x10029D5F0, symSize: 0x1F8 }
  - { offsetInCU: 0xB62CA, offset: 0xB62CA, size: 0x8, addend: 0x0, symName: __ZNSt3__13getB8ue170006ILm0EJRKNS_9allocatorIZN5Acorn10Acorn_Dirt4initEvEUlRNS2_7ContextEE49_EEEEERNS_13tuple_elementIXT_ENS_5tupleIJDpT0_EEEE4typeERSE_, symObjAddr: 0x29CE94, symBinAddr: 0x10029E184, symSize: 0x24 }
  - { offsetInCU: 0xB630D, offset: 0xB630D, size: 0x8, addend: 0x0, symName: __ZNSt3__18__invokeB8ue170006IRZN5Acorn10Acorn_Dirt4initEvEUlRNS1_7ContextEE49_JS4_EEEDTclclsr3stdE7declvalIT_EEspclsr3stdE7declvalIT0_EEEEOS7_DpOS8_, symObjAddr: 0x29CFA8, symBinAddr: 0x10029E298, symSize: 0x2C }
  - { offsetInCU: 0xB6D89, offset: 0xB6D89, size: 0x8, addend: 0x0, symName: __ZNSt3__110__str_findB8ue170006IcmNS_11char_traitsIcEELm18446744073709551615EEET0_PKT_S3_S6_S3_S3_, symObjAddr: 0x2A44A0, symBinAddr: 0x1002A5790, symSize: 0xF8 }
  - { offsetInCU: 0xB6E30, offset: 0xB6E30, size: 0x8, addend: 0x0, symName: __ZNSt3__118__search_substringB8ue170006IcNS_11char_traitsIcEEEEPKT_S5_S5_S5_S5_, symObjAddr: 0x2A4598, symBinAddr: 0x1002A5888, symSize: 0x3F8 }
  - { offsetInCU: 0xB6ED4, offset: 0xB6ED4, size: 0x8, addend: 0x0, symName: __ZNSt3__118__constexpr_memchrB8ue170006IKccEEPT_S3_T0_m, symObjAddr: 0x2A4AB0, symBinAddr: 0x1002A5DA0, symSize: 0x2C4 }
  - { offsetInCU: 0xB75A2, offset: 0xB75A2, size: 0x8, addend: 0x0, symName: '__ZNSt3__116forward_as_tupleB8ue170006IJZN5AcornL11burn_instrsERKNS_12basic_stringIcNS_11char_traitsIcEENS_9allocatorIcEEEEE3$_2EEENS_5tupleIJDpOT_EEESE_', symObjAddr: 0x2A70D8, symBinAddr: 0x1002A83C8, symSize: 0x1F8 }
  - { offsetInCU: 0xB75DD, offset: 0xB75DD, size: 0x8, addend: 0x0, symName: '__ZNSt3__116forward_as_tupleB8ue170006IJNS_9allocatorIZN5AcornL11burn_instrsERKNS_12basic_stringIcNS_11char_traitsIcEENS1_IcEEEEE3$_2EEEEENS_5tupleIJDpOT_EEESF_', symObjAddr: 0x2A72D0, symBinAddr: 0x1002A85C0, symSize: 0x1F8 }
  - { offsetInCU: 0xB7642, offset: 0xB7642, size: 0x8, addend: 0x0, symName: '__ZNSt3__13getB8ue170006ILm0EJOZN5AcornL11burn_instrsERKNS_12basic_stringIcNS_11char_traitsIcEENS_9allocatorIcEEEEE3$_2EEERNS_13tuple_elementIXT_ENS_5tupleIJDpT0_EEEE4typeERSG_', symObjAddr: 0x2A8294, symBinAddr: 0x1002A9584, symSize: 0x24 }
  - { offsetInCU: 0xB7685, offset: 0xB7685, size: 0x8, addend: 0x0, symName: '__ZNSt3__13getB8ue170006ILm0EJONS_9allocatorIZN5AcornL11burn_instrsERKNS_12basic_stringIcNS_11char_traitsIcEENS1_IcEEEEE3$_2EEEEERNS_13tuple_elementIXT_ENS_5tupleIJDpT0_EEEE4typeERSH_', symObjAddr: 0x2A8380, symBinAddr: 0x1002A9670, symSize: 0x24 }
  - { offsetInCU: 0xB785E, offset: 0xB785E, size: 0x8, addend: 0x0, symName: '__ZNSt3__116forward_as_tupleB8ue170006IJRKZN5AcornL11burn_instrsERKNS_12basic_stringIcNS_11char_traitsIcEENS_9allocatorIcEEEEE3$_2EEENS_5tupleIJDpOT_EEESG_', symObjAddr: 0x2A8E54, symBinAddr: 0x1002AA144, symSize: 0x1F8 }
  - { offsetInCU: 0xB78AE, offset: 0xB78AE, size: 0x8, addend: 0x0, symName: '__ZNSt3__13getB8ue170006ILm0EJRKZN5AcornL11burn_instrsERKNS_12basic_stringIcNS_11char_traitsIcEENS_9allocatorIcEEEEE3$_2EEERNS_13tuple_elementIXT_ENS_5tupleIJDpT0_EEEE4typeERSH_', symObjAddr: 0x2A99F4, symBinAddr: 0x1002AACE4, symSize: 0x24 }
  - { offsetInCU: 0xB78F1, offset: 0xB78F1, size: 0x8, addend: 0x0, symName: '__ZNSt3__116forward_as_tupleB8ue170006IJRKNS_9allocatorIZN5AcornL11burn_instrsERKNS_12basic_stringIcNS_11char_traitsIcEENS1_IcEEEEE3$_2EEEEENS_5tupleIJDpOT_EEESH_', symObjAddr: 0x2AA1FC, symBinAddr: 0x1002AB4EC, symSize: 0x1F8 }
  - { offsetInCU: 0xB7941, offset: 0xB7941, size: 0x8, addend: 0x0, symName: '__ZNSt3__13getB8ue170006ILm0EJRKNS_9allocatorIZN5AcornL11burn_instrsERKNS_12basic_stringIcNS_11char_traitsIcEENS1_IcEEEEE3$_2EEEEERNS_13tuple_elementIXT_ENS_5tupleIJDpT0_EEEE4typeERSI_', symObjAddr: 0x2AAE48, symBinAddr: 0x1002AC138, symSize: 0x24 }
  - { offsetInCU: 0xB7984, offset: 0xB7984, size: 0x8, addend: 0x0, symName: '__ZNSt3__18__invokeB8ue170006IRZN5AcornL11burn_instrsERKNS_12basic_stringIcNS_11char_traitsIcEENS_9allocatorIcEEEEE3$_2JRS7_EEEDTclclsr3stdE7declvalIT_EEspclsr3stdE7declvalIT0_EEEEOSD_DpOSE_', symObjAddr: 0x2AAF70, symBinAddr: 0x1002AC260, symSize: 0x2C }
  - { offsetInCU: 0xB7B35, offset: 0xB7B35, size: 0x8, addend: 0x0, symName: '__ZNSt3__116forward_as_tupleB8ue170006IJZN5AcornL18resolve_instr_fileERKNS_12basic_stringIcNS_11char_traitsIcEENS_9allocatorIcEEEEE3$_3EEENS_5tupleIJDpOT_EEESE_', symObjAddr: 0x2AC838, symBinAddr: 0x1002ADB28, symSize: 0x1F8 }
  - { offsetInCU: 0xB7B70, offset: 0xB7B70, size: 0x8, addend: 0x0, symName: '__ZNSt3__116forward_as_tupleB8ue170006IJNS_9allocatorIZN5AcornL18resolve_instr_fileERKNS_12basic_stringIcNS_11char_traitsIcEENS1_IcEEEEE3$_3EEEEENS_5tupleIJDpOT_EEESF_', symObjAddr: 0x2ACA30, symBinAddr: 0x1002ADD20, symSize: 0x1F8 }
  - { offsetInCU: 0xB7BD5, offset: 0xB7BD5, size: 0x8, addend: 0x0, symName: '__ZNSt3__13getB8ue170006ILm0EJOZN5AcornL18resolve_instr_fileERKNS_12basic_stringIcNS_11char_traitsIcEENS_9allocatorIcEEEEE3$_3EEERNS_13tuple_elementIXT_ENS_5tupleIJDpT0_EEEE4typeERSG_', symObjAddr: 0x2AD904, symBinAddr: 0x1002AEBF4, symSize: 0x24 }
  - { offsetInCU: 0xB7C18, offset: 0xB7C18, size: 0x8, addend: 0x0, symName: '__ZNSt3__13getB8ue170006ILm0EJONS_9allocatorIZN5AcornL18resolve_instr_fileERKNS_12basic_stringIcNS_11char_traitsIcEENS1_IcEEEEE3$_3EEEEERNS_13tuple_elementIXT_ENS_5tupleIJDpT0_EEEE4typeERSH_', symObjAddr: 0x2AD988, symBinAddr: 0x1002AEC78, symSize: 0x24 }
  - { offsetInCU: 0xB814C, offset: 0xB814C, size: 0x8, addend: 0x0, symName: '__ZNSt3__116forward_as_tupleB8ue170006IJRKZN5AcornL18resolve_instr_fileERKNS_12basic_stringIcNS_11char_traitsIcEENS_9allocatorIcEEEEE3$_3EEENS_5tupleIJDpOT_EEESG_', symObjAddr: 0x2AE61C, symBinAddr: 0x1002AF90C, symSize: 0x1F8 }
  - { offsetInCU: 0xB819C, offset: 0xB819C, size: 0x8, addend: 0x0, symName: '__ZNSt3__13getB8ue170006ILm0EJRKZN5AcornL18resolve_instr_fileERKNS_12basic_stringIcNS_11char_traitsIcEENS_9allocatorIcEEEEE3$_3EEERNS_13tuple_elementIXT_ENS_5tupleIJDpT0_EEEE4typeERSH_', symObjAddr: 0x2AF1B0, symBinAddr: 0x1002B04A0, symSize: 0x24 }
  - { offsetInCU: 0xB81DF, offset: 0xB81DF, size: 0x8, addend: 0x0, symName: '__ZNSt3__116forward_as_tupleB8ue170006IJRKNS_9allocatorIZN5AcornL18resolve_instr_fileERKNS_12basic_stringIcNS_11char_traitsIcEENS1_IcEEEEE3$_3EEEEENS_5tupleIJDpOT_EEESH_', symObjAddr: 0x2AF950, symBinAddr: 0x1002B0C40, symSize: 0x1F8 }
  - { offsetInCU: 0xB822F, offset: 0xB822F, size: 0x8, addend: 0x0, symName: '__ZNSt3__13getB8ue170006ILm0EJRKNS_9allocatorIZN5AcornL18resolve_instr_fileERKNS_12basic_stringIcNS_11char_traitsIcEENS1_IcEEEEE3$_3EEEEERNS_13tuple_elementIXT_ENS_5tupleIJDpT0_EEEE4typeERSI_', symObjAddr: 0x2B04E4, symBinAddr: 0x1002B17D4, symSize: 0x24 }
  - { offsetInCU: 0xB8272, offset: 0xB8272, size: 0x8, addend: 0x0, symName: '__ZNSt3__18__invokeB8ue170006IRZN5AcornL18resolve_instr_fileERKNS_12basic_stringIcNS_11char_traitsIcEENS_9allocatorIcEEEEE3$_3JRS7_EEEDTclclsr3stdE7declvalIT_EEspclsr3stdE7declvalIT0_EEEEOSD_DpOSE_', symObjAddr: 0x2B05F8, symBinAddr: 0x1002B18E8, symSize: 0x2C }
  - { offsetInCU: 0xB8909, offset: 0xB8909, size: 0x8, addend: 0x0, symName: '__ZNSt3__116forward_as_tupleB8ue170006IJZN5AcornL9JIT_AcornEiE3$_4EEENS_5tupleIJDpOT_EEES6_', symObjAddr: 0x2B8D24, symBinAddr: 0x1002BA014, symSize: 0x1F8 }
  - { offsetInCU: 0xB8944, offset: 0xB8944, size: 0x8, addend: 0x0, symName: '__ZNSt3__116forward_as_tupleB8ue170006IJNS_9allocatorIZN5AcornL9JIT_AcornEiE3$_4EEEEENS_5tupleIJDpOT_EEES8_', symObjAddr: 0x2B8F1C, symBinAddr: 0x1002BA20C, symSize: 0x1F8 }
  - { offsetInCU: 0xB89A9, offset: 0xB89A9, size: 0x8, addend: 0x0, symName: '__ZNSt3__13getB8ue170006ILm0EJOZN5AcornL9JIT_AcornEiE3$_4EEERNS_13tuple_elementIXT_ENS_5tupleIJDpT0_EEEE4typeERS8_', symObjAddr: 0x2B9EE0, symBinAddr: 0x1002BB1D0, symSize: 0x24 }
  - { offsetInCU: 0xB89EC, offset: 0xB89EC, size: 0x8, addend: 0x0, symName: '__ZNSt3__13getB8ue170006ILm0EJONS_9allocatorIZN5AcornL9JIT_AcornEiE3$_4EEEEERNS_13tuple_elementIXT_ENS_5tupleIJDpT0_EEEE4typeERSA_', symObjAddr: 0x2B9FCC, symBinAddr: 0x1002BB2BC, symSize: 0x24 }
  - { offsetInCU: 0xB8BC5, offset: 0xB8BC5, size: 0x8, addend: 0x0, symName: '__ZNSt3__116forward_as_tupleB8ue170006IJRKZN5AcornL9JIT_AcornEiE3$_4EEENS_5tupleIJDpOT_EEES8_', symObjAddr: 0x2BAAA0, symBinAddr: 0x1002BBD90, symSize: 0x1F8 }
  - { offsetInCU: 0xB8C15, offset: 0xB8C15, size: 0x8, addend: 0x0, symName: '__ZNSt3__13getB8ue170006ILm0EJRKZN5AcornL9JIT_AcornEiE3$_4EEERNS_13tuple_elementIXT_ENS_5tupleIJDpT0_EEEE4typeERS9_', symObjAddr: 0x2BB640, symBinAddr: 0x1002BC930, symSize: 0x24 }
  - { offsetInCU: 0xB8C58, offset: 0xB8C58, size: 0x8, addend: 0x0, symName: '__ZNSt3__116forward_as_tupleB8ue170006IJRKNS_9allocatorIZN5AcornL9JIT_AcornEiE3$_4EEEEENS_5tupleIJDpOT_EEESA_', symObjAddr: 0x2BBE48, symBinAddr: 0x1002BD138, symSize: 0x1F8 }
  - { offsetInCU: 0xB8CA8, offset: 0xB8CA8, size: 0x8, addend: 0x0, symName: '__ZNSt3__13getB8ue170006ILm0EJRKNS_9allocatorIZN5AcornL9JIT_AcornEiE3$_4EEEEERNS_13tuple_elementIXT_ENS_5tupleIJDpT0_EEEE4typeERSB_', symObjAddr: 0x2BCA94, symBinAddr: 0x1002BDD84, symSize: 0x24 }
  - { offsetInCU: 0xB8CEB, offset: 0xB8CEB, size: 0x8, addend: 0x0, symName: '__ZNSt3__18__invokeB8ue170006IRZN5AcornL9JIT_AcornEiE3$_4JRNS_12basic_stringIcNS_11char_traitsIcEENS_9allocatorIcEEEEEEEDTclclsr3stdE7declvalIT_EEspclsr3stdE7declvalIT0_EEEEOSB_DpOSC_', symObjAddr: 0x2BCBBC, symBinAddr: 0x1002BDEAC, symSize: 0x2C }
  - { offsetInCU: 0xB8D38, offset: 0xB8D38, size: 0x8, addend: 0x0, symName: __ZNSt3__1miB8ue170006IPKcPcEEDTmicldtfp_4baseEcldtfp0_4baseEERKNS_11__wrap_iterIT_EERKNS5_IT0_EE, symObjAddr: 0x2BDE44, symBinAddr: 0x1002BF134, symSize: 0x40 }
  - { offsetInCU: 0xB8D84, offset: 0xB8D84, size: 0x8, addend: 0x0, symName: __ZNSt3__1miB8ue170006IPKcS2_EEDTmicldtfp_4baseEcldtfp0_4baseEERKNS_11__wrap_iterIT_EERKNS4_IT0_EE, symObjAddr: 0x2BDE84, symBinAddr: 0x1002BF174, symSize: 0x40 }
  - { offsetInCU: 0xB8FBD, offset: 0xB8FBD, size: 0x8, addend: 0x0, symName: __ZNSt3__120__throw_length_errorB8ue170006EPKc, symObjAddr: 0x2BEBD0, symBinAddr: 0x1002BFEC0, symSize: 0x68 }
  - { offsetInCU: 0xB8FE7, offset: 0xB8FE7, size: 0x8, addend: 0x0, symName: __ZNSt3__14copyB8ue170006IPKcPcEET0_T_S5_S4_, symObjAddr: 0x2BEDB4, symBinAddr: 0x1002C00A4, symSize: 0x26C }
  - { offsetInCU: 0xB9044, offset: 0xB9044, size: 0x8, addend: 0x0, symName: __ZNSt3__16__copyB8ue170006INS_17_ClassicAlgPolicyEPKcS3_PcEENS_4pairIT0_T2_EES6_T1_S7_, symObjAddr: 0x2BF020, symBinAddr: 0x1002C0310, symSize: 0x22C }
  - { offsetInCU: 0xB90B3, offset: 0xB90B3, size: 0x8, addend: 0x0, symName: __ZNSt3__123__dispatch_copy_or_moveB8ue170006INS_17_ClassicAlgPolicyENS_11__copy_loopIS1_EENS_14__copy_trivialEPKcS6_PcEENS_4pairIT2_T4_EES9_T3_SA_, symObjAddr: 0x2BF24C, symBinAddr: 0x1002C053C, symSize: 0x22C }
  - { offsetInCU: 0xB9134, offset: 0xB9134, size: 0x8, addend: 0x0, symName: __ZNSt3__121__unwrap_and_dispatchB8ue170006INS_10__overloadINS_11__copy_loopINS_17_ClassicAlgPolicyEEENS_14__copy_trivialEEEPKcS8_PcLi0EEENS_4pairIT0_T2_EESB_T1_SC_, symObjAddr: 0x2BF478, symBinAddr: 0x1002C0768, symSize: 0x5A4 }
  - { offsetInCU: 0xB91CF, offset: 0xB91CF, size: 0x8, addend: 0x0, symName: __ZNSt3__114__unwrap_rangeB8ue170006IPKcS2_EENS_4pairIT0_S4_EET_S6_, symObjAddr: 0x2BFA1C, symBinAddr: 0x1002C0D0C, symSize: 0x350 }
  - { offsetInCU: 0xB9366, offset: 0xB9366, size: 0x8, addend: 0x0, symName: __ZNSt3__113__unwrap_iterB8ue170006IPcNS_18__unwrap_iter_implIS1_Lb1EEELi0EEEDTclsrT0_8__unwrapclsr3stdE7declvalIT_EEEES5_, symObjAddr: 0x2BFF9C, symBinAddr: 0x1002C128C, symSize: 0x24 }
  - { offsetInCU: 0xB93AA, offset: 0xB93AA, size: 0x8, addend: 0x0, symName: __ZNSt3__19make_pairB8ue170006IPKcPcEENS_4pairINS_18__unwrap_ref_decayIT_E4typeENS5_IT0_E4typeEEEOS6_OS9_, symObjAddr: 0x2BFFC0, symBinAddr: 0x1002C12B0, symSize: 0x20C }
  - { offsetInCU: 0xB93FB, offset: 0xB93FB, size: 0x8, addend: 0x0, symName: __ZNSt3__114__rewrap_rangeB8ue170006IPKcS2_EET_S3_T0_, symObjAddr: 0x2C01CC, symBinAddr: 0x1002C14BC, symSize: 0x2C }
  - { offsetInCU: 0xB9447, offset: 0xB9447, size: 0x8, addend: 0x0, symName: __ZNSt3__113__rewrap_iterB8ue170006IPcS1_NS_18__unwrap_iter_implIS1_Lb1EEEEET_S4_T0_, symObjAddr: 0x2C01F8, symBinAddr: 0x1002C14E8, symSize: 0x48 }
  - { offsetInCU: 0xB949C, offset: 0xB949C, size: 0x8, addend: 0x0, symName: __ZNSt3__19make_pairB8ue170006IPKcS2_EENS_4pairINS_18__unwrap_ref_decayIT_E4typeENS4_IT0_E4typeEEEOS5_OS8_, symObjAddr: 0x2C0240, symBinAddr: 0x1002C1530, symSize: 0x20C }
  - { offsetInCU: 0xB94ED, offset: 0xB94ED, size: 0x8, addend: 0x0, symName: __ZNSt3__113__unwrap_iterB8ue170006IPKcNS_18__unwrap_iter_implIS2_Lb1EEELi0EEEDTclsrT0_8__unwrapclsr3stdE7declvalIT_EEEES6_, symObjAddr: 0x2C044C, symBinAddr: 0x1002C173C, symSize: 0x24 }
  - { offsetInCU: 0xB9658, offset: 0xB9658, size: 0x8, addend: 0x0, symName: __ZNSt3__119__copy_trivial_implB8ue170006IKccEENS_4pairIPT_PT0_EES4_S4_S6_, symObjAddr: 0x2C0608, symBinAddr: 0x1002C18F8, symSize: 0x3AC }
  - { offsetInCU: 0xB96C8, offset: 0xB96C8, size: 0x8, addend: 0x0, symName: __ZNSt3__119__constexpr_memmoveB8ue170006IcKcLi0EEEPT_S3_PT0_NS_15__element_countE, symObjAddr: 0x2C09B4, symBinAddr: 0x1002C1CA4, symSize: 0x64 }
  - { offsetInCU: 0xB9737, offset: 0xB9737, size: 0x8, addend: 0x0, symName: __ZNSt3__19make_pairB8ue170006IRPKcPcEENS_4pairINS_18__unwrap_ref_decayIT_E4typeENS6_IT0_E4typeEEEOS7_OSA_, symObjAddr: 0x2C0A18, symBinAddr: 0x1002C1D08, symSize: 0x20C }
  - { offsetInCU: 0xB97DB, offset: 0xB97DB, size: 0x8, addend: 0x0, symName: __ZNSt3__113__rewrap_iterB8ue170006IPKcS2_NS_18__unwrap_iter_implIS2_Lb1EEEEET_S5_T0_, symObjAddr: 0x2C0F30, symBinAddr: 0x1002C2220, symSize: 0x48 }
  - { offsetInCU: 0xB9830, offset: 0xB9830, size: 0x8, addend: 0x0, symName: __ZNSt3__16fill_nB8ue170006IPcmcEET_S2_T0_RKT1_, symObjAddr: 0x2C1008, symBinAddr: 0x1002C22F8, symSize: 0x44 }
  - { offsetInCU: 0xB9893, offset: 0xB9893, size: 0x8, addend: 0x0, symName: __ZNSt3__18__fill_nB8ue170006IPcmcEET_S2_T0_RKT1_, symObjAddr: 0x2C104C, symBinAddr: 0x1002C233C, symSize: 0x138 }
  - { offsetInCU: 0xB98F6, offset: 0xB98F6, size: 0x8, addend: 0x0, symName: __ZNSt3__121__convert_to_integralB8ue170006Em, symObjAddr: 0x2C1184, symBinAddr: 0x1002C2474, symSize: 0x14 }
  - { offsetInCU: 0xB9923, offset: 0xB9923, size: 0x8, addend: 0x0, symName: __ZNSt3__19__reverseB8ue170006INS_17_ClassicAlgPolicyENS_11__wrap_iterIPcEES4_EEvT0_T1_, symObjAddr: 0x2C2204, symBinAddr: 0x1002C34F4, symSize: 0x348 }
  - { offsetInCU: 0xB997D, offset: 0xB997D, size: 0x8, addend: 0x0, symName: __ZNSt3__114__reverse_implB8ue170006INS_17_ClassicAlgPolicyENS_11__wrap_iterIPcEEEEvT0_S5_NS_26random_access_iterator_tagE, symObjAddr: 0x2C254C, symBinAddr: 0x1002C383C, symSize: 0x2B4 }
  - { offsetInCU: 0xB99D8, offset: 0xB99D8, size: 0x8, addend: 0x0, symName: __ZNSt3__1neB8ue170006IPcEEbRKNS_11__wrap_iterIT_EES6_, symObjAddr: 0x2C2800, symBinAddr: 0x1002C3AF0, symSize: 0x34 }
  - { offsetInCU: 0xB9A1B, offset: 0xB9A1B, size: 0x8, addend: 0x0, symName: __ZNSt3__1ltB8ue170006IPcEEbRKNS_11__wrap_iterIT_EES6_, symObjAddr: 0x2C2834, symBinAddr: 0x1002C3B24, symSize: 0x48 }
  - { offsetInCU: 0xB9AA2, offset: 0xB9AA2, size: 0x8, addend: 0x0, symName: __ZNSt3__1eqB8ue170006IPcEEbRKNS_11__wrap_iterIT_EES6_, symObjAddr: 0x2C2BDC, symBinAddr: 0x1002C3ECC, symSize: 0x48 }
  - { offsetInCU: 0xB9AE6, offset: 0xB9AE6, size: 0x8, addend: 0x0, symName: __ZNSt3__19iter_swapB8ue170006INS_11__wrap_iterIPcEES3_EEvT_T0_, symObjAddr: 0x2C2C24, symBinAddr: 0x1002C3F14, symSize: 0x288 }
  - { offsetInCU: 0xB9B36, offset: 0xB9B36, size: 0x8, addend: 0x0, symName: __ZNSt3__14swapB8ue170006IcEENS_9enable_ifIXaasr21is_move_constructibleIT_EE5valuesr18is_move_assignableIS2_EE5valueEvE4typeERS2_S5_, symObjAddr: 0x2C2EAC, symBinAddr: 0x1002C419C, symSize: 0x1C4 }
  - { offsetInCU: 0xB9B88, offset: 0xB9B88, size: 0x8, addend: 0x0, symName: __ZNSt3__18distanceB8ue170006IPKcEENS_15iterator_traitsIT_E15difference_typeES4_S4_, symObjAddr: 0x2C34D4, symBinAddr: 0x1002C47C4, symSize: 0x2C }
  - { offsetInCU: 0xB9BCB, offset: 0xB9BCB, size: 0x8, addend: 0x0, symName: __ZNSt3__110__distanceB8ue170006IPKcEENS_15iterator_traitsIT_E15difference_typeES4_S4_NS_26random_access_iterator_tagE, symObjAddr: 0x2C398C, symBinAddr: 0x1002C4C7C, symSize: 0x20 }
  - { offsetInCU: 0xB9C18, offset: 0xB9C18, size: 0x8, addend: 0x0, symName: __ZNSt3__119__allocate_at_leastB8ue170006INS_9allocatorIcEEEENS_19__allocation_resultINS_16allocator_traitsIT_E7pointerEEERS5_m, symObjAddr: 0x2C39AC, symBinAddr: 0x1002C4C9C, symSize: 0x28C }
  - { offsetInCU: 0xB9DC1, offset: 0xB9DC1, size: 0x8, addend: 0x0, symName: '__ZNSt3__116forward_as_tupleB8ue170006IJZN5Acorn14init_node_typeEvE3$_0EEENS_5tupleIJDpOT_EEES6_', symObjAddr: 0x2CB5E0, symBinAddr: 0x1002CC8D0, symSize: 0x1F8 }
  - { offsetInCU: 0xB9DFC, offset: 0xB9DFC, size: 0x8, addend: 0x0, symName: '__ZNSt3__116forward_as_tupleB8ue170006IJNS_9allocatorIZN5Acorn14init_node_typeEvE3$_0EEEEENS_5tupleIJDpOT_EEES8_', symObjAddr: 0x2CB7D8, symBinAddr: 0x1002CCAC8, symSize: 0x1F8 }
  - { offsetInCU: 0xB9E61, offset: 0xB9E61, size: 0x8, addend: 0x0, symName: '__ZNSt3__13getB8ue170006ILm0EJOZN5Acorn14init_node_typeEvE3$_0EEERNS_13tuple_elementIXT_ENS_5tupleIJDpT0_EEEE4typeERS8_', symObjAddr: 0x2CC6BC, symBinAddr: 0x1002CD9AC, symSize: 0x24 }
  - { offsetInCU: 0xB9EA4, offset: 0xB9EA4, size: 0x8, addend: 0x0, symName: '__ZNSt3__13getB8ue170006ILm0EJONS_9allocatorIZN5Acorn14init_node_typeEvE3$_0EEEEERNS_13tuple_elementIXT_ENS_5tupleIJDpT0_EEEE4typeERSA_', symObjAddr: 0x2CC740, symBinAddr: 0x1002CDA30, symSize: 0x24 }
  - { offsetInCU: 0xBA3D8, offset: 0xBA3D8, size: 0x8, addend: 0x0, symName: '__ZNSt3__116forward_as_tupleB8ue170006IJRKZN5Acorn14init_node_typeEvE3$_0EEENS_5tupleIJDpOT_EEES8_', symObjAddr: 0x2CD3D4, symBinAddr: 0x1002CE6C4, symSize: 0x1F8 }
  - { offsetInCU: 0xBA428, offset: 0xBA428, size: 0x8, addend: 0x0, symName: '__ZNSt3__13getB8ue170006ILm0EJRKZN5Acorn14init_node_typeEvE3$_0EEERNS_13tuple_elementIXT_ENS_5tupleIJDpT0_EEEE4typeERS9_', symObjAddr: 0x2CDF78, symBinAddr: 0x1002CF268, symSize: 0x24 }
  - { offsetInCU: 0xBA46B, offset: 0xBA46B, size: 0x8, addend: 0x0, symName: '__ZNSt3__116forward_as_tupleB8ue170006IJRKNS_9allocatorIZN5Acorn14init_node_typeEvE3$_0EEEEENS_5tupleIJDpOT_EEESA_', symObjAddr: 0x2CE718, symBinAddr: 0x1002CFA08, symSize: 0x1F8 }
  - { offsetInCU: 0xBA4BB, offset: 0xBA4BB, size: 0x8, addend: 0x0, symName: '__ZNSt3__13getB8ue170006ILm0EJRKNS_9allocatorIZN5Acorn14init_node_typeEvE3$_0EEEEERNS_13tuple_elementIXT_ENS_5tupleIJDpT0_EEEE4typeERSB_', symObjAddr: 0x2CF2AC, symBinAddr: 0x1002D059C, symSize: 0x24 }
  - { offsetInCU: 0xBA4FE, offset: 0xBA4FE, size: 0x8, addend: 0x0, symName: '__ZNSt3__18__invokeB8ue170006IRZN5Acorn14init_node_typeEvE3$_0JRNS1_3PtrEEEEDTclclsr3stdE7declvalIT_EEspclsr3stdE7declvalIT0_EEEEOS6_DpOS7_', symObjAddr: 0x2CF3C0, symBinAddr: 0x1002D06B0, symSize: 0x2C }
  - { offsetInCU: 0xBA6AF, offset: 0xBA6AF, size: 0x8, addend: 0x0, symName: '__ZNSt3__116forward_as_tupleB8ue170006IJZN5Acorn15init_value_typeEvE3$_1EEENS_5tupleIJDpOT_EEES6_', symObjAddr: 0x2D31B4, symBinAddr: 0x1002D44A4, symSize: 0x1F8 }
  - { offsetInCU: 0xBA6EA, offset: 0xBA6EA, size: 0x8, addend: 0x0, symName: '__ZNSt3__116forward_as_tupleB8ue170006IJNS_9allocatorIZN5Acorn15init_value_typeEvE3$_1EEEEENS_5tupleIJDpOT_EEES8_', symObjAddr: 0x2D33AC, symBinAddr: 0x1002D469C, symSize: 0x1F8 }
  - { offsetInCU: 0xBA74F, offset: 0xBA74F, size: 0x8, addend: 0x0, symName: '__ZNSt3__13getB8ue170006ILm0EJOZN5Acorn15init_value_typeEvE3$_1EEERNS_13tuple_elementIXT_ENS_5tupleIJDpT0_EEEE4typeERS8_', symObjAddr: 0x2D4290, symBinAddr: 0x1002D5580, symSize: 0x24 }
  - { offsetInCU: 0xBA792, offset: 0xBA792, size: 0x8, addend: 0x0, symName: '__ZNSt3__13getB8ue170006ILm0EJONS_9allocatorIZN5Acorn15init_value_typeEvE3$_1EEEEERNS_13tuple_elementIXT_ENS_5tupleIJDpT0_EEEE4typeERSA_', symObjAddr: 0x2D4314, symBinAddr: 0x1002D5604, symSize: 0x24 }
  - { offsetInCU: 0xBACC6, offset: 0xBACC6, size: 0x8, addend: 0x0, symName: '__ZNSt3__116forward_as_tupleB8ue170006IJRKZN5Acorn15init_value_typeEvE3$_1EEENS_5tupleIJDpOT_EEES8_', symObjAddr: 0x2D4FA8, symBinAddr: 0x1002D6298, symSize: 0x1F8 }
  - { offsetInCU: 0xBAD16, offset: 0xBAD16, size: 0x8, addend: 0x0, symName: '__ZNSt3__13getB8ue170006ILm0EJRKZN5Acorn15init_value_typeEvE3$_1EEERNS_13tuple_elementIXT_ENS_5tupleIJDpT0_EEEE4typeERS9_', symObjAddr: 0x2D5B4C, symBinAddr: 0x1002D6E3C, symSize: 0x24 }
  - { offsetInCU: 0xBAD59, offset: 0xBAD59, size: 0x8, addend: 0x0, symName: '__ZNSt3__116forward_as_tupleB8ue170006IJRKNS_9allocatorIZN5Acorn15init_value_typeEvE3$_1EEEEENS_5tupleIJDpOT_EEESA_', symObjAddr: 0x2D62EC, symBinAddr: 0x1002D75DC, symSize: 0x1F8 }
  - { offsetInCU: 0xBADA9, offset: 0xBADA9, size: 0x8, addend: 0x0, symName: '__ZNSt3__13getB8ue170006ILm0EJRKNS_9allocatorIZN5Acorn15init_value_typeEvE3$_1EEEEERNS_13tuple_elementIXT_ENS_5tupleIJDpT0_EEEE4typeERSB_', symObjAddr: 0x2D6E80, symBinAddr: 0x1002D8170, symSize: 0x24 }
  - { offsetInCU: 0xBADEC, offset: 0xBADEC, size: 0x8, addend: 0x0, symName: '__ZNSt3__18__invokeB8ue170006IRZN5Acorn15init_value_typeEvE3$_1JRNS1_3PtrEEEEDTclclsr3stdE7declvalIT_EEspclsr3stdE7declvalIT0_EEEEOS6_DpOS7_', symObjAddr: 0x2D6F94, symBinAddr: 0x1002D8284, symSize: 0x2C }
  - { offsetInCU: 0xBAE39, offset: 0xBAE39, size: 0x8, addend: 0x0, symName: __ZNSt3__14findB8ue170006INS_11__wrap_iterIPcEEcEET_S4_S4_RKT0_, symObjAddr: 0x2D7938, symBinAddr: 0x1002D8C28, symSize: 0x4AC }
  - { offsetInCU: 0xBAEB0, offset: 0xBAEB0, size: 0x8, addend: 0x0, symName: __ZNSt3__113__rewrap_iterB8ue170006INS_11__wrap_iterIPcEES2_NS_18__unwrap_iter_implIS3_Lb1EEEEET_S6_T0_, symObjAddr: 0x2D7DE4, symBinAddr: 0x1002D90D4, symSize: 0x338 }
  - { offsetInCU: 0xBAF0A, offset: 0xBAF0A, size: 0x8, addend: 0x0, symName: __ZNSt3__111__find_implB8ue170006IccNS_10__identityELi0EEEPT_S3_S3_RKT0_RT1_, symObjAddr: 0x2D811C, symBinAddr: 0x1002D940C, symSize: 0x108 }
  - { offsetInCU: 0xBAF92, offset: 0xBAF92, size: 0x8, addend: 0x0, symName: __ZNSt3__113__unwrap_iterB8ue170006INS_11__wrap_iterIPcEENS_18__unwrap_iter_implIS3_Lb1EEELi0EEEDTclsrT0_8__unwrapclsr3stdE7declvalIT_EEEES7_, symObjAddr: 0x2D8224, symBinAddr: 0x1002D9514, symSize: 0x274 }
  - { offsetInCU: 0xBB02D, offset: 0xBB02D, size: 0x8, addend: 0x0, symName: __ZNSt3__112__to_addressB8ue170006INS_11__wrap_iterIPcEEvEEu7__decayIDTclsr19__to_address_helperIT_EE6__callclsr3stdE7declvalIRKS4_EEEEES6_, symObjAddr: 0x2D8764, symBinAddr: 0x1002D9A54, symSize: 0x24 }
  - { offsetInCU: 0xBB0CB, offset: 0xBB0CB, size: 0x8, addend: 0x0, symName: __ZNSt3__118__constexpr_memchrB8ue170006IccEEPT_S2_T0_m, symObjAddr: 0x2D8B7C, symBinAddr: 0x1002D9E6C, symSize: 0x2C4 }
  - { offsetInCU: 0xBFAA1, offset: 0xBFAA1, size: 0x8, addend: 0x0, symName: __ZSt28__throw_bad_array_new_lengthB8ue170006v, symObjAddr: 0x30878, symBinAddr: 0x100031B68, symSize: 0x38 }
  - { offsetInCU: 0xBFD7D, offset: 0xBFD7D, size: 0x8, addend: 0x0, symName: _.str.4, symObjAddr: 0x2F4740, symBinAddr: 0x1002F8C40, symSize: 0x0 }
  - { offsetInCU: 0xBFD9C, offset: 0xBFD9C, size: 0x8, addend: 0x0, symName: _.str.6, symObjAddr: 0x2F4940, symBinAddr: 0x1002F8E40, symSize: 0x0 }
  - { offsetInCU: 0xBFDB9, offset: 0xBFDB9, size: 0x8, addend: 0x0, symName: _.str.8, symObjAddr: 0x2F49C0, symBinAddr: 0x1002F8EC0, symSize: 0x0 }
  - { offsetInCU: 0xBFDD6, offset: 0xBFDD6, size: 0x8, addend: 0x0, symName: _.str.10, symObjAddr: 0x2F4A80, symBinAddr: 0x1002F8F80, symSize: 0x0 }
  - { offsetInCU: 0xBFDE7, offset: 0xBFDE7, size: 0x8, addend: 0x0, symName: _.str.12, symObjAddr: 0x2F4B00, symBinAddr: 0x1002F9000, symSize: 0x0 }
  - { offsetInCU: 0xBFE04, offset: 0xBFE04, size: 0x8, addend: 0x0, symName: _.str.14, symObjAddr: 0x2F4B80, symBinAddr: 0x1002F9080, symSize: 0x0 }
  - { offsetInCU: 0xBFE26, offset: 0xBFE26, size: 0x8, addend: 0x0, symName: _span, symObjAddr: 0xB09060, symBinAddr: 0x1003D0F60, symSize: 0x0 }
  - { offsetInCU: 0xC3279, offset: 0xC3279, size: 0x8, addend: 0x0, symName: _.str.16, symObjAddr: 0x2F4C40, symBinAddr: 0x1002F9140, symSize: 0x0 }
  - { offsetInCU: 0xC3296, offset: 0xC3296, size: 0x8, addend: 0x0, symName: _.str.17, symObjAddr: 0x2F4C60, symBinAddr: 0x1002F9160, symSize: 0x0 }
  - { offsetInCU: 0xC32B3, offset: 0xC32B3, size: 0x8, addend: 0x0, symName: _.str.18, symObjAddr: 0x2F4C80, symBinAddr: 0x1002F9180, symSize: 0x0 }
  - { offsetInCU: 0xC32C4, offset: 0xC32C4, size: 0x8, addend: 0x0, symName: _.str.19, symObjAddr: 0x2F4CA0, symBinAddr: 0x1002F91A0, symSize: 0x0 }
  - { offsetInCU: 0xC32D5, offset: 0xC32D5, size: 0x8, addend: 0x0, symName: _.str.20, symObjAddr: 0x2F4CC0, symBinAddr: 0x1002F91C0, symSize: 0x0 }
  - { offsetInCU: 0xC32FB, offset: 0xC32FB, size: 0x8, addend: 0x0, symName: __ZN5Acorn6labelsE, symObjAddr: 0xB09080, symBinAddr: 0x1003D0F80, symSize: 0x0 }
  - { offsetInCU: 0xC3314, offset: 0xC3314, size: 0x8, addend: 0x0, symName: __ZN5Acorn5typesE, symObjAddr: 0xB090E0, symBinAddr: 0x1003D0FE0, symSize: 0x0 }
  - { offsetInCU: 0xC3B43, offset: 0xC3B43, size: 0x8, addend: 0x0, symName: __ZN5Acorn12undefined_idE, symObjAddr: 0xB09120, symBinAddr: 0x1003D1020, symSize: 0x0 }
  - { offsetInCU: 0xC3B5C, offset: 0xC3B5C, size: 0x8, addend: 0x0, symName: __ZN5Acorn9stages_idE, symObjAddr: 0x2FB8C0, symBinAddr: 0x1003C8000, symSize: 0x0 }
  - { offsetInCU: 0xC3B75, offset: 0xC3B75, size: 0x8, addend: 0x0, symName: __ZN5Acorn6ptr_idE, symObjAddr: 0x2FB8E0, symBinAddr: 0x1003C8020, symSize: 0x0 }
  - { offsetInCU: 0xC3B8E, offset: 0xC3B8E, size: 0x8, addend: 0x0, symName: __ZN5Acorn15handler_type_idE, symObjAddr: 0xB09140, symBinAddr: 0x1003D1040, symSize: 0x0 }
  - { offsetInCU: 0xC3BA7, offset: 0xC3BA7, size: 0x8, addend: 0x0, symName: __ZN5Acorn8float_idE, symObjAddr: 0xB09160, symBinAddr: 0x1003D1060, symSize: 0x0 }
  - { offsetInCU: 0xC3BC0, offset: 0xC3BC0, size: 0x8, addend: 0x0, symName: __ZN5Acorn15prefix_float_idE, symObjAddr: 0xB09180, symBinAddr: 0x1003D1080, symSize: 0x0 }
  - { offsetInCU: 0xC3BD9, offset: 0xC3BD9, size: 0x8, addend: 0x0, symName: __ZN5Acorn15suffix_float_idE, symObjAddr: 0xB091A0, symBinAddr: 0x1003D10A0, symSize: 0x0 }
  - { offsetInCU: 0xC3BF2, offset: 0xC3BF2, size: 0x8, addend: 0x0, symName: __ZN5Acorn6int_idE, symObjAddr: 0xB091C0, symBinAddr: 0x1003D10C0, symSize: 0x0 }
  - { offsetInCU: 0xC3C0B, offset: 0xC3C0B, size: 0x8, addend: 0x0, symName: __ZN5Acorn13prefix_int_idE, symObjAddr: 0xB091E0, symBinAddr: 0x1003D10E0, symSize: 0x0 }
  - { offsetInCU: 0xC3C24, offset: 0xC3C24, size: 0x8, addend: 0x0, symName: __ZN5Acorn13suffix_int_idE, symObjAddr: 0xB09200, symBinAddr: 0x1003D1100, symSize: 0x0 }
  - { offsetInCU: 0xC3C3D, offset: 0xC3C3D, size: 0x8, addend: 0x0, symName: __ZN5Acorn7bool_idE, symObjAddr: 0xB09220, symBinAddr: 0x1003D1120, symSize: 0x0 }
  - { offsetInCU: 0xC3C56, offset: 0xC3C56, size: 0x8, addend: 0x0, symName: __ZN5Acorn14prefix_bool_idE, symObjAddr: 0xB09240, symBinAddr: 0x1003D1140, symSize: 0x0 }
  - { offsetInCU: 0xC3C6F, offset: 0xC3C6F, size: 0x8, addend: 0x0, symName: __ZN5Acorn14suffix_bool_idE, symObjAddr: 0xB09260, symBinAddr: 0x1003D1160, symSize: 0x0 }
  - { offsetInCU: 0xC3C88, offset: 0xC3C88, size: 0x8, addend: 0x0, symName: __ZN5Acorn9string_idE, symObjAddr: 0xB09280, symBinAddr: 0x1003D1180, symSize: 0x0 }
  - { offsetInCU: 0xC3CA1, offset: 0xC3CA1, size: 0x8, addend: 0x0, symName: __ZN5Acorn16prefix_string_idE, symObjAddr: 0xB092A0, symBinAddr: 0x1003D11A0, symSize: 0x0 }
  - { offsetInCU: 0xC3CBA, offset: 0xC3CBA, size: 0x8, addend: 0x0, symName: __ZN5Acorn16suffix_string_idE, symObjAddr: 0xB092C0, symBinAddr: 0x1003D11C0, symSize: 0x0 }
  - { offsetInCU: 0xC3CD3, offset: 0xC3CD3, size: 0x8, addend: 0x0, symName: __ZN5Acorn7char_idE, symObjAddr: 0xB092E0, symBinAddr: 0x1003D11E0, symSize: 0x0 }
  - { offsetInCU: 0xC3CEC, offset: 0xC3CEC, size: 0x8, addend: 0x0, symName: __ZN5Acorn14prefix_char_idE, symObjAddr: 0xB09300, symBinAddr: 0x1003D1200, symSize: 0x0 }
  - { offsetInCU: 0xC3D05, offset: 0xC3D05, size: 0x8, addend: 0x0, symName: __ZN5Acorn14suffix_char_idE, symObjAddr: 0xB09320, symBinAddr: 0x1003D1220, symSize: 0x0 }
  - { offsetInCU: 0xC3D1E, offset: 0xC3D1E, size: 0x8, addend: 0x0, symName: __ZN5Acorn7list_idE, symObjAddr: 0xB09340, symBinAddr: 0x1003D1240, symSize: 0x0 }
  - { offsetInCU: 0xC3D37, offset: 0xC3D37, size: 0x8, addend: 0x0, symName: __ZN5Acorn6map_idE, symObjAddr: 0xB09360, symBinAddr: 0x1003D1260, symSize: 0x0 }
  - { offsetInCU: 0xC3D50, offset: 0xC3D50, size: 0x8, addend: 0x0, symName: __ZN5Acorn10weakptr_idE, symObjAddr: 0xB09380, symBinAddr: 0x1003D1280, symSize: 0x0 }
  - { offsetInCU: 0xC3D69, offset: 0xC3D69, size: 0x8, addend: 0x0, symName: __ZN5Acorn13identifier_idE, symObjAddr: 0xB093A0, symBinAddr: 0x1003D12A0, symSize: 0x0 }
  - { offsetInCU: 0xC3D82, offset: 0xC3D82, size: 0x8, addend: 0x0, symName: __ZN5Acorn9object_idE, symObjAddr: 0xB093C0, symBinAddr: 0x1003D12C0, symSize: 0x0 }
  - { offsetInCU: 0xC3D9B, offset: 0xC3D9B, size: 0x8, addend: 0x0, symName: __ZN5Acorn10literal_idE, symObjAddr: 0xB093E0, symBinAddr: 0x1003D12E0, symSize: 0x0 }
  - { offsetInCU: 0xC3DB4, offset: 0xC3DB4, size: 0x8, addend: 0x0, symName: __ZN5Acorn7node_idE, symObjAddr: 0xB09400, symBinAddr: 0x1003D1300, symSize: 0x0 }
  - { offsetInCU: 0xC3DCD, offset: 0xC3DCD, size: 0x8, addend: 0x0, symName: __ZN5Acorn14prefix_node_idE, symObjAddr: 0xB09420, symBinAddr: 0x1003D1320, symSize: 0x0 }
  - { offsetInCU: 0xC3DE6, offset: 0xC3DE6, size: 0x8, addend: 0x0, symName: __ZN5Acorn14suffix_node_idE, symObjAddr: 0xB09440, symBinAddr: 0x1003D1340, symSize: 0x0 }
  - { offsetInCU: 0xC3DFF, offset: 0xC3DFF, size: 0x8, addend: 0x0, symName: __ZN5Acorn8value_idE, symObjAddr: 0xB09460, symBinAddr: 0x1003D1360, symSize: 0x0 }
  - { offsetInCU: 0xC3E18, offset: 0xC3E18, size: 0x8, addend: 0x0, symName: __ZN5Acorn15prefix_value_idE, symObjAddr: 0xB09480, symBinAddr: 0x1003D1380, symSize: 0x0 }
  - { offsetInCU: 0xC3E31, offset: 0xC3E31, size: 0x8, addend: 0x0, symName: __ZN5Acorn15suffix_value_idE, symObjAddr: 0xB094A0, symBinAddr: 0x1003D13A0, symSize: 0x0 }
  - { offsetInCU: 0xC3E4A, offset: 0xC3E4A, size: 0x8, addend: 0x0, symName: __ZN5Acorn11var_decl_idE, symObjAddr: 0xB094C0, symBinAddr: 0x1003D13C0, symSize: 0x0 }
  - { offsetInCU: 0xC3E63, offset: 0xC3E63, size: 0x8, addend: 0x0, symName: __ZN5Acorn12func_call_idE, symObjAddr: 0xB094E0, symBinAddr: 0x1003D13E0, symSize: 0x0 }
  - { offsetInCU: 0xC3E7C, offset: 0xC3E7C, size: 0x8, addend: 0x0, symName: __ZN5Acorn11function_idE, symObjAddr: 0xB09500, symBinAddr: 0x1003D1400, symSize: 0x0 }
  - { offsetInCU: 0xC3E95, offset: 0xC3E95, size: 0x8, addend: 0x0, symName: __ZN5Acorn9method_idE, symObjAddr: 0xB09520, symBinAddr: 0x1003D1420, symSize: 0x0 }
  - { offsetInCU: 0xC3EAE, offset: 0xC3EAE, size: 0x8, addend: 0x0, symName: __ZN5Acorn12func_decl_idE, symObjAddr: 0xB09540, symBinAddr: 0x1003D1440, symSize: 0x0 }
  - { offsetInCU: 0xC3EC7, offset: 0xC3EC7, size: 0x8, addend: 0x0, symName: __ZN5Acorn12type_decl_idE, symObjAddr: 0xB09560, symBinAddr: 0x1003D1460, symSize: 0x0 }
  - { offsetInCU: 0xC3EE0, offset: 0xC3EE0, size: 0x8, addend: 0x0, symName: __ZN5Acorn13tombstone_colE, symObjAddr: 0xB09580, symBinAddr: 0x1003D1480, symSize: 0x0 }
  - { offsetInCU: 0xC3EF9, offset: 0xC3EF9, size: 0x8, addend: 0x0, symName: __ZN5Acorn8refs_colE, symObjAddr: 0xB095A0, symBinAddr: 0x1003D14A0, symSize: 0x0 }
  - { offsetInCU: 0xC3F12, offset: 0xC3F12, size: 0x8, addend: 0x0, symName: __ZN5Acorn13node_type_colE, symObjAddr: 0xB095C0, symBinAddr: 0x1003D14C0, symSize: 0x0 }
  - { offsetInCU: 0xC3F2B, offset: 0xC3F2B, size: 0x8, addend: 0x0, symName: __ZN5Acorn17node_sub_type_colE, symObjAddr: 0xB095E0, symBinAddr: 0x1003D14E0, symSize: 0x0 }
  - { offsetInCU: 0xC3F44, offset: 0xC3F44, size: 0x8, addend: 0x0, symName: __ZN5Acorn13node_name_colE, symObjAddr: 0xB09600, symBinAddr: 0x1003D1500, symSize: 0x0 }
  - { offsetInCU: 0xC3F5D, offset: 0xC3F5D, size: 0x8, addend: 0x0, symName: __ZN5Acorn5x_colE, symObjAddr: 0xB09620, symBinAddr: 0x1003D1520, symSize: 0x0 }
  - { offsetInCU: 0xC3F76, offset: 0xC3F76, size: 0x8, addend: 0x0, symName: __ZN5Acorn5y_colE, symObjAddr: 0xB09640, symBinAddr: 0x1003D1540, symSize: 0x0 }
  - { offsetInCU: 0xC3F8F, offset: 0xC3F8F, size: 0x8, addend: 0x0, symName: __ZN5Acorn5z_colE, symObjAddr: 0xB09660, symBinAddr: 0x1003D1560, symSize: 0x0 }
  - { offsetInCU: 0xC3FA8, offset: 0xC3FA8, size: 0x8, addend: 0x0, symName: __ZN5Acorn14node_value_colE, symObjAddr: 0xB09680, symBinAddr: 0x1003D1580, symSize: 0x0 }
  - { offsetInCU: 0xC3FC1, offset: 0xC3FC1, size: 0x8, addend: 0x0, symName: __ZN5Acorn17node_children_colE, symObjAddr: 0xB096A0, symBinAddr: 0x1003D15A0, symSize: 0x0 }
  - { offsetInCU: 0xC3FDA, offset: 0xC3FDA, size: 0x8, addend: 0x0, symName: __ZN5Acorn14node_quals_colE, symObjAddr: 0xB096C0, symBinAddr: 0x1003D15C0, symSize: 0x0 }
  - { offsetInCU: 0xC3FF3, offset: 0xC3FF3, size: 0x8, addend: 0x0, symName: __ZN5Acorn19node_node_table_colE, symObjAddr: 0xB096E0, symBinAddr: 0x1003D15E0, symSize: 0x0 }
  - { offsetInCU: 0xC400C, offset: 0xC400C, size: 0x8, addend: 0x0, symName: __ZN5Acorn20node_value_table_colE, symObjAddr: 0xB09700, symBinAddr: 0x1003D1600, symSize: 0x0 }
  - { offsetInCU: 0xC4025, offset: 0xC4025, size: 0x8, addend: 0x0, symName: __ZN5Acorn15node_scopes_colE, symObjAddr: 0xB09720, symBinAddr: 0x1003D1620, symSize: 0x0 }
  - { offsetInCU: 0xC403E, offset: 0xC403E, size: 0x8, addend: 0x0, symName: __ZN5Acorn10parent_colE, symObjAddr: 0xB09740, symBinAddr: 0x1003D1640, symSize: 0x0 }
  - { offsetInCU: 0xC4057, offset: 0xC4057, size: 0x8, addend: 0x0, symName: __ZN5Acorn9owner_colE, symObjAddr: 0xB09760, symBinAddr: 0x1003D1660, symSize: 0x0 }
  - { offsetInCU: 0xC4070, offset: 0xC4070, size: 0x8, addend: 0x0, symName: __ZN5Acorn12in_scope_colE, symObjAddr: 0xB09780, symBinAddr: 0x1003D1680, symSize: 0x0 }
  - { offsetInCU: 0xC4089, offset: 0xC4089, size: 0x8, addend: 0x0, symName: __ZN5Acorn12is_scope_colE, symObjAddr: 0xB097A0, symBinAddr: 0x1003D16A0, symSize: 0x0 }
  - { offsetInCU: 0xC40A2, offset: 0xC40A2, size: 0x8, addend: 0x0, symName: __ZN5Acorn16node_opt_str_colE, symObjAddr: 0xB097C0, symBinAddr: 0x1003D16C0, symSize: 0x0 }
  - { offsetInCU: 0xC40BB, offset: 0xC40BB, size: 0x8, addend: 0x0, symName: __ZN5Acorn8mute_colE, symObjAddr: 0xB097E0, symBinAddr: 0x1003D16E0, symSize: 0x0 }
  - { offsetInCU: 0xC40D4, offset: 0xC40D4, size: 0x8, addend: 0x0, symName: __ZN5Acorn14value_type_colE, symObjAddr: 0xB09800, symBinAddr: 0x1003D1700, symSize: 0x0 }
  - { offsetInCU: 0xC40ED, offset: 0xC40ED, size: 0x8, addend: 0x0, symName: __ZN5Acorn18value_sub_type_colE, symObjAddr: 0xB09820, symBinAddr: 0x1003D1720, symSize: 0x0 }
  - { offsetInCU: 0xC4106, offset: 0xC4106, size: 0x8, addend: 0x0, symName: __ZN5Acorn14value_data_colE, symObjAddr: 0xB09840, symBinAddr: 0x1003D1740, symSize: 0x0 }
  - { offsetInCU: 0xC411F, offset: 0xC411F, size: 0x8, addend: 0x0, symName: __ZN5Acorn11address_colE, symObjAddr: 0xB09860, symBinAddr: 0x1003D1760, symSize: 0x0 }
  - { offsetInCU: 0xC4138, offset: 0xC4138, size: 0x8, addend: 0x0, symName: __ZN5Acorn7reg_colE, symObjAddr: 0xB09880, symBinAddr: 0x1003D1780, symSize: 0x0 }
  - { offsetInCU: 0xC4151, offset: 0xC4151, size: 0x8, addend: 0x0, symName: __ZN5Acorn7loc_colE, symObjAddr: 0xB098A0, symBinAddr: 0x1003D17A0, symSize: 0x0 }
  - { offsetInCU: 0xC416A, offset: 0xC416A, size: 0x8, addend: 0x0, symName: __ZN5Acorn8size_colE, symObjAddr: 0xB098C0, symBinAddr: 0x1003D17C0, symSize: 0x0 }
  - { offsetInCU: 0xC4183, offset: 0xC4183, size: 0x8, addend: 0x0, symName: __ZN5Acorn12sub_size_colE, symObjAddr: 0xB098E0, symBinAddr: 0x1003D17E0, symSize: 0x0 }
  - { offsetInCU: 0xC419C, offset: 0xC419C, size: 0x8, addend: 0x0, symName: __ZN5Acorn15value_quals_colE, symObjAddr: 0xB09900, symBinAddr: 0x1003D1800, symSize: 0x0 }
  - { offsetInCU: 0xC41B5, offset: 0xC41B5, size: 0x8, addend: 0x0, symName: __ZN5Acorn20value_sub_values_colE, symObjAddr: 0xB09920, symBinAddr: 0x1003D1820, symSize: 0x0 }
  - { offsetInCU: 0xC41CE, offset: 0xC41CE, size: 0x8, addend: 0x0, symName: __ZN5Acorn14type_scope_colE, symObjAddr: 0xB09940, symBinAddr: 0x1003D1840, symSize: 0x0 }
  - { offsetInCU: 0xC41E7, offset: 0xC41E7, size: 0x8, addend: 0x0, symName: __ZN5Acorn9store_colE, symObjAddr: 0xB09960, symBinAddr: 0x1003D1860, symSize: 0x0 }
  - { offsetInCU: 0xC4200, offset: 0xC4200, size: 0x8, addend: 0x0, symName: __ZN5Acorn12node_type_idE, symObjAddr: 0xB09980, symBinAddr: 0x1003D1880, symSize: 0x0 }
  - { offsetInCU: 0xC4219, offset: 0xC4219, size: 0x8, addend: 0x0, symName: __ZN5Acorn13value_type_idE, symObjAddr: 0xB099A0, symBinAddr: 0x1003D18A0, symSize: 0x0 }
  - { offsetInCU: 0xC4232, offset: 0xC4232, size: 0x8, addend: 0x0, symName: __ZN5Acorn13name_store_idE, symObjAddr: 0xB099C0, symBinAddr: 0x1003D18C0, symSize: 0x0 }
  - { offsetInCU: 0xC424B, offset: 0xC424B, size: 0x8, addend: 0x0, symName: __ZN5Acorn17children_store_idE, symObjAddr: 0xB099E0, symBinAddr: 0x1003D18E0, symSize: 0x0 }
  - { offsetInCU: 0xC4264, offset: 0xC4264, size: 0x8, addend: 0x0, symName: __ZN5Acorn14quals_store_idE, symObjAddr: 0xB09A00, symBinAddr: 0x1003D1900, symSize: 0x0 }
  - { offsetInCU: 0xC427D, offset: 0xC427D, size: 0x8, addend: 0x0, symName: __ZN5Acorn19node_table_store_idE, symObjAddr: 0xB09A20, symBinAddr: 0x1003D1920, symSize: 0x0 }
  - { offsetInCU: 0xC4296, offset: 0xC4296, size: 0x8, addend: 0x0, symName: __ZN5Acorn20value_table_store_idE, symObjAddr: 0xB09A40, symBinAddr: 0x1003D1940, symSize: 0x0 }
  - { offsetInCU: 0xC42AF, offset: 0xC42AF, size: 0x8, addend: 0x0, symName: __ZN5Acorn15scopes_store_idE, symObjAddr: 0xB09A60, symBinAddr: 0x1003D1960, symSize: 0x0 }
  - { offsetInCU: 0xC42C8, offset: 0xC42C8, size: 0x8, addend: 0x0, symName: __ZN5Acorn16opt_str_store_idE, symObjAddr: 0xB09A80, symBinAddr: 0x1003D1980, symSize: 0x0 }
  - { offsetInCU: 0xC42E1, offset: 0xC42E1, size: 0x8, addend: 0x0, symName: __ZN5Acorn13data_store_idE, symObjAddr: 0xB09AA0, symBinAddr: 0x1003D19A0, symSize: 0x0 }
  - { offsetInCU: 0xC42FA, offset: 0xC42FA, size: 0x8, addend: 0x0, symName: __ZN5Acorn18sub_value_store_idE, symObjAddr: 0xB09AC0, symBinAddr: 0x1003D19C0, symSize: 0x0 }
  - { offsetInCU: 0xC4313, offset: 0xC4313, size: 0x8, addend: 0x0, symName: __ZN5Acorn22sub_instruction_bufferE, symObjAddr: 0xB09AE0, symBinAddr: 0x1003D19E0, symSize: 0x0 }
  - { offsetInCU: 0xC432C, offset: 0xC432C, size: 0x8, addend: 0x0, symName: __ZN5Acorn13jump_requestsE, symObjAddr: 0xB09B20, symBinAddr: 0x1003D1A20, symSize: 0x0 }
  - { offsetInCU: 0xC4372, offset: 0xC4372, size: 0x8, addend: 0x0, symName: __ZN5Acorn20terminator_positionsE, symObjAddr: 0xB09B60, symBinAddr: 0x1003D1A60, symSize: 0x0 }
  - { offsetInCU: 0xC438B, offset: 0xC438B, size: 0x8, addend: 0x0, symName: __ZN5Acorn7descendE, symObjAddr: 0xB09BA0, symBinAddr: 0x1003D1AA0, symSize: 0x0 }
  - { offsetInCU: 0xC43A4, offset: 0xC43A4, size: 0x8, addend: 0x0, symName: __ZN5Acorn6ascendE, symObjAddr: 0xB09BE0, symBinAddr: 0x1003D1AE0, symSize: 0x0 }
  - { offsetInCU: 0xC43BD, offset: 0xC43BD, size: 0x8, addend: 0x0, symName: __ZN5Acorn8preambleE, symObjAddr: 0xB09C20, symBinAddr: 0x1003D1B20, symSize: 0x0 }
  - { offsetInCU: 0xC43D6, offset: 0xC43D6, size: 0x8, addend: 0x0, symName: __ZN5Acorn9postambleE, symObjAddr: 0xB09C60, symBinAddr: 0x1003D1B60, symSize: 0x0 }
  - { offsetInCU: 0xC43EF, offset: 0xC43EF, size: 0x8, addend: 0x0, symName: __ZN5Acorn6instrsE, symObjAddr: 0xB09CA0, symBinAddr: 0x1003D1BA0, symSize: 0x0 }
  - { offsetInCU: 0xC45B1, offset: 0xC45B1, size: 0x8, addend: 0x0, symName: __ZN5Acorn7paddingE, symObjAddr: 0xB09CE0, symBinAddr: 0x1003D1BE0, symSize: 0x0 }
  - { offsetInCU: 0xC45CC, offset: 0xC45CC, size: 0x8, addend: 0x0, symName: __ZN5Acorn8ribbon_rE, symObjAddr: 0x2FB900, symBinAddr: 0x1003C8040, symSize: 0x0 }
  - { offsetInCU: 0xC45E5, offset: 0xC45E5, size: 0x8, addend: 0x0, symName: __ZN5AcornL16_ctx_dummy_indexE, symObjAddr: 0xB09020, symBinAddr: 0x1003D0F20, symSize: 0x0 }
  - { offsetInCU: 0xC45FE, offset: 0xC45FE, size: 0x8, addend: 0x0, symName: __ZN5AcornL7emitcolE, symObjAddr: 0xB09040, symBinAddr: 0x1003D0F40, symSize: 0x0 }
  - { offsetInCU: 0xC6671, offset: 0xC6671, size: 0x8, addend: 0x0, symName: __ZN5AcornL11burn_instrsERKNSt3__112basic_stringIcNS0_11char_traitsIcEENS0_9allocatorIcEEEE, symObjAddr: 0x2519C, symBinAddr: 0x10002648C, symSize: 0x918 }
  - { offsetInCU: 0xC677E, offset: 0xC677E, size: 0x8, addend: 0x0, symName: __ZN5AcornL18resolve_instr_fileERKNSt3__112basic_stringIcNS0_11char_traitsIcEENS0_9allocatorIcEEEE, symObjAddr: 0x25AB4, symBinAddr: 0x100026DA4, symSize: 0x2B4 }
  - { offsetInCU: 0xC67C6, offset: 0xC67C6, size: 0x8, addend: 0x0, symName: __ZN5AcornL8JIT_dirtENSt3__112basic_stringIcNS0_11char_traitsIcEENS0_9allocatorIcEEEEPNS_8AcornColE, symObjAddr: 0x25D68, symBinAddr: 0x100027058, symSize: 0x29B0 }
  - { offsetInCU: 0xC69F8, offset: 0xC69F8, size: 0x8, addend: 0x0, symName: __ZN5AcornL9JIT_AcornEi, symObjAddr: 0x28718, symBinAddr: 0x100029A08, symSize: 0x3328 }
  - { offsetInCU: 0xC6EDC, offset: 0xC6EDC, size: 0x8, addend: 0x0, symName: __ZN5Acorn14init_node_typeEv, symObjAddr: 0x3C84, symBinAddr: 0x100004F74, symSize: 0x159C }
  - { offsetInCU: 0xC6F40, offset: 0xC6F40, size: 0x8, addend: 0x0, symName: __ZN5Acorn15init_value_typeEv, symObjAddr: 0x5220, symBinAddr: 0x100006510, symSize: 0xEEC }
  - { offsetInCU: 0xC6FA4, offset: 0xC6FA4, size: 0x8, addend: 0x0, symName: __ZN5Acorn8add_typeEv, symObjAddr: 0x1B48, symBinAddr: 0x100002E38, symSize: 0x394 }
  - { offsetInCU: 0xC6FE5, offset: 0xC6FE5, size: 0x8, addend: 0x0, symName: __ZN5Acorn19add_type_for_handleEv, symObjAddr: 0x2000, symBinAddr: 0x1000032F0, symSize: 0x24C }
  - { offsetInCU: 0xC7016, offset: 0xC7016, size: 0x8, addend: 0x0, symName: __ZN5Acorn17init_handler_typeEv, symObjAddr: 0x2290, symBinAddr: 0x100003580, symSize: 0x638 }
  - { offsetInCU: 0xC7057, offset: 0xC7057, size: 0x8, addend: 0x0, symName: __ZN5Acorn6reg_idERKNSt3__112basic_stringIcNS0_11char_traitsIcEENS0_9allocatorIcEEEE, symObjAddr: 0x29E8, symBinAddr: 0x100003CD8, symSize: 0x4CC }
  - { offsetInCU: 0xC7097, offset: 0xC7097, size: 0x8, addend: 0x0, symName: __ZN5Acorn16make_object_typeEv, symObjAddr: 0x3748, symBinAddr: 0x100004A38, symSize: 0x500 }
  - { offsetInCU: 0xC70D5, offset: 0xC70D5, size: 0x8, addend: 0x0, symName: __ZN5Acorn15make_store_typeEv, symObjAddr: 0x3C48, symBinAddr: 0x100004F38, symSize: 0x3C }
  - { offsetInCU: 0xC7111, offset: 0xC7111, size: 0x8, addend: 0x0, symName: __ZN5Acorn13Ptr_as_stringENS_3PtrE, symObjAddr: 0x6684, symBinAddr: 0x100007974, symSize: 0xB48 }
  - { offsetInCU: 0xC716A, offset: 0xC716A, size: 0x8, addend: 0x0, symName: __ZN5AcornlsERNSt3__113basic_ostreamIcNS0_11char_traitsIcEEEERNS_6stringE, symObjAddr: 0x7330, symBinAddr: 0x100008620, symSize: 0xA0 }
  - { offsetInCU: 0xC71A8, offset: 0xC71A8, size: 0x8, addend: 0x0, symName: __ZN5Acorn9make_nodeEv, symObjAddr: 0x7508, symBinAddr: 0x1000087F8, symSize: 0x35C }
  - { offsetInCU: 0xC71C6, offset: 0xC71C6, size: 0x8, addend: 0x0, symName: __ZN5Acorn9make_nodeEj, symObjAddr: 0x7F9C, symBinAddr: 0x10000928C, symSize: 0x36C }
  - { offsetInCU: 0xC7208, offset: 0xC7208, size: 0x8, addend: 0x0, symName: __ZN5Acorn10make_valueEv, symObjAddr: 0x8620, symBinAddr: 0x100009910, symSize: 0x3A4 }
  - { offsetInCU: 0xC723A, offset: 0xC723A, size: 0x8, addend: 0x0, symName: __ZN5Acorn10make_valueEjjj, symObjAddr: 0x8C7C, symBinAddr: 0x100009F6C, symSize: 0x2E4 }
  - { offsetInCU: 0xC729C, offset: 0xC729C, size: 0x8, addend: 0x0, symName: __ZN5Acorn10tag_to_strEjPv, symObjAddr: 0x98B4, symBinAddr: 0x10000ABA4, symSize: 0x2290 }
  - { offsetInCU: 0xC73F2, offset: 0xC73F2, size: 0x8, addend: 0x0, symName: __ZN5Acorn14resolve_to_colERKNS_3PtrE, symObjAddr: 0xC96C, symBinAddr: 0x10000DC5C, symSize: 0x114 }
  - { offsetInCU: 0xC7420, offset: 0xC7420, size: 0x8, addend: 0x0, symName: __ZN5Acorn7pad_strERKNSt3__112basic_stringIcNS0_11char_traitsIcEENS0_9allocatorIcEEEEj, symObjAddr: 0xD734, symBinAddr: 0x10000EA24, symSize: 0xD8 }
  - { offsetInCU: 0xC746D, offset: 0xC746D, size: 0x8, addend: 0x0, symName: __ZN5Acorn10center_padERKNSt3__112basic_stringIcNS0_11char_traitsIcEENS0_9allocatorIcEEEEj, symObjAddr: 0xD830, symBinAddr: 0x10000EB20, symSize: 0x4DC }
  - { offsetInCU: 0xC74DD, offset: 0xC74DD, size: 0x8, addend: 0x0, symName: __ZN5Acorn11digit_countEj, symObjAddr: 0xDD0C, symBinAddr: 0x10000EFFC, symSize: 0x7C }
  - { offsetInCU: 0xC751A, offset: 0xC751A, size: 0x8, addend: 0x0, symName: __ZN5Acorn11disassembleEj, symObjAddr: 0xDD88, symBinAddr: 0x10000F078, symSize: 0x2DD4 }
  - { offsetInCU: 0xC77EF, offset: 0xC77EF, size: 0x8, addend: 0x0, symName: __ZN5Acorn20print_columnar_tableER4listIS0_INSt3__112basic_stringIcNS1_11char_traitsIcEENS1_9allocatorIcEEEEEE, symObjAddr: 0x10BA0, symBinAddr: 0x100011E90, symSize: 0x1944 }
  - { offsetInCU: 0xC799B, offset: 0xC799B, size: 0x8, addend: 0x0, symName: __ZN5Acorn14type_to_stringERNS_8TypePoolE, symObjAddr: 0x12ED8, symBinAddr: 0x1000141C8, symSize: 0x10E0 }
  - { offsetInCU: 0xC7A94, offset: 0xC7A94, size: 0x8, addend: 0x0, symName: __ZN5Acorn11resolve_ptrERKNS_3PtrE, symObjAddr: 0x1455C, symBinAddr: 0x10001584C, symSize: 0x188 }
  - { offsetInCU: 0xC7AC0, offset: 0xC7AC0, size: 0x8, addend: 0x0, symName: __ZN5Acorn10value_infoENS_5ValueE, symObjAddr: 0x147A4, symBinAddr: 0x100015A94, symSize: 0x2F00 }
  - { offsetInCU: 0xC7B19, offset: 0xC7B19, size: 0x8, addend: 0x0, symName: __ZN5Acorn9node_infoENS_4NodeE, symObjAddr: 0x198A8, symBinAddr: 0x10001AB98, symSize: 0x22A8 }
  - { offsetInCU: 0xC7B5C, offset: 0xC7B5C, size: 0x8, addend: 0x0, symName: __ZN5Acorn14node_to_stringENS_4NodeEiibNSt3__112basic_stringIcNS1_11char_traitsIcEENS1_9allocatorIcEEEE, symObjAddr: 0x1CB74, symBinAddr: 0x10001DE64, symSize: 0x2108 }
  - { offsetInCU: 0xC7C50, offset: 0xC7C50, size: 0x8, addend: 0x0, symName: __ZN5Acorn14init_type_poolEv, symObjAddr: 0x1EF68, symBinAddr: 0x100020258, symSize: 0x167C }
  - { offsetInCU: 0xC7CA6, offset: 0xC7CA6, size: 0x8, addend: 0x0, symName: __ZN5AcornL20acorn_type_to_stringERNS_8AcornColE, symObjAddr: 0x2A20C4, symBinAddr: 0x1002A33B4, symSize: 0x1F14 }
  - { offsetInCU: 0xC7DB6, offset: 0xC7DB6, size: 0x8, addend: 0x0, symName: __ZN5AcornL15instr_as_bufferEc, symObjAddr: 0x2B0EBC, symBinAddr: 0x1002B21AC, symSize: 0x46C }
  - { offsetInCU: 0xC7E1D, offset: 0xC7E1D, size: 0x8, addend: 0x0, symName: __ZN5AcornL28splice_immediates_into_instrERNSt3__112basic_stringIcNS0_11char_traitsIcEENS0_9allocatorIcEEEE, symObjAddr: 0x2B1328, symBinAddr: 0x1002B2618, symSize: 0xC3C }
  - { offsetInCU: 0xC7EF8, offset: 0xC7EF8, size: 0x8, addend: 0x0, symName: __ZN5AcornL16read_acorn_typesERNSt3__113basic_istreamIcNS0_11char_traitsIcEEEERi, symObjAddr: 0x2B3D1C, symBinAddr: 0x1002B500C, symSize: 0x3CC }
  - { offsetInCU: 0xC7FB5, offset: 0xC7FB5, size: 0x8, addend: 0x0, symName: __ZN5AcornL15instr_to_stringENS_8AcornColEc, symObjAddr: 0x2B4120, symBinAddr: 0x1002B5410, symSize: 0xC74 }
  - { offsetInCU: 0xC8056, offset: 0xC8056, size: 0x8, addend: 0x0, symName: __ZN5AcornL17write_acorn_typesERNSt3__113basic_ostreamIcNS0_11char_traitsIcEEEERNS_8AcornColEi, symObjAddr: 0x2B4E88, symBinAddr: 0x1002B6178, symSize: 0x2F8 }
  - { offsetInCU: 0xC811D, offset: 0xC811D, size: 0x8, addend: 0x0, symName: __ZN5AcornL21acorn_types_to_stringERNS_8AcornColE4listINSt3__112basic_stringIcNS3_11char_traitsIcEENS3_9allocatorIcEEEEE, symObjAddr: 0x2B5180, symBinAddr: 0x1002B6470, symSize: 0x908 }
  - { offsetInCU: 0xC81A1, offset: 0xC81A1, size: 0x8, addend: 0x0, symName: __ZN5AcornL14read_acorn_colERNSt3__113basic_istreamIcNS0_11char_traitsIcEEEE, symObjAddr: 0x2B5FA8, symBinAddr: 0x1002B7298, symSize: 0x260 }
  - { offsetInCU: 0xC81ED, offset: 0xC81ED, size: 0x8, addend: 0x0, symName: __ZN5AcornL15write_acorn_colERNSt3__113basic_ostreamIcNS0_11char_traitsIcEEEERNS_8AcornColE, symObjAddr: 0x2B6238, symBinAddr: 0x1002B7528, symSize: 0x334 }
  - { offsetInCU: 0xCC18C, offset: 0xCC18C, size: 0x8, addend: 0x0, symName: _.str.23, symObjAddr: 0x2F4CE0, symBinAddr: 0x1002F91E0, symSize: 0x0 }
  - { offsetInCU: 0xCC1A9, offset: 0xCC1A9, size: 0x8, addend: 0x0, symName: _.str.24, symObjAddr: 0x2F4D00, symBinAddr: 0x1002F9200, symSize: 0x0 }
  - { offsetInCU: 0xCC1BA, offset: 0xCC1BA, size: 0x8, addend: 0x0, symName: _.str.25, symObjAddr: 0x2F4D20, symBinAddr: 0x1002F9220, symSize: 0x0 }
  - { offsetInCU: 0xCC1D7, offset: 0xCC1D7, size: 0x8, addend: 0x0, symName: _.str.28, symObjAddr: 0x2F4D40, symBinAddr: 0x1002F9240, symSize: 0x0 }
  - { offsetInCU: 0xCC1E8, offset: 0xCC1E8, size: 0x8, addend: 0x0, symName: _.str.30, symObjAddr: 0x2F4D60, symBinAddr: 0x1002F9260, symSize: 0x0 }
  - { offsetInCU: 0xCC205, offset: 0xCC205, size: 0x8, addend: 0x0, symName: _.str.32, symObjAddr: 0x2F4D80, symBinAddr: 0x1002F9280, symSize: 0x0 }
  - { offsetInCU: 0xCC216, offset: 0xCC216, size: 0x8, addend: 0x0, symName: _.str.34, symObjAddr: 0x2F4DA0, symBinAddr: 0x1002F92A0, symSize: 0x0 }
  - { offsetInCU: 0xCC227, offset: 0xCC227, size: 0x8, addend: 0x0, symName: _.str.36, symObjAddr: 0x2F4DC0, symBinAddr: 0x1002F92C0, symSize: 0x0 }
  - { offsetInCU: 0xCC244, offset: 0xCC244, size: 0x8, addend: 0x0, symName: _.str.38, symObjAddr: 0x2F4DE0, symBinAddr: 0x1002F92E0, symSize: 0x0 }
  - { offsetInCU: 0xCC255, offset: 0xCC255, size: 0x8, addend: 0x0, symName: _.str.40, symObjAddr: 0x2F4E00, symBinAddr: 0x1002F9300, symSize: 0x0 }
  - { offsetInCU: 0xCC272, offset: 0xCC272, size: 0x8, addend: 0x0, symName: _.str.42, symObjAddr: 0x2F4E20, symBinAddr: 0x1002F9320, symSize: 0x0 }
  - { offsetInCU: 0xCC28F, offset: 0xCC28F, size: 0x8, addend: 0x0, symName: _.str.44, symObjAddr: 0x2F4E40, symBinAddr: 0x1002F9340, symSize: 0x0 }
  - { offsetInCU: 0xCC2A0, offset: 0xCC2A0, size: 0x8, addend: 0x0, symName: _.str.46, symObjAddr: 0x2F4E60, symBinAddr: 0x1002F9360, symSize: 0x0 }
  - { offsetInCU: 0xCC2B1, offset: 0xCC2B1, size: 0x8, addend: 0x0, symName: _.str.48, symObjAddr: 0x2F4E80, symBinAddr: 0x1002F9380, symSize: 0x0 }
  - { offsetInCU: 0xCC2CE, offset: 0xCC2CE, size: 0x8, addend: 0x0, symName: _.str.50, symObjAddr: 0x2F4EA0, symBinAddr: 0x1002F93A0, symSize: 0x0 }
  - { offsetInCU: 0xCC2DF, offset: 0xCC2DF, size: 0x8, addend: 0x0, symName: _.str.52, symObjAddr: 0x2F4EC0, symBinAddr: 0x1002F93C0, symSize: 0x0 }
  - { offsetInCU: 0xCC2F0, offset: 0xCC2F0, size: 0x8, addend: 0x0, symName: _.str.54, symObjAddr: 0x2F4EE0, symBinAddr: 0x1002F93E0, symSize: 0x0 }
  - { offsetInCU: 0xCC301, offset: 0xCC301, size: 0x8, addend: 0x0, symName: _.str.56, symObjAddr: 0x2F4F00, symBinAddr: 0x1002F9400, symSize: 0x0 }
  - { offsetInCU: 0xCC312, offset: 0xCC312, size: 0x8, addend: 0x0, symName: _.str.58, symObjAddr: 0x2F4F20, symBinAddr: 0x1002F9420, symSize: 0x0 }
  - { offsetInCU: 0xCC323, offset: 0xCC323, size: 0x8, addend: 0x0, symName: _.str.60, symObjAddr: 0x2F4F40, symBinAddr: 0x1002F9440, symSize: 0x0 }
  - { offsetInCU: 0xCC334, offset: 0xCC334, size: 0x8, addend: 0x0, symName: _.str.62, symObjAddr: 0x2F4F60, symBinAddr: 0x1002F9460, symSize: 0x0 }
  - { offsetInCU: 0xCC351, offset: 0xCC351, size: 0x8, addend: 0x0, symName: _.str.64, symObjAddr: 0x2F4F80, symBinAddr: 0x1002F9480, symSize: 0x0 }
  - { offsetInCU: 0xCC362, offset: 0xCC362, size: 0x8, addend: 0x0, symName: _.str.66, symObjAddr: 0x2F4FA0, symBinAddr: 0x1002F94A0, symSize: 0x0 }
  - { offsetInCU: 0xCC373, offset: 0xCC373, size: 0x8, addend: 0x0, symName: _.str.68, symObjAddr: 0x2F4FC0, symBinAddr: 0x1002F94C0, symSize: 0x0 }
  - { offsetInCU: 0xCC384, offset: 0xCC384, size: 0x8, addend: 0x0, symName: _.str.70, symObjAddr: 0x2F4FE0, symBinAddr: 0x1002F94E0, symSize: 0x0 }
  - { offsetInCU: 0xCC395, offset: 0xCC395, size: 0x8, addend: 0x0, symName: _.str.72, symObjAddr: 0x2F5000, symBinAddr: 0x1002F9500, symSize: 0x0 }
  - { offsetInCU: 0xCC3A6, offset: 0xCC3A6, size: 0x8, addend: 0x0, symName: _.str.74, symObjAddr: 0x2F5020, symBinAddr: 0x1002F9520, symSize: 0x0 }
  - { offsetInCU: 0xCC3B7, offset: 0xCC3B7, size: 0x8, addend: 0x0, symName: _.str.76, symObjAddr: 0x2F5040, symBinAddr: 0x1002F9540, symSize: 0x0 }
  - { offsetInCU: 0xCC3C8, offset: 0xCC3C8, size: 0x8, addend: 0x0, symName: _.str.78, symObjAddr: 0x2F5060, symBinAddr: 0x1002F9560, symSize: 0x0 }
  - { offsetInCU: 0xCC3D9, offset: 0xCC3D9, size: 0x8, addend: 0x0, symName: _.str.80, symObjAddr: 0x2F5080, symBinAddr: 0x1002F9580, symSize: 0x0 }
  - { offsetInCU: 0xCC3EA, offset: 0xCC3EA, size: 0x8, addend: 0x0, symName: _.str.82, symObjAddr: 0x2F50A0, symBinAddr: 0x1002F95A0, symSize: 0x0 }
  - { offsetInCU: 0xCC407, offset: 0xCC407, size: 0x8, addend: 0x0, symName: _.str.84, symObjAddr: 0x2F50C0, symBinAddr: 0x1002F95C0, symSize: 0x0 }
  - { offsetInCU: 0xCC418, offset: 0xCC418, size: 0x8, addend: 0x0, symName: _.str.86, symObjAddr: 0x2F50E0, symBinAddr: 0x1002F95E0, symSize: 0x0 }
  - { offsetInCU: 0xCC429, offset: 0xCC429, size: 0x8, addend: 0x0, symName: _.str.88, symObjAddr: 0x2F5100, symBinAddr: 0x1002F9600, symSize: 0x0 }
  - { offsetInCU: 0xCC43A, offset: 0xCC43A, size: 0x8, addend: 0x0, symName: _.str.90, symObjAddr: 0x2F5120, symBinAddr: 0x1002F9620, symSize: 0x0 }
  - { offsetInCU: 0xCC44B, offset: 0xCC44B, size: 0x8, addend: 0x0, symName: _.str.92, symObjAddr: 0x2F5140, symBinAddr: 0x1002F9640, symSize: 0x0 }
  - { offsetInCU: 0xCC45C, offset: 0xCC45C, size: 0x8, addend: 0x0, symName: _.str.93, symObjAddr: 0x2F5160, symBinAddr: 0x1002F9660, symSize: 0x0 }
  - { offsetInCU: 0xCC46D, offset: 0xCC46D, size: 0x8, addend: 0x0, symName: _.str.94, symObjAddr: 0x2F5180, symBinAddr: 0x1002F9680, symSize: 0x0 }
  - { offsetInCU: 0xCC47E, offset: 0xCC47E, size: 0x8, addend: 0x0, symName: _.str.106, symObjAddr: 0x2F51A0, symBinAddr: 0x1002F96A0, symSize: 0x0 }
  - { offsetInCU: 0xCC48F, offset: 0xCC48F, size: 0x8, addend: 0x0, symName: _.str.107, symObjAddr: 0x2F51C0, symBinAddr: 0x1002F96C0, symSize: 0x0 }
  - { offsetInCU: 0xCC4A0, offset: 0xCC4A0, size: 0x8, addend: 0x0, symName: _.str.108, symObjAddr: 0x2F51E0, symBinAddr: 0x1002F96E0, symSize: 0x0 }
  - { offsetInCU: 0xCC4B1, offset: 0xCC4B1, size: 0x8, addend: 0x0, symName: _.str.109, symObjAddr: 0x2F5200, symBinAddr: 0x1002F9700, symSize: 0x0 }
  - { offsetInCU: 0xCC4C2, offset: 0xCC4C2, size: 0x8, addend: 0x0, symName: _.str.110, symObjAddr: 0x2F5220, symBinAddr: 0x1002F9720, symSize: 0x0 }
  - { offsetInCU: 0xCC4D3, offset: 0xCC4D3, size: 0x8, addend: 0x0, symName: _.str.111, symObjAddr: 0x2F5240, symBinAddr: 0x1002F9740, symSize: 0x0 }
  - { offsetInCU: 0xCC4E4, offset: 0xCC4E4, size: 0x8, addend: 0x0, symName: _.str.112, symObjAddr: 0x2F5260, symBinAddr: 0x1002F9760, symSize: 0x0 }
  - { offsetInCU: 0xCC4F5, offset: 0xCC4F5, size: 0x8, addend: 0x0, symName: _.str.113, symObjAddr: 0x2F5280, symBinAddr: 0x1002F9780, symSize: 0x0 }
  - { offsetInCU: 0xCC506, offset: 0xCC506, size: 0x8, addend: 0x0, symName: _.str.114, symObjAddr: 0x2F52A0, symBinAddr: 0x1002F97A0, symSize: 0x0 }
  - { offsetInCU: 0xCC517, offset: 0xCC517, size: 0x8, addend: 0x0, symName: _.str.115, symObjAddr: 0x2F52C0, symBinAddr: 0x1002F97C0, symSize: 0x0 }
  - { offsetInCU: 0xCC528, offset: 0xCC528, size: 0x8, addend: 0x0, symName: _.str.116, symObjAddr: 0x2F52E0, symBinAddr: 0x1002F97E0, symSize: 0x0 }
  - { offsetInCU: 0xCC539, offset: 0xCC539, size: 0x8, addend: 0x0, symName: _.str.117, symObjAddr: 0x2F5300, symBinAddr: 0x1002F9800, symSize: 0x0 }
  - { offsetInCU: 0xCC54A, offset: 0xCC54A, size: 0x8, addend: 0x0, symName: _.str.118, symObjAddr: 0x2F5320, symBinAddr: 0x1002F9820, symSize: 0x0 }
  - { offsetInCU: 0xCC55B, offset: 0xCC55B, size: 0x8, addend: 0x0, symName: _.str.119, symObjAddr: 0x2F5340, symBinAddr: 0x1002F9840, symSize: 0x0 }
  - { offsetInCU: 0xCC56C, offset: 0xCC56C, size: 0x8, addend: 0x0, symName: _.str.120, symObjAddr: 0x2F5360, symBinAddr: 0x1002F9860, symSize: 0x0 }
  - { offsetInCU: 0xCC57D, offset: 0xCC57D, size: 0x8, addend: 0x0, symName: _.str.121, symObjAddr: 0x2F5380, symBinAddr: 0x1002F9880, symSize: 0x0 }
  - { offsetInCU: 0xCC58E, offset: 0xCC58E, size: 0x8, addend: 0x0, symName: _.str.122, symObjAddr: 0x2F53A0, symBinAddr: 0x1002F98A0, symSize: 0x0 }
  - { offsetInCU: 0xCC59F, offset: 0xCC59F, size: 0x8, addend: 0x0, symName: _.str.123, symObjAddr: 0x2F53C0, symBinAddr: 0x1002F98C0, symSize: 0x0 }
  - { offsetInCU: 0xCC5B0, offset: 0xCC5B0, size: 0x8, addend: 0x0, symName: _.str.124, symObjAddr: 0x2F53E0, symBinAddr: 0x1002F98E0, symSize: 0x0 }
  - { offsetInCU: 0xCC5C1, offset: 0xCC5C1, size: 0x8, addend: 0x0, symName: _.str.125, symObjAddr: 0x2F5400, symBinAddr: 0x1002F9900, symSize: 0x0 }
  - { offsetInCU: 0xCC5D2, offset: 0xCC5D2, size: 0x8, addend: 0x0, symName: _.str.126, symObjAddr: 0x2F5420, symBinAddr: 0x1002F9920, symSize: 0x0 }
  - { offsetInCU: 0xCC5E3, offset: 0xCC5E3, size: 0x8, addend: 0x0, symName: _.str.127, symObjAddr: 0x2F5440, symBinAddr: 0x1002F9940, symSize: 0x0 }
  - { offsetInCU: 0xCC5F4, offset: 0xCC5F4, size: 0x8, addend: 0x0, symName: _.str.128, symObjAddr: 0x2F5460, symBinAddr: 0x1002F9960, symSize: 0x0 }
  - { offsetInCU: 0xCC605, offset: 0xCC605, size: 0x8, addend: 0x0, symName: _.str.129, symObjAddr: 0x2F5480, symBinAddr: 0x1002F9980, symSize: 0x0 }
  - { offsetInCU: 0xCC616, offset: 0xCC616, size: 0x8, addend: 0x0, symName: _.str.130, symObjAddr: 0x2F54A0, symBinAddr: 0x1002F99A0, symSize: 0x0 }
  - { offsetInCU: 0xCC627, offset: 0xCC627, size: 0x8, addend: 0x0, symName: _.str.131, symObjAddr: 0x2F54C0, symBinAddr: 0x1002F99C0, symSize: 0x0 }
  - { offsetInCU: 0xCC63A, offset: 0xCC63A, size: 0x8, addend: 0x0, symName: _.str.132, symObjAddr: 0x2F54E0, symBinAddr: 0x1002F99E0, symSize: 0x0 }
  - { offsetInCU: 0xCC64D, offset: 0xCC64D, size: 0x8, addend: 0x0, symName: _.str.133, symObjAddr: 0x2F5500, symBinAddr: 0x1002F9A00, symSize: 0x0 }
  - { offsetInCU: 0xCC660, offset: 0xCC660, size: 0x8, addend: 0x0, symName: _.str.134, symObjAddr: 0x2F5520, symBinAddr: 0x1002F9A20, symSize: 0x0 }
  - { offsetInCU: 0xCC673, offset: 0xCC673, size: 0x8, addend: 0x0, symName: _.str.135, symObjAddr: 0x2F5540, symBinAddr: 0x1002F9A40, symSize: 0x0 }
  - { offsetInCU: 0xCC686, offset: 0xCC686, size: 0x8, addend: 0x0, symName: _.str.136, symObjAddr: 0x2F5560, symBinAddr: 0x1002F9A60, symSize: 0x0 }
  - { offsetInCU: 0xCC699, offset: 0xCC699, size: 0x8, addend: 0x0, symName: _.str.137, symObjAddr: 0x2F5580, symBinAddr: 0x1002F9A80, symSize: 0x0 }
  - { offsetInCU: 0xCC6AC, offset: 0xCC6AC, size: 0x8, addend: 0x0, symName: _.str.138, symObjAddr: 0x2F55A0, symBinAddr: 0x1002F9AA0, symSize: 0x0 }
  - { offsetInCU: 0xCC6BF, offset: 0xCC6BF, size: 0x8, addend: 0x0, symName: _.str.139, symObjAddr: 0x2F55C0, symBinAddr: 0x1002F9AC0, symSize: 0x0 }
  - { offsetInCU: 0xCC6D2, offset: 0xCC6D2, size: 0x8, addend: 0x0, symName: _.str.140, symObjAddr: 0x2F55E0, symBinAddr: 0x1002F9AE0, symSize: 0x0 }
  - { offsetInCU: 0xCC6E5, offset: 0xCC6E5, size: 0x8, addend: 0x0, symName: _.str.141, symObjAddr: 0x2F5600, symBinAddr: 0x1002F9B00, symSize: 0x0 }
  - { offsetInCU: 0xCC6F8, offset: 0xCC6F8, size: 0x8, addend: 0x0, symName: _.str.142, symObjAddr: 0x2F5620, symBinAddr: 0x1002F9B20, symSize: 0x0 }
  - { offsetInCU: 0xCC70B, offset: 0xCC70B, size: 0x8, addend: 0x0, symName: _.str.143, symObjAddr: 0x2F5640, symBinAddr: 0x1002F9B40, symSize: 0x0 }
  - { offsetInCU: 0xCC71E, offset: 0xCC71E, size: 0x8, addend: 0x0, symName: _.str.144, symObjAddr: 0x2F5660, symBinAddr: 0x1002F9B60, symSize: 0x0 }
  - { offsetInCU: 0xCC731, offset: 0xCC731, size: 0x8, addend: 0x0, symName: _.str.145, symObjAddr: 0x2F5680, symBinAddr: 0x1002F9B80, symSize: 0x0 }
  - { offsetInCU: 0xCC744, offset: 0xCC744, size: 0x8, addend: 0x0, symName: _.str.146, symObjAddr: 0x2F56A0, symBinAddr: 0x1002F9BA0, symSize: 0x0 }
  - { offsetInCU: 0xCC757, offset: 0xCC757, size: 0x8, addend: 0x0, symName: _.str.147, symObjAddr: 0x2F56C0, symBinAddr: 0x1002F9BC0, symSize: 0x0 }
  - { offsetInCU: 0xCC76A, offset: 0xCC76A, size: 0x8, addend: 0x0, symName: _.str.148, symObjAddr: 0x2F56E0, symBinAddr: 0x1002F9BE0, symSize: 0x0 }
  - { offsetInCU: 0xCC77D, offset: 0xCC77D, size: 0x8, addend: 0x0, symName: _.str.149, symObjAddr: 0x2F5700, symBinAddr: 0x1002F9C00, symSize: 0x0 }
  - { offsetInCU: 0xCC790, offset: 0xCC790, size: 0x8, addend: 0x0, symName: _.str.150, symObjAddr: 0x2F5720, symBinAddr: 0x1002F9C20, symSize: 0x0 }
  - { offsetInCU: 0xCC7A3, offset: 0xCC7A3, size: 0x8, addend: 0x0, symName: _.str.151, symObjAddr: 0x2F5740, symBinAddr: 0x1002F9C40, symSize: 0x0 }
  - { offsetInCU: 0xCC7B6, offset: 0xCC7B6, size: 0x8, addend: 0x0, symName: _.str.152, symObjAddr: 0x2F5760, symBinAddr: 0x1002F9C60, symSize: 0x0 }
  - { offsetInCU: 0xCC7C9, offset: 0xCC7C9, size: 0x8, addend: 0x0, symName: _.str.153, symObjAddr: 0x2F5780, symBinAddr: 0x1002F9C80, symSize: 0x0 }
  - { offsetInCU: 0xCC7DC, offset: 0xCC7DC, size: 0x8, addend: 0x0, symName: _.str.154, symObjAddr: 0x2F57A0, symBinAddr: 0x1002F9CA0, symSize: 0x0 }
  - { offsetInCU: 0xCC7EF, offset: 0xCC7EF, size: 0x8, addend: 0x0, symName: _.str.155, symObjAddr: 0x2F57C0, symBinAddr: 0x1002F9CC0, symSize: 0x0 }
  - { offsetInCU: 0xCC802, offset: 0xCC802, size: 0x8, addend: 0x0, symName: _.str.156, symObjAddr: 0x2F57E0, symBinAddr: 0x1002F9CE0, symSize: 0x0 }
  - { offsetInCU: 0xCC815, offset: 0xCC815, size: 0x8, addend: 0x0, symName: _.str.157, symObjAddr: 0x2F5800, symBinAddr: 0x1002F9D00, symSize: 0x0 }
  - { offsetInCU: 0xCC828, offset: 0xCC828, size: 0x8, addend: 0x0, symName: _.str.158, symObjAddr: 0x2F5820, symBinAddr: 0x1002F9D20, symSize: 0x0 }
  - { offsetInCU: 0xCC83B, offset: 0xCC83B, size: 0x8, addend: 0x0, symName: _.str.159, symObjAddr: 0x2F5840, symBinAddr: 0x1002F9D40, symSize: 0x0 }
  - { offsetInCU: 0xCC84E, offset: 0xCC84E, size: 0x8, addend: 0x0, symName: _.str.160, symObjAddr: 0x2F5860, symBinAddr: 0x1002F9D60, symSize: 0x0 }
  - { offsetInCU: 0xCC861, offset: 0xCC861, size: 0x8, addend: 0x0, symName: _.str.161, symObjAddr: 0x2F5880, symBinAddr: 0x1002F9D80, symSize: 0x0 }
  - { offsetInCU: 0xCC874, offset: 0xCC874, size: 0x8, addend: 0x0, symName: _.str.162, symObjAddr: 0x2F58A0, symBinAddr: 0x1002F9DA0, symSize: 0x0 }
  - { offsetInCU: 0xCC887, offset: 0xCC887, size: 0x8, addend: 0x0, symName: _.str.163, symObjAddr: 0x2F58C0, symBinAddr: 0x1002F9DC0, symSize: 0x0 }
  - { offsetInCU: 0xCC89A, offset: 0xCC89A, size: 0x8, addend: 0x0, symName: _.str.164, symObjAddr: 0x2F58E0, symBinAddr: 0x1002F9DE0, symSize: 0x0 }
  - { offsetInCU: 0xCC8AD, offset: 0xCC8AD, size: 0x8, addend: 0x0, symName: _.str.165, symObjAddr: 0x2F5900, symBinAddr: 0x1002F9E00, symSize: 0x0 }
  - { offsetInCU: 0xCC8C0, offset: 0xCC8C0, size: 0x8, addend: 0x0, symName: _.str.166, symObjAddr: 0x2F5920, symBinAddr: 0x1002F9E20, symSize: 0x0 }
  - { offsetInCU: 0xCC8D3, offset: 0xCC8D3, size: 0x8, addend: 0x0, symName: _.str.167, symObjAddr: 0x2F5940, symBinAddr: 0x1002F9E40, symSize: 0x0 }
  - { offsetInCU: 0xCC8E6, offset: 0xCC8E6, size: 0x8, addend: 0x0, symName: _.str.168, symObjAddr: 0x2F5960, symBinAddr: 0x1002F9E60, symSize: 0x0 }
  - { offsetInCU: 0xCC8F9, offset: 0xCC8F9, size: 0x8, addend: 0x0, symName: _.str.169, symObjAddr: 0x2F5980, symBinAddr: 0x1002F9E80, symSize: 0x0 }
  - { offsetInCU: 0xCC90C, offset: 0xCC90C, size: 0x8, addend: 0x0, symName: _.str.170, symObjAddr: 0x2F59A0, symBinAddr: 0x1002F9EA0, symSize: 0x0 }
  - { offsetInCU: 0xCC91F, offset: 0xCC91F, size: 0x8, addend: 0x0, symName: _.str.171, symObjAddr: 0x2F59C0, symBinAddr: 0x1002F9EC0, symSize: 0x0 }
  - { offsetInCU: 0xCC932, offset: 0xCC932, size: 0x8, addend: 0x0, symName: _.str.172, symObjAddr: 0x2F59E0, symBinAddr: 0x1002F9EE0, symSize: 0x0 }
  - { offsetInCU: 0xCC945, offset: 0xCC945, size: 0x8, addend: 0x0, symName: _.str.173, symObjAddr: 0x2F5A00, symBinAddr: 0x1002F9F00, symSize: 0x0 }
  - { offsetInCU: 0xCC958, offset: 0xCC958, size: 0x8, addend: 0x0, symName: _.str.174, symObjAddr: 0x2F5A20, symBinAddr: 0x1002F9F20, symSize: 0x0 }
  - { offsetInCU: 0xCC977, offset: 0xCC977, size: 0x8, addend: 0x0, symName: _.str.175, symObjAddr: 0x2F5A40, symBinAddr: 0x1002F9F40, symSize: 0x0 }
  - { offsetInCU: 0xCC98A, offset: 0xCC98A, size: 0x8, addend: 0x0, symName: _.str.176, symObjAddr: 0x2F5A60, symBinAddr: 0x1002F9F60, symSize: 0x0 }
  - { offsetInCU: 0xCC99D, offset: 0xCC99D, size: 0x8, addend: 0x0, symName: _.str.177, symObjAddr: 0x2F5A80, symBinAddr: 0x1002F9F80, symSize: 0x0 }
  - { offsetInCU: 0xCC9B0, offset: 0xCC9B0, size: 0x8, addend: 0x0, symName: _.str.178, symObjAddr: 0x2F5AA0, symBinAddr: 0x1002F9FA0, symSize: 0x0 }
  - { offsetInCU: 0xCC9C3, offset: 0xCC9C3, size: 0x8, addend: 0x0, symName: _.str.179, symObjAddr: 0x2F5AC0, symBinAddr: 0x1002F9FC0, symSize: 0x0 }
  - { offsetInCU: 0xCC9D6, offset: 0xCC9D6, size: 0x8, addend: 0x0, symName: _.str.180, symObjAddr: 0x2F5AE0, symBinAddr: 0x1002F9FE0, symSize: 0x0 }
  - { offsetInCU: 0xCC9E9, offset: 0xCC9E9, size: 0x8, addend: 0x0, symName: _.str.181, symObjAddr: 0x2F5B00, symBinAddr: 0x1002FA000, symSize: 0x0 }
  - { offsetInCU: 0xCC9FC, offset: 0xCC9FC, size: 0x8, addend: 0x0, symName: _.str.182, symObjAddr: 0x2F5B20, symBinAddr: 0x1002FA020, symSize: 0x0 }
  - { offsetInCU: 0xCCA0F, offset: 0xCCA0F, size: 0x8, addend: 0x0, symName: _.str.183, symObjAddr: 0x2F5B40, symBinAddr: 0x1002FA040, symSize: 0x0 }
  - { offsetInCU: 0xCCA22, offset: 0xCCA22, size: 0x8, addend: 0x0, symName: _.str.184, symObjAddr: 0x2F5B60, symBinAddr: 0x1002FA060, symSize: 0x0 }
  - { offsetInCU: 0xCCA35, offset: 0xCCA35, size: 0x8, addend: 0x0, symName: _.str.185, symObjAddr: 0x2F5B80, symBinAddr: 0x1002FA080, symSize: 0x0 }
  - { offsetInCU: 0xCCA48, offset: 0xCCA48, size: 0x8, addend: 0x0, symName: _.str.186, symObjAddr: 0x2F5BA0, symBinAddr: 0x1002FA0A0, symSize: 0x0 }
  - { offsetInCU: 0xCCA5B, offset: 0xCCA5B, size: 0x8, addend: 0x0, symName: _.str.187, symObjAddr: 0x2F5BC0, symBinAddr: 0x1002FA0C0, symSize: 0x0 }
  - { offsetInCU: 0xCCA6E, offset: 0xCCA6E, size: 0x8, addend: 0x0, symName: _.str.188, symObjAddr: 0x2F5BE0, symBinAddr: 0x1002FA0E0, symSize: 0x0 }
  - { offsetInCU: 0xCCA81, offset: 0xCCA81, size: 0x8, addend: 0x0, symName: _.str.189, symObjAddr: 0x2F5C00, symBinAddr: 0x1002FA100, symSize: 0x0 }
  - { offsetInCU: 0xCCA94, offset: 0xCCA94, size: 0x8, addend: 0x0, symName: _.str.190, symObjAddr: 0x2F5C20, symBinAddr: 0x1002FA120, symSize: 0x0 }
  - { offsetInCU: 0xCCAA7, offset: 0xCCAA7, size: 0x8, addend: 0x0, symName: _.str.191, symObjAddr: 0x2F5C40, symBinAddr: 0x1002FA140, symSize: 0x0 }
  - { offsetInCU: 0xCCABA, offset: 0xCCABA, size: 0x8, addend: 0x0, symName: _.str.192, symObjAddr: 0x2F5C60, symBinAddr: 0x1002FA160, symSize: 0x0 }
  - { offsetInCU: 0xCCACD, offset: 0xCCACD, size: 0x8, addend: 0x0, symName: _.str.193, symObjAddr: 0x2F5C80, symBinAddr: 0x1002FA180, symSize: 0x0 }
  - { offsetInCU: 0xCCAE0, offset: 0xCCAE0, size: 0x8, addend: 0x0, symName: _.str.194, symObjAddr: 0x2F5CA0, symBinAddr: 0x1002FA1A0, symSize: 0x0 }
  - { offsetInCU: 0xCCAF3, offset: 0xCCAF3, size: 0x8, addend: 0x0, symName: _.str.195, symObjAddr: 0x2F5CC0, symBinAddr: 0x1002FA1C0, symSize: 0x0 }
  - { offsetInCU: 0xCCB06, offset: 0xCCB06, size: 0x8, addend: 0x0, symName: _.str.196, symObjAddr: 0x2F5CE0, symBinAddr: 0x1002FA1E0, symSize: 0x0 }
  - { offsetInCU: 0xCCB19, offset: 0xCCB19, size: 0x8, addend: 0x0, symName: _.str.197, symObjAddr: 0x2F5D00, symBinAddr: 0x1002FA200, symSize: 0x0 }
  - { offsetInCU: 0xCCB2C, offset: 0xCCB2C, size: 0x8, addend: 0x0, symName: _.str.198, symObjAddr: 0x2F5D20, symBinAddr: 0x1002FA220, symSize: 0x0 }
  - { offsetInCU: 0xCCB3F, offset: 0xCCB3F, size: 0x8, addend: 0x0, symName: _.str.199, symObjAddr: 0x2F5D40, symBinAddr: 0x1002FA240, symSize: 0x0 }
  - { offsetInCU: 0xCCB52, offset: 0xCCB52, size: 0x8, addend: 0x0, symName: _.str.200, symObjAddr: 0x2F5D60, symBinAddr: 0x1002FA260, symSize: 0x0 }
  - { offsetInCU: 0xCCB65, offset: 0xCCB65, size: 0x8, addend: 0x0, symName: _.str.201, symObjAddr: 0x2F5D80, symBinAddr: 0x1002FA280, symSize: 0x0 }
  - { offsetInCU: 0xCCB78, offset: 0xCCB78, size: 0x8, addend: 0x0, symName: _.str.202, symObjAddr: 0x2F5DA0, symBinAddr: 0x1002FA2A0, symSize: 0x0 }
  - { offsetInCU: 0xCCB97, offset: 0xCCB97, size: 0x8, addend: 0x0, symName: _.str.203, symObjAddr: 0x2F5DE0, symBinAddr: 0x1002FA2E0, symSize: 0x0 }
  - { offsetInCU: 0xCD152, offset: 0xCD152, size: 0x8, addend: 0x0, symName: _.str.213, symObjAddr: 0x2F5E00, symBinAddr: 0x1002FA300, symSize: 0x0 }
  - { offsetInCU: 0xCD163, offset: 0xCD163, size: 0x8, addend: 0x0, symName: _.str.214, symObjAddr: 0x2F5E20, symBinAddr: 0x1002FA320, symSize: 0x0 }
  - { offsetInCU: 0xCD174, offset: 0xCD174, size: 0x8, addend: 0x0, symName: _.str.215, symObjAddr: 0x2F5E40, symBinAddr: 0x1002FA340, symSize: 0x0 }
  - { offsetInCU: 0xCD191, offset: 0xCD191, size: 0x8, addend: 0x0, symName: _.str.216, symObjAddr: 0x2F5E80, symBinAddr: 0x1002FA380, symSize: 0x0 }
  - { offsetInCU: 0xCD1AE, offset: 0xCD1AE, size: 0x8, addend: 0x0, symName: _.str.217, symObjAddr: 0x2F5EC0, symBinAddr: 0x1002FA3C0, symSize: 0x0 }
  - { offsetInCU: 0xCD1CB, offset: 0xCD1CB, size: 0x8, addend: 0x0, symName: _.str.218, symObjAddr: 0x2F5F20, symBinAddr: 0x1002FA420, symSize: 0x0 }
  - { offsetInCU: 0xCD1E8, offset: 0xCD1E8, size: 0x8, addend: 0x0, symName: _.str.219, symObjAddr: 0x2F5F60, symBinAddr: 0x1002FA460, symSize: 0x0 }
  - { offsetInCU: 0xCD204, offset: 0xCD204, size: 0x8, addend: 0x0, symName: _.str.220, symObjAddr: 0x2F5F80, symBinAddr: 0x1002FA480, symSize: 0x0 }
  - { offsetInCU: 0xCD215, offset: 0xCD215, size: 0x8, addend: 0x0, symName: _.str.221, symObjAddr: 0x2F5FA0, symBinAddr: 0x1002FA4A0, symSize: 0x0 }
  - { offsetInCU: 0xCD226, offset: 0xCD226, size: 0x8, addend: 0x0, symName: _.str.222, symObjAddr: 0x2F5FC0, symBinAddr: 0x1002FA4C0, symSize: 0x0 }
  - { offsetInCU: 0xCD237, offset: 0xCD237, size: 0x8, addend: 0x0, symName: _.str.223, symObjAddr: 0x2F5FE0, symBinAddr: 0x1002FA4E0, symSize: 0x0 }
  - { offsetInCU: 0xCD248, offset: 0xCD248, size: 0x8, addend: 0x0, symName: _.str.224, symObjAddr: 0x2F6000, symBinAddr: 0x1002FA500, symSize: 0x0 }
  - { offsetInCU: 0xCD259, offset: 0xCD259, size: 0x8, addend: 0x0, symName: _.str.225, symObjAddr: 0x2F6020, symBinAddr: 0x1002FA520, symSize: 0x0 }
  - { offsetInCU: 0xCD276, offset: 0xCD276, size: 0x8, addend: 0x0, symName: _.str.226, symObjAddr: 0x2F6060, symBinAddr: 0x1002FA560, symSize: 0x0 }
  - { offsetInCU: 0xCD287, offset: 0xCD287, size: 0x8, addend: 0x0, symName: _.str.227, symObjAddr: 0x2F6080, symBinAddr: 0x1002FA580, symSize: 0x0 }
  - { offsetInCU: 0xCD298, offset: 0xCD298, size: 0x8, addend: 0x0, symName: _.str.228, symObjAddr: 0x2F60A0, symBinAddr: 0x1002FA5A0, symSize: 0x0 }
  - { offsetInCU: 0xCD2A9, offset: 0xCD2A9, size: 0x8, addend: 0x0, symName: _.str.229, symObjAddr: 0x2F60C0, symBinAddr: 0x1002FA5C0, symSize: 0x0 }
  - { offsetInCU: 0xCD2BA, offset: 0xCD2BA, size: 0x8, addend: 0x0, symName: _.str.230, symObjAddr: 0x2F60E0, symBinAddr: 0x1002FA5E0, symSize: 0x0 }
  - { offsetInCU: 0xCD2CB, offset: 0xCD2CB, size: 0x8, addend: 0x0, symName: _.str.231, symObjAddr: 0x2F6100, symBinAddr: 0x1002FA600, symSize: 0x0 }
  - { offsetInCU: 0xCD2DE, offset: 0xCD2DE, size: 0x8, addend: 0x0, symName: _.str.232, symObjAddr: 0x2F6120, symBinAddr: 0x1002FA620, symSize: 0x0 }
  - { offsetInCU: 0xCD2F1, offset: 0xCD2F1, size: 0x8, addend: 0x0, symName: _.str.233, symObjAddr: 0x2F6140, symBinAddr: 0x1002FA640, symSize: 0x0 }
  - { offsetInCU: 0xCD304, offset: 0xCD304, size: 0x8, addend: 0x0, symName: _.str.234, symObjAddr: 0x2F6160, symBinAddr: 0x1002FA660, symSize: 0x0 }
  - { offsetInCU: 0xCD317, offset: 0xCD317, size: 0x8, addend: 0x0, symName: _.str.235, symObjAddr: 0x2F6180, symBinAddr: 0x1002FA680, symSize: 0x0 }
  - { offsetInCU: 0xCD32A, offset: 0xCD32A, size: 0x8, addend: 0x0, symName: _.str.236, symObjAddr: 0x2F61A0, symBinAddr: 0x1002FA6A0, symSize: 0x0 }
  - { offsetInCU: 0xCD33D, offset: 0xCD33D, size: 0x8, addend: 0x0, symName: _.str.237, symObjAddr: 0x2F61C0, symBinAddr: 0x1002FA6C0, symSize: 0x0 }
  - { offsetInCU: 0xCD350, offset: 0xCD350, size: 0x8, addend: 0x0, symName: _.str.238, symObjAddr: 0x2F61E0, symBinAddr: 0x1002FA6E0, symSize: 0x0 }
  - { offsetInCU: 0xCD363, offset: 0xCD363, size: 0x8, addend: 0x0, symName: _.str.239, symObjAddr: 0x2F6200, symBinAddr: 0x1002FA700, symSize: 0x0 }
  - { offsetInCU: 0xCD376, offset: 0xCD376, size: 0x8, addend: 0x0, symName: _.str.240, symObjAddr: 0x2F6220, symBinAddr: 0x1002FA720, symSize: 0x0 }
  - { offsetInCU: 0xCD389, offset: 0xCD389, size: 0x8, addend: 0x0, symName: _.str.241, symObjAddr: 0x2F6240, symBinAddr: 0x1002FA740, symSize: 0x0 }
  - { offsetInCU: 0xCD39C, offset: 0xCD39C, size: 0x8, addend: 0x0, symName: _.str.242, symObjAddr: 0x2F6260, symBinAddr: 0x1002FA760, symSize: 0x0 }
  - { offsetInCU: 0xCD3AD, offset: 0xCD3AD, size: 0x8, addend: 0x0, symName: _.str.243, symObjAddr: 0x2F6280, symBinAddr: 0x1002FA780, symSize: 0x0 }
  - { offsetInCU: 0xCD3BE, offset: 0xCD3BE, size: 0x8, addend: 0x0, symName: _.str.244, symObjAddr: 0x2F62A0, symBinAddr: 0x1002FA7A0, symSize: 0x0 }
  - { offsetInCU: 0xCD3CF, offset: 0xCD3CF, size: 0x8, addend: 0x0, symName: _.str.245, symObjAddr: 0x2F62C0, symBinAddr: 0x1002FA7C0, symSize: 0x0 }
  - { offsetInCU: 0xCD3E0, offset: 0xCD3E0, size: 0x8, addend: 0x0, symName: _.str.246, symObjAddr: 0x2F62E0, symBinAddr: 0x1002FA7E0, symSize: 0x0 }
  - { offsetInCU: 0xCD3F1, offset: 0xCD3F1, size: 0x8, addend: 0x0, symName: _.str.247, symObjAddr: 0x2F6300, symBinAddr: 0x1002FA800, symSize: 0x0 }
  - { offsetInCU: 0xCD402, offset: 0xCD402, size: 0x8, addend: 0x0, symName: _.str.248, symObjAddr: 0x2F6320, symBinAddr: 0x1002FA820, symSize: 0x0 }
  - { offsetInCU: 0xCD413, offset: 0xCD413, size: 0x8, addend: 0x0, symName: _.str.249, symObjAddr: 0x2F6340, symBinAddr: 0x1002FA840, symSize: 0x0 }
  - { offsetInCU: 0xCD424, offset: 0xCD424, size: 0x8, addend: 0x0, symName: _.str.250, symObjAddr: 0x2F6360, symBinAddr: 0x1002FA860, symSize: 0x0 }
  - { offsetInCU: 0xCD435, offset: 0xCD435, size: 0x8, addend: 0x0, symName: _.str.251, symObjAddr: 0x2F6380, symBinAddr: 0x1002FA880, symSize: 0x0 }
  - { offsetInCU: 0xCD446, offset: 0xCD446, size: 0x8, addend: 0x0, symName: _.str.252, symObjAddr: 0x2F63A0, symBinAddr: 0x1002FA8A0, symSize: 0x0 }
  - { offsetInCU: 0xCD457, offset: 0xCD457, size: 0x8, addend: 0x0, symName: _.str.253, symObjAddr: 0x2F63C0, symBinAddr: 0x1002FA8C0, symSize: 0x0 }
  - { offsetInCU: 0xCD468, offset: 0xCD468, size: 0x8, addend: 0x0, symName: _.str.254, symObjAddr: 0x2F63E0, symBinAddr: 0x1002FA8E0, symSize: 0x0 }
  - { offsetInCU: 0xCD479, offset: 0xCD479, size: 0x8, addend: 0x0, symName: _.str.255, symObjAddr: 0x2F6400, symBinAddr: 0x1002FA900, symSize: 0x0 }
  - { offsetInCU: 0xCD48A, offset: 0xCD48A, size: 0x8, addend: 0x0, symName: _.str.256, symObjAddr: 0x2F6420, symBinAddr: 0x1002FA920, symSize: 0x0 }
  - { offsetInCU: 0xCD49B, offset: 0xCD49B, size: 0x8, addend: 0x0, symName: _.str.257, symObjAddr: 0x2F6440, symBinAddr: 0x1002FA940, symSize: 0x0 }
  - { offsetInCU: 0xCD4AE, offset: 0xCD4AE, size: 0x8, addend: 0x0, symName: _.str.258, symObjAddr: 0x2F6460, symBinAddr: 0x1002FA960, symSize: 0x0 }
  - { offsetInCU: 0xCD4C1, offset: 0xCD4C1, size: 0x8, addend: 0x0, symName: _.str.259, symObjAddr: 0x2F6480, symBinAddr: 0x1002FA980, symSize: 0x0 }
  - { offsetInCU: 0xCD4D4, offset: 0xCD4D4, size: 0x8, addend: 0x0, symName: _.str.260, symObjAddr: 0x2F64A0, symBinAddr: 0x1002FA9A0, symSize: 0x0 }
  - { offsetInCU: 0xCD4E7, offset: 0xCD4E7, size: 0x8, addend: 0x0, symName: _.str.261, symObjAddr: 0x2F64C0, symBinAddr: 0x1002FA9C0, symSize: 0x0 }
  - { offsetInCU: 0xCD4FA, offset: 0xCD4FA, size: 0x8, addend: 0x0, symName: _.str.262, symObjAddr: 0x2F64E0, symBinAddr: 0x1002FA9E0, symSize: 0x0 }
  - { offsetInCU: 0xCD50D, offset: 0xCD50D, size: 0x8, addend: 0x0, symName: _.str.263, symObjAddr: 0x2F6500, symBinAddr: 0x1002FAA00, symSize: 0x0 }
  - { offsetInCU: 0xCD520, offset: 0xCD520, size: 0x8, addend: 0x0, symName: _.str.264, symObjAddr: 0x2F6520, symBinAddr: 0x1002FAA20, symSize: 0x0 }
  - { offsetInCU: 0xCD533, offset: 0xCD533, size: 0x8, addend: 0x0, symName: _.str.265, symObjAddr: 0x2F6540, symBinAddr: 0x1002FAA40, symSize: 0x0 }
  - { offsetInCU: 0xCD546, offset: 0xCD546, size: 0x8, addend: 0x0, symName: _.str.266, symObjAddr: 0x2F6560, symBinAddr: 0x1002FAA60, symSize: 0x0 }
  - { offsetInCU: 0xCD559, offset: 0xCD559, size: 0x8, addend: 0x0, symName: _.str.267, symObjAddr: 0x2F6580, symBinAddr: 0x1002FAA80, symSize: 0x0 }
  - { offsetInCU: 0xCD56C, offset: 0xCD56C, size: 0x8, addend: 0x0, symName: _.str.268, symObjAddr: 0x2F65A0, symBinAddr: 0x1002FAAA0, symSize: 0x0 }
  - { offsetInCU: 0xCD57F, offset: 0xCD57F, size: 0x8, addend: 0x0, symName: _.str.269, symObjAddr: 0x2F65C0, symBinAddr: 0x1002FAAC0, symSize: 0x0 }
  - { offsetInCU: 0xCD592, offset: 0xCD592, size: 0x8, addend: 0x0, symName: _.str.270, symObjAddr: 0x2F65E0, symBinAddr: 0x1002FAAE0, symSize: 0x0 }
  - { offsetInCU: 0xCD5A3, offset: 0xCD5A3, size: 0x8, addend: 0x0, symName: _.str.271, symObjAddr: 0x2F6600, symBinAddr: 0x1002FAB00, symSize: 0x0 }
  - { offsetInCU: 0xCD5B4, offset: 0xCD5B4, size: 0x8, addend: 0x0, symName: _.str.272, symObjAddr: 0x2F6660, symBinAddr: 0x1002FAB60, symSize: 0x0 }
  - { offsetInCU: 0xCD5C7, offset: 0xCD5C7, size: 0x8, addend: 0x0, symName: _.str.273, symObjAddr: 0x2F6680, symBinAddr: 0x1002FAB80, symSize: 0x0 }
  - { offsetInCU: 0xCD5DA, offset: 0xCD5DA, size: 0x8, addend: 0x0, symName: _.str.274, symObjAddr: 0x2F66A0, symBinAddr: 0x1002FABA0, symSize: 0x0 }
  - { offsetInCU: 0xCD5ED, offset: 0xCD5ED, size: 0x8, addend: 0x0, symName: _.str.275, symObjAddr: 0x2F66C0, symBinAddr: 0x1002FABC0, symSize: 0x0 }
  - { offsetInCU: 0xCD600, offset: 0xCD600, size: 0x8, addend: 0x0, symName: _.str.276, symObjAddr: 0x2F66E0, symBinAddr: 0x1002FABE0, symSize: 0x0 }
  - { offsetInCU: 0xCD613, offset: 0xCD613, size: 0x8, addend: 0x0, symName: _.str.277, symObjAddr: 0x2F6700, symBinAddr: 0x1002FAC00, symSize: 0x0 }
  - { offsetInCU: 0xCD626, offset: 0xCD626, size: 0x8, addend: 0x0, symName: _.str.278, symObjAddr: 0x2F6720, symBinAddr: 0x1002FAC20, symSize: 0x0 }
  - { offsetInCU: 0xCD639, offset: 0xCD639, size: 0x8, addend: 0x0, symName: _.str.279, symObjAddr: 0x2F6740, symBinAddr: 0x1002FAC40, symSize: 0x0 }
  - { offsetInCU: 0xCD64C, offset: 0xCD64C, size: 0x8, addend: 0x0, symName: _.str.280, symObjAddr: 0x2F6760, symBinAddr: 0x1002FAC60, symSize: 0x0 }
  - { offsetInCU: 0xCD65D, offset: 0xCD65D, size: 0x8, addend: 0x0, symName: _.str.281, symObjAddr: 0x2F6780, symBinAddr: 0x1002FAC80, symSize: 0x0 }
  - { offsetInCU: 0xCD66E, offset: 0xCD66E, size: 0x8, addend: 0x0, symName: _.str.282, symObjAddr: 0x2F67A0, symBinAddr: 0x1002FACA0, symSize: 0x0 }
  - { offsetInCU: 0xCD67F, offset: 0xCD67F, size: 0x8, addend: 0x0, symName: _.str.283, symObjAddr: 0x2F67C0, symBinAddr: 0x1002FACC0, symSize: 0x0 }
  - { offsetInCU: 0xCD692, offset: 0xCD692, size: 0x8, addend: 0x0, symName: _.str.284, symObjAddr: 0x2F67E0, symBinAddr: 0x1002FACE0, symSize: 0x0 }
  - { offsetInCU: 0xCD6B1, offset: 0xCD6B1, size: 0x8, addend: 0x0, symName: _.str.285, symObjAddr: 0x2F6840, symBinAddr: 0x1002FAD40, symSize: 0x0 }
  - { offsetInCU: 0xCD6D0, offset: 0xCD6D0, size: 0x8, addend: 0x0, symName: _.str.286, symObjAddr: 0x2F68A0, symBinAddr: 0x1002FADA0, symSize: 0x0 }
  - { offsetInCU: 0xCD6E3, offset: 0xCD6E3, size: 0x8, addend: 0x0, symName: _.str.287, symObjAddr: 0x2F6900, symBinAddr: 0x1002FAE00, symSize: 0x0 }
  - { offsetInCU: 0xCD6F6, offset: 0xCD6F6, size: 0x8, addend: 0x0, symName: _.str.288, symObjAddr: 0x2F6920, symBinAddr: 0x1002FAE20, symSize: 0x0 }
  - { offsetInCU: 0xCD709, offset: 0xCD709, size: 0x8, addend: 0x0, symName: _.str.289, symObjAddr: 0x2F6940, symBinAddr: 0x1002FAE40, symSize: 0x0 }
  - { offsetInCU: 0xCD71C, offset: 0xCD71C, size: 0x8, addend: 0x0, symName: _.str.290, symObjAddr: 0x2F6960, symBinAddr: 0x1002FAE60, symSize: 0x0 }
  - { offsetInCU: 0xCD72F, offset: 0xCD72F, size: 0x8, addend: 0x0, symName: _.str.291, symObjAddr: 0x2F6980, symBinAddr: 0x1002FAE80, symSize: 0x0 }
  - { offsetInCU: 0xCD742, offset: 0xCD742, size: 0x8, addend: 0x0, symName: _.str.292, symObjAddr: 0x2F69A0, symBinAddr: 0x1002FAEA0, symSize: 0x0 }
  - { offsetInCU: 0xCD755, offset: 0xCD755, size: 0x8, addend: 0x0, symName: _.str.293, symObjAddr: 0x2F69C0, symBinAddr: 0x1002FAEC0, symSize: 0x0 }
  - { offsetInCU: 0xCD768, offset: 0xCD768, size: 0x8, addend: 0x0, symName: _.str.294, symObjAddr: 0x2F69E0, symBinAddr: 0x1002FAEE0, symSize: 0x0 }
  - { offsetInCU: 0xCD77B, offset: 0xCD77B, size: 0x8, addend: 0x0, symName: _.str.295, symObjAddr: 0x2F6A00, symBinAddr: 0x1002FAF00, symSize: 0x0 }
  - { offsetInCU: 0xCD78E, offset: 0xCD78E, size: 0x8, addend: 0x0, symName: _.str.296, symObjAddr: 0x2F6A20, symBinAddr: 0x1002FAF20, symSize: 0x0 }
  - { offsetInCU: 0xCD7A1, offset: 0xCD7A1, size: 0x8, addend: 0x0, symName: _.str.297, symObjAddr: 0x2F6A40, symBinAddr: 0x1002FAF40, symSize: 0x0 }
  - { offsetInCU: 0xCD7B4, offset: 0xCD7B4, size: 0x8, addend: 0x0, symName: _.str.298, symObjAddr: 0x2F6A60, symBinAddr: 0x1002FAF60, symSize: 0x0 }
  - { offsetInCU: 0xCD7C7, offset: 0xCD7C7, size: 0x8, addend: 0x0, symName: _.str.299, symObjAddr: 0x2F6A80, symBinAddr: 0x1002FAF80, symSize: 0x0 }
  - { offsetInCU: 0xCD7DA, offset: 0xCD7DA, size: 0x8, addend: 0x0, symName: _.str.300, symObjAddr: 0x2F6AA0, symBinAddr: 0x1002FAFA0, symSize: 0x0 }
  - { offsetInCU: 0xCD7ED, offset: 0xCD7ED, size: 0x8, addend: 0x0, symName: _.str.301, symObjAddr: 0x2F6AC0, symBinAddr: 0x1002FAFC0, symSize: 0x0 }
  - { offsetInCU: 0xCD800, offset: 0xCD800, size: 0x8, addend: 0x0, symName: _.str.302, symObjAddr: 0x2F6AE0, symBinAddr: 0x1002FAFE0, symSize: 0x0 }
  - { offsetInCU: 0xCD813, offset: 0xCD813, size: 0x8, addend: 0x0, symName: _.str.303, symObjAddr: 0x2F6B00, symBinAddr: 0x1002FB000, symSize: 0x0 }
  - { offsetInCU: 0xCD826, offset: 0xCD826, size: 0x8, addend: 0x0, symName: _.str.304, symObjAddr: 0x2F6B20, symBinAddr: 0x1002FB020, symSize: 0x0 }
  - { offsetInCU: 0xCD839, offset: 0xCD839, size: 0x8, addend: 0x0, symName: _.str.305, symObjAddr: 0x2F6B40, symBinAddr: 0x1002FB040, symSize: 0x0 }
  - { offsetInCU: 0xCD84C, offset: 0xCD84C, size: 0x8, addend: 0x0, symName: _.str.306, symObjAddr: 0x2F6B60, symBinAddr: 0x1002FB060, symSize: 0x0 }
  - { offsetInCU: 0xCD85F, offset: 0xCD85F, size: 0x8, addend: 0x0, symName: _.str.307, symObjAddr: 0x2F6B80, symBinAddr: 0x1002FB080, symSize: 0x0 }
  - { offsetInCU: 0xCD872, offset: 0xCD872, size: 0x8, addend: 0x0, symName: _.str.308, symObjAddr: 0x2F6BA0, symBinAddr: 0x1002FB0A0, symSize: 0x0 }
  - { offsetInCU: 0xCD885, offset: 0xCD885, size: 0x8, addend: 0x0, symName: _.str.309, symObjAddr: 0x2F6BC0, symBinAddr: 0x1002FB0C0, symSize: 0x0 }
  - { offsetInCU: 0xCD898, offset: 0xCD898, size: 0x8, addend: 0x0, symName: _.str.310, symObjAddr: 0x2F6BE0, symBinAddr: 0x1002FB0E0, symSize: 0x0 }
  - { offsetInCU: 0xCD8AB, offset: 0xCD8AB, size: 0x8, addend: 0x0, symName: _.str.311, symObjAddr: 0x2F6C00, symBinAddr: 0x1002FB100, symSize: 0x0 }
  - { offsetInCU: 0xCD8BE, offset: 0xCD8BE, size: 0x8, addend: 0x0, symName: _.str.312, symObjAddr: 0x2F6C20, symBinAddr: 0x1002FB120, symSize: 0x0 }
  - { offsetInCU: 0xCD8D1, offset: 0xCD8D1, size: 0x8, addend: 0x0, symName: _.str.313, symObjAddr: 0x2F6C40, symBinAddr: 0x1002FB140, symSize: 0x0 }
  - { offsetInCU: 0xCD8E4, offset: 0xCD8E4, size: 0x8, addend: 0x0, symName: _.str.314, symObjAddr: 0x2F6C60, symBinAddr: 0x1002FB160, symSize: 0x0 }
  - { offsetInCU: 0xCD8F7, offset: 0xCD8F7, size: 0x8, addend: 0x0, symName: _.str.315, symObjAddr: 0x2F6C80, symBinAddr: 0x1002FB180, symSize: 0x0 }
  - { offsetInCU: 0xCD90A, offset: 0xCD90A, size: 0x8, addend: 0x0, symName: _.str.316, symObjAddr: 0x2F6CA0, symBinAddr: 0x1002FB1A0, symSize: 0x0 }
  - { offsetInCU: 0xCD91D, offset: 0xCD91D, size: 0x8, addend: 0x0, symName: _.str.317, symObjAddr: 0x2F6CC0, symBinAddr: 0x1002FB1C0, symSize: 0x0 }
  - { offsetInCU: 0xCD930, offset: 0xCD930, size: 0x8, addend: 0x0, symName: _.str.318, symObjAddr: 0x2F6CE0, symBinAddr: 0x1002FB1E0, symSize: 0x0 }
  - { offsetInCU: 0xCD943, offset: 0xCD943, size: 0x8, addend: 0x0, symName: _.str.319, symObjAddr: 0x2F6D00, symBinAddr: 0x1002FB200, symSize: 0x0 }
  - { offsetInCU: 0xCD956, offset: 0xCD956, size: 0x8, addend: 0x0, symName: _.str.320, symObjAddr: 0x2F6D20, symBinAddr: 0x1002FB220, symSize: 0x0 }
  - { offsetInCU: 0xCD969, offset: 0xCD969, size: 0x8, addend: 0x0, symName: _.str.321, symObjAddr: 0x2F6D40, symBinAddr: 0x1002FB240, symSize: 0x0 }
  - { offsetInCU: 0xCD97C, offset: 0xCD97C, size: 0x8, addend: 0x0, symName: _.str.322, symObjAddr: 0x2F6D60, symBinAddr: 0x1002FB260, symSize: 0x0 }
  - { offsetInCU: 0xCD98F, offset: 0xCD98F, size: 0x8, addend: 0x0, symName: _.str.323, symObjAddr: 0x2F6D80, symBinAddr: 0x1002FB280, symSize: 0x0 }
  - { offsetInCU: 0xCD9AE, offset: 0xCD9AE, size: 0x8, addend: 0x0, symName: _.str.324, symObjAddr: 0x2F6DC0, symBinAddr: 0x1002FB2C0, symSize: 0x0 }
  - { offsetInCU: 0xCD9C1, offset: 0xCD9C1, size: 0x8, addend: 0x0, symName: _.str.325, symObjAddr: 0x2F6DE0, symBinAddr: 0x1002FB2E0, symSize: 0x0 }
  - { offsetInCU: 0xCD9D4, offset: 0xCD9D4, size: 0x8, addend: 0x0, symName: _.str.326, symObjAddr: 0x2F6E00, symBinAddr: 0x1002FB300, symSize: 0x0 }
  - { offsetInCU: 0xCD9E7, offset: 0xCD9E7, size: 0x8, addend: 0x0, symName: _.str.327, symObjAddr: 0x2F6E20, symBinAddr: 0x1002FB320, symSize: 0x0 }
  - { offsetInCU: 0xCD9FA, offset: 0xCD9FA, size: 0x8, addend: 0x0, symName: _.str.328, symObjAddr: 0x2F6E40, symBinAddr: 0x1002FB340, symSize: 0x0 }
  - { offsetInCU: 0xCDA0D, offset: 0xCDA0D, size: 0x8, addend: 0x0, symName: _.str.329, symObjAddr: 0x2F6E60, symBinAddr: 0x1002FB360, symSize: 0x0 }
  - { offsetInCU: 0xCDA20, offset: 0xCDA20, size: 0x8, addend: 0x0, symName: _.str.330, symObjAddr: 0x2F6E80, symBinAddr: 0x1002FB380, symSize: 0x0 }
  - { offsetInCU: 0xCDA31, offset: 0xCDA31, size: 0x8, addend: 0x0, symName: _.str.331, symObjAddr: 0x2F6EA0, symBinAddr: 0x1002FB3A0, symSize: 0x0 }
  - { offsetInCU: 0xCDA42, offset: 0xCDA42, size: 0x8, addend: 0x0, symName: _.str.332, symObjAddr: 0x2F6EC0, symBinAddr: 0x1002FB3C0, symSize: 0x0 }
  - { offsetInCU: 0xCDA55, offset: 0xCDA55, size: 0x8, addend: 0x0, symName: _.str.333, symObjAddr: 0x2F6EE0, symBinAddr: 0x1002FB3E0, symSize: 0x0 }
  - { offsetInCU: 0xCDA6E, offset: 0xCDA6E, size: 0x8, addend: 0x0, symName: _.str.334, symObjAddr: 0x2F6F00, symBinAddr: 0x1002FB400, symSize: 0x0 }
  - { offsetInCU: 0xCDA8D, offset: 0xCDA8D, size: 0x8, addend: 0x0, symName: _.str.335, symObjAddr: 0x2F6F60, symBinAddr: 0x1002FB460, symSize: 0x0 }
  - { offsetInCU: 0xCDAAC, offset: 0xCDAAC, size: 0x8, addend: 0x0, symName: _.str.336, symObjAddr: 0x2F6FA0, symBinAddr: 0x1002FB4A0, symSize: 0x0 }
  - { offsetInCU: 0xCDACB, offset: 0xCDACB, size: 0x8, addend: 0x0, symName: _.str.337, symObjAddr: 0x2F7000, symBinAddr: 0x1002FB500, symSize: 0x0 }
  - { offsetInCU: 0xCDAEA, offset: 0xCDAEA, size: 0x8, addend: 0x0, symName: _.str.338, symObjAddr: 0x2F7040, symBinAddr: 0x1002FB540, symSize: 0x0 }
  - { offsetInCU: 0xCDAFD, offset: 0xCDAFD, size: 0x8, addend: 0x0, symName: _.str.339, symObjAddr: 0x2F7080, symBinAddr: 0x1002FB580, symSize: 0x0 }
  - { offsetInCU: 0xCDB0E, offset: 0xCDB0E, size: 0x8, addend: 0x0, symName: _.str.340, symObjAddr: 0x2F70C0, symBinAddr: 0x1002FB5C0, symSize: 0x0 }
  - { offsetInCU: 0xCDB1F, offset: 0xCDB1F, size: 0x8, addend: 0x0, symName: _.str.341, symObjAddr: 0x2F70E0, symBinAddr: 0x1002FB5E0, symSize: 0x0 }
  - { offsetInCU: 0xCDB30, offset: 0xCDB30, size: 0x8, addend: 0x0, symName: _.str.342, symObjAddr: 0x2F7100, symBinAddr: 0x1002FB600, symSize: 0x0 }
  - { offsetInCU: 0xCDB4D, offset: 0xCDB4D, size: 0x8, addend: 0x0, symName: _.str.343, symObjAddr: 0x2F7180, symBinAddr: 0x1002FB680, symSize: 0x0 }
  - { offsetInCU: 0xCDB60, offset: 0xCDB60, size: 0x8, addend: 0x0, symName: _.str.344, symObjAddr: 0x2F71C0, symBinAddr: 0x1002FB6C0, symSize: 0x0 }
  - { offsetInCU: 0xCDB71, offset: 0xCDB71, size: 0x8, addend: 0x0, symName: _.str.345, symObjAddr: 0x2F7200, symBinAddr: 0x1002FB700, symSize: 0x0 }
  - { offsetInCU: 0xCDB82, offset: 0xCDB82, size: 0x8, addend: 0x0, symName: _.str.346, symObjAddr: 0x2F7220, symBinAddr: 0x1002FB720, symSize: 0x0 }
  - { offsetInCU: 0xCDB93, offset: 0xCDB93, size: 0x8, addend: 0x0, symName: _.str.347, symObjAddr: 0x2F7240, symBinAddr: 0x1002FB740, symSize: 0x0 }
  - { offsetInCU: 0xCDBA4, offset: 0xCDBA4, size: 0x8, addend: 0x0, symName: _.str.348, symObjAddr: 0x2F7260, symBinAddr: 0x1002FB760, symSize: 0x0 }
  - { offsetInCU: 0xCDBB5, offset: 0xCDBB5, size: 0x8, addend: 0x0, symName: _.str.349, symObjAddr: 0x2F72C0, symBinAddr: 0x1002FB7C0, symSize: 0x0 }
  - { offsetInCU: 0xCDBC8, offset: 0xCDBC8, size: 0x8, addend: 0x0, symName: _.str.350, symObjAddr: 0x2F7500, symBinAddr: 0x1002FBA00, symSize: 0x0 }
  - { offsetInCU: 0xCDBE7, offset: 0xCDBE7, size: 0x8, addend: 0x0, symName: _.str.351, symObjAddr: 0x2F7540, symBinAddr: 0x1002FBA40, symSize: 0x0 }
  - { offsetInCU: 0xCDC06, offset: 0xCDC06, size: 0x8, addend: 0x0, symName: _.str.352, symObjAddr: 0x2F7580, symBinAddr: 0x1002FBA80, symSize: 0x0 }
  - { offsetInCU: 0xCDC19, offset: 0xCDC19, size: 0x8, addend: 0x0, symName: _.str.353, symObjAddr: 0x2F75C0, symBinAddr: 0x1002FBAC0, symSize: 0x0 }
  - { offsetInCU: 0xCDC2C, offset: 0xCDC2C, size: 0x8, addend: 0x0, symName: _.str.354, symObjAddr: 0x2F75E0, symBinAddr: 0x1002FBAE0, symSize: 0x0 }
  - { offsetInCU: 0xCDC3F, offset: 0xCDC3F, size: 0x8, addend: 0x0, symName: _.str.355, symObjAddr: 0x2F7620, symBinAddr: 0x1002FBB20, symSize: 0x0 }
  - { offsetInCU: 0xCDC52, offset: 0xCDC52, size: 0x8, addend: 0x0, symName: _.str.356, symObjAddr: 0x2F7640, symBinAddr: 0x1002FBB40, symSize: 0x0 }
  - { offsetInCU: 0xCDC71, offset: 0xCDC71, size: 0x8, addend: 0x0, symName: _.str.357, symObjAddr: 0x2F76A0, symBinAddr: 0x1002FBBA0, symSize: 0x0 }
  - { offsetInCU: 0xCDC90, offset: 0xCDC90, size: 0x8, addend: 0x0, symName: _.str.358, symObjAddr: 0x2F7700, symBinAddr: 0x1002FBC00, symSize: 0x0 }
  - { offsetInCU: 0xCDCA3, offset: 0xCDCA3, size: 0x8, addend: 0x0, symName: _.str.359, symObjAddr: 0x2F7760, symBinAddr: 0x1002FBC60, symSize: 0x0 }
  - { offsetInCU: 0xCDCB6, offset: 0xCDCB6, size: 0x8, addend: 0x0, symName: _.str.360, symObjAddr: 0x2F77C0, symBinAddr: 0x1002FBCC0, symSize: 0x0 }
  - { offsetInCU: 0xCDCC7, offset: 0xCDCC7, size: 0x8, addend: 0x0, symName: _.str.361, symObjAddr: 0x2F7880, symBinAddr: 0x1002FBD80, symSize: 0x0 }
  - { offsetInCU: 0xCDCD8, offset: 0xCDCD8, size: 0x8, addend: 0x0, symName: _.str.362, symObjAddr: 0x2F78C0, symBinAddr: 0x1002FBDC0, symSize: 0x0 }
  - { offsetInCU: 0xCDCE9, offset: 0xCDCE9, size: 0x8, addend: 0x0, symName: _.str.363, symObjAddr: 0x2F78E0, symBinAddr: 0x1002FBDE0, symSize: 0x0 }
  - { offsetInCU: 0xCDCFA, offset: 0xCDCFA, size: 0x8, addend: 0x0, symName: _.str.364, symObjAddr: 0x2F7900, symBinAddr: 0x1002FBE00, symSize: 0x0 }
  - { offsetInCU: 0xCDD0B, offset: 0xCDD0B, size: 0x8, addend: 0x0, symName: _.str.365, symObjAddr: 0x2F7940, symBinAddr: 0x1002FBE40, symSize: 0x0 }
  - { offsetInCU: 0xCDD28, offset: 0xCDD28, size: 0x8, addend: 0x0, symName: _.str.366, symObjAddr: 0x2F7980, symBinAddr: 0x1002FBE80, symSize: 0x0 }
  - { offsetInCU: 0xCDD3B, offset: 0xCDD3B, size: 0x8, addend: 0x0, symName: _.str.367, symObjAddr: 0x2F79E0, symBinAddr: 0x1002FBEE0, symSize: 0x0 }
  - { offsetInCU: 0xCDD4E, offset: 0xCDD4E, size: 0x8, addend: 0x0, symName: _.str.368, symObjAddr: 0x2F7A20, symBinAddr: 0x1002FBF20, symSize: 0x0 }
  - { offsetInCU: 0xCDD61, offset: 0xCDD61, size: 0x8, addend: 0x0, symName: _.str.369, symObjAddr: 0x2F7A60, symBinAddr: 0x1002FBF60, symSize: 0x0 }
  - { offsetInCU: 0xCDD74, offset: 0xCDD74, size: 0x8, addend: 0x0, symName: _.str.370, symObjAddr: 0x2F7AA0, symBinAddr: 0x1002FBFA0, symSize: 0x0 }
  - { offsetInCU: 0xCDD87, offset: 0xCDD87, size: 0x8, addend: 0x0, symName: _.str.371, symObjAddr: 0x2F7AC0, symBinAddr: 0x1002FBFC0, symSize: 0x0 }
  - { offsetInCU: 0xCDD9A, offset: 0xCDD9A, size: 0x8, addend: 0x0, symName: _.str.372, symObjAddr: 0x2F7B00, symBinAddr: 0x1002FC000, symSize: 0x0 }
  - { offsetInCU: 0xCDDAD, offset: 0xCDDAD, size: 0x8, addend: 0x0, symName: _.str.373, symObjAddr: 0x2F7B20, symBinAddr: 0x1002FC020, symSize: 0x0 }
  - { offsetInCU: 0xCDDC0, offset: 0xCDDC0, size: 0x8, addend: 0x0, symName: _.str.374, symObjAddr: 0x2F7B40, symBinAddr: 0x1002FC040, symSize: 0x0 }
  - { offsetInCU: 0xCDDD3, offset: 0xCDDD3, size: 0x8, addend: 0x0, symName: _.str.375, symObjAddr: 0x2F7B60, symBinAddr: 0x1002FC060, symSize: 0x0 }
  - { offsetInCU: 0xCDDE6, offset: 0xCDDE6, size: 0x8, addend: 0x0, symName: _.str.376, symObjAddr: 0x2F7B80, symBinAddr: 0x1002FC080, symSize: 0x0 }
  - { offsetInCU: 0xCDDF9, offset: 0xCDDF9, size: 0x8, addend: 0x0, symName: _.str.377, symObjAddr: 0x2F7BA0, symBinAddr: 0x1002FC0A0, symSize: 0x0 }
  - { offsetInCU: 0xCDE18, offset: 0xCDE18, size: 0x8, addend: 0x0, symName: _.str.378, symObjAddr: 0x2F7BE0, symBinAddr: 0x1002FC0E0, symSize: 0x0 }
  - { offsetInCU: 0xCDE29, offset: 0xCDE29, size: 0x8, addend: 0x0, symName: _.str.379, symObjAddr: 0x2F7C00, symBinAddr: 0x1002FC100, symSize: 0x0 }
  - { offsetInCU: 0xCDE3A, offset: 0xCDE3A, size: 0x8, addend: 0x0, symName: _.str.380, symObjAddr: 0x2F7C20, symBinAddr: 0x1002FC120, symSize: 0x0 }
  - { offsetInCU: 0xCDE4B, offset: 0xCDE4B, size: 0x8, addend: 0x0, symName: _.str.381, symObjAddr: 0x2F7C40, symBinAddr: 0x1002FC140, symSize: 0x0 }
  - { offsetInCU: 0xCDE5E, offset: 0xCDE5E, size: 0x8, addend: 0x0, symName: _.str.382, symObjAddr: 0x2F7D40, symBinAddr: 0x1002FC240, symSize: 0x0 }
  - { offsetInCU: 0xCDE6F, offset: 0xCDE6F, size: 0x8, addend: 0x0, symName: _.str.383, symObjAddr: 0x2F7F00, symBinAddr: 0x1002FC400, symSize: 0x0 }
  - { offsetInCU: 0xCFAD5, offset: 0xCFAD5, size: 0x8, addend: 0x0, symName: __ZN5Acorn5StageC2Ev, symObjAddr: 0x5C94C, symBinAddr: 0x10005DC3C, symSize: 0x338 }
  - { offsetInCU: 0xD6BFF, offset: 0xD6BFF, size: 0x8, addend: 0x0, symName: __ZN5Acorn13Compiler_Unit9add_tokenEcRKNSt3__112basic_stringIcNS1_11char_traitsIcEENS1_9allocatorIcEEEE, symObjAddr: 0x67114, symBinAddr: 0x100068404, symSize: 0x414 }
  - { offsetInCU: 0xD6EEC, offset: 0xD6EEC, size: 0x8, addend: 0x0, symName: __ZN5Acorn13Compiler_Unit19add_binary_operatorEcRKNSt3__112basic_stringIcNS1_11char_traitsIcEENS1_9allocatorIcEEEEi, symObjAddr: 0x67528, symBinAddr: 0x100068818, symSize: 0x790 }
  - { offsetInCU: 0xD7228, offset: 0xD7228, size: 0x8, addend: 0x0, symName: __ZN5Acorn13Compiler_Unit13init_literalsEv, symObjAddr: 0x87EA4, symBinAddr: 0x100089194, symSize: 0xFF0 }
  - { offsetInCU: 0xD8AD2, offset: 0xD8AD2, size: 0x8, addend: 0x0, symName: __ZN5Acorn13Compiler_Unit14init_tokenizerEv, symObjAddr: 0x88E94, symBinAddr: 0x10008A184, symSize: 0xE68 }
  - { offsetInCU: 0xD90A5, offset: 0xD90A5, size: 0x8, addend: 0x0, symName: __ZN5Acorn13Compiler_Unit16add_string_tokenEcmm, symObjAddr: 0xC577C, symBinAddr: 0x1000C6A6C, symSize: 0x73C }
  - { offsetInCU: 0xD9626, offset: 0xD9626, size: 0x8, addend: 0x0, symName: __ZN5Acorn13Compiler_Unit23add_double_string_tokenEccmmmmbP3mapINSt3__112basic_stringIcNS2_11char_traitsIcEENS2_9allocatorIcEEEENS2_8functionIFvRNS_7ContextEEEEE, symObjAddr: 0xC5EE4, symBinAddr: 0x1000C71D4, symSize: 0x1238 }
  - { offsetInCU: 0xDAB49, offset: 0xDAB49, size: 0x8, addend: 0x0, symName: __ZN5Acorn13Compiler_Unit12init_stage_aEv, symObjAddr: 0x89CFC, symBinAddr: 0x10008AFEC, symSize: 0x8F8 }
  - { offsetInCU: 0xDB333, offset: 0xDB333, size: 0x8, addend: 0x0, symName: __ZN5Acorn13Compiler_Unit12init_stage_sEv, symObjAddr: 0x8A5F4, symBinAddr: 0x10008B8E4, symSize: 0x4A4 }
  - { offsetInCU: 0xDB84E, offset: 0xDB84E, size: 0x8, addend: 0x0, symName: __ZN5Acorn13Compiler_Unit25add_type_stamping_handlerEj, symObjAddr: 0x139FEC, symBinAddr: 0x10013B2DC, symSize: 0x2B4 }
  - { offsetInCU: 0xDBAEF, offset: 0xDBAEF, size: 0x8, addend: 0x0, symName: __ZN5Acorn13Compiler_Unit4initEv, symObjAddr: 0x5045C, symBinAddr: 0x10005174C, symSize: 0x1468 }
  - { offsetInCU: 0xDD9F8, offset: 0xDD9F8, size: 0x8, addend: 0x0, symName: __ZN5Acorn10Acorn_Dirt4initEv, symObjAddr: 0x5225C, symBinAddr: 0x10005354C, symSize: 0x733C }
  - { offsetInCU: 0xE7E21, offset: 0xE7E21, size: 0x8, addend: 0x0, symName: __Z7isalphai, symObjAddr: 0xD3B88, symBinAddr: 0x1000D4E78, symSize: 0x28 }
  - { offsetInCU: 0xE7E77, offset: 0xE7E77, size: 0x8, addend: 0x0, symName: __Z7isdigiti, symObjAddr: 0x111A90, symBinAddr: 0x100112D80, symSize: 0x28 }
  - { offsetInCU: 0xE8867, offset: 0xE8867, size: 0x8, addend: 0x0, symName: __Z6to_binj, symObjAddr: 0x0, symBinAddr: 0x1000012F0, symSize: 0x10C }
  - { offsetInCU: 0xE88C8, offset: 0xE88C8, size: 0x8, addend: 0x0, symName: __ZNSt3__112basic_stringIcNS_11char_traitsIcEENS_9allocatorIcEEEC1B8ue170006ILi0EEEPKc, symObjAddr: 0x10C, symBinAddr: 0x1000013FC, symSize: 0x34 }
  - { offsetInCU: 0xE8907, offset: 0xE8907, size: 0x8, addend: 0x0, symName: __ZNSt3__112basic_stringIcNS_11char_traitsIcEENS_9allocatorIcEEEpLB8ue170006Ec, symObjAddr: 0x140, symBinAddr: 0x100001430, symSize: 0x34 }
  - { offsetInCU: 0xE893B, offset: 0xE893B, size: 0x8, addend: 0x0, symName: __Z6to_hexj, symObjAddr: 0x174, symBinAddr: 0x100001464, symSize: 0x3CC }
  - { offsetInCU: 0xE89AC, offset: 0xE89AC, size: 0x8, addend: 0x0, symName: __ZN4sgen8namebaseC1ERKNSt3__112basic_stringIcNS1_11char_traitsIcEENS1_9allocatorIcEEEE, symObjAddr: 0x540, symBinAddr: 0x100001830, symSize: 0x34 }
  - { offsetInCU: 0xE89E4, offset: 0xE89E4, size: 0x8, addend: 0x0, symName: __ZN4sgen8namebaseD1Ev, symObjAddr: 0x574, symBinAddr: 0x100001864, symSize: 0x2C }
  - { offsetInCU: 0xE8A10, offset: 0xE8A10, size: 0x8, addend: 0x0, symName: __ZN5g_ptrIN3Log4SpanEEC1EPS1_, symObjAddr: 0x5A0, symBinAddr: 0x100001890, symSize: 0x34 }
  - { offsetInCU: 0xE8A48, offset: 0xE8A48, size: 0x8, addend: 0x0, symName: __ZN5g_ptrIN3Log4SpanEED1Ev, symObjAddr: 0x5D4, symBinAddr: 0x1000018C4, symSize: 0x2C }
  - { offsetInCU: 0xE8A71, offset: 0xE8A71, size: 0x8, addend: 0x0, symName: __Z13ptr_to_stringy, symObjAddr: 0x600, symBinAddr: 0x1000018F0, symSize: 0x968 }
  - { offsetInCU: 0xE8B25, offset: 0xE8B25, size: 0x8, addend: 0x0, symName: __ZNSt3__112basic_stringIcNS_11char_traitsIcEENS_9allocatorIcEEE5beginB8ue170006Ev, symObjAddr: 0x12B0, symBinAddr: 0x1000025A0, symSize: 0x258 }
  - { offsetInCU: 0xE8B4C, offset: 0xE8B4C, size: 0x8, addend: 0x0, symName: __ZNSt3__112basic_stringIcNS_11char_traitsIcEENS_9allocatorIcEEE3endB8ue170006Ev, symObjAddr: 0x1508, symBinAddr: 0x1000027F8, symSize: 0x25C }
  - { offsetInCU: 0xE8B73, offset: 0xE8B73, size: 0x8, addend: 0x0, symName: __ZNSt3__112basic_stringIcNS_11char_traitsIcEENS_9allocatorIcEEEC1B8ue170006ESt16initializer_listIcE, symObjAddr: 0x1824, symBinAddr: 0x100002B14, symSize: 0x248 }
  - { offsetInCU: 0xE8BB0, offset: 0xE8BB0, size: 0x8, addend: 0x0, symName: __Z13ptr_to_stringPv, symObjAddr: 0x1A6C, symBinAddr: 0x100002D5C, symSize: 0x2C }
  - { offsetInCU: 0xE8BDD, offset: 0xE8BDD, size: 0x8, addend: 0x0, symName: __ZN3mapIjNSt3__112basic_stringIcNS0_11char_traitsIcEENS0_9allocatorIcEEEEEC1Ev, symObjAddr: 0x1A98, symBinAddr: 0x100002D88, symSize: 0x2C }
  - { offsetInCU: 0xE8C07, offset: 0xE8C07, size: 0x8, addend: 0x0, symName: __ZN3mapIjNSt3__112basic_stringIcNS0_11char_traitsIcEENS0_9allocatorIcEEEEED1Ev, symObjAddr: 0x1AC4, symBinAddr: 0x100002DB4, symSize: 0x2C }
  - { offsetInCU: 0xE8C33, offset: 0xE8C33, size: 0x8, addend: 0x0, symName: __ZN4listIN5Acorn8TypePoolEEC1Ev, symObjAddr: 0x1AF0, symBinAddr: 0x100002DE0, symSize: 0x2C }
  - { offsetInCU: 0xE8C5D, offset: 0xE8C5D, size: 0x8, addend: 0x0, symName: __ZN4listIN5Acorn8TypePoolEED1Ev, symObjAddr: 0x1B1C, symBinAddr: 0x100002E0C, symSize: 0x2C }
  - { offsetInCU: 0xE8C87, offset: 0xE8C87, size: 0x8, addend: 0x0, symName: __ZNK4listIN5Acorn8TypePoolEE6lengthEv, symObjAddr: 0x1EDC, symBinAddr: 0x1000031CC, symSize: 0x64 }
  - { offsetInCU: 0xE8CAD, offset: 0xE8CAD, size: 0x8, addend: 0x0, symName: __ZN5Acorn8TypePoolC1Ev, symObjAddr: 0x1F40, symBinAddr: 0x100003230, symSize: 0x2C }
  - { offsetInCU: 0xE8CD7, offset: 0xE8CD7, size: 0x8, addend: 0x0, symName: __ZN4listIN5Acorn8TypePoolEElsES1_, symObjAddr: 0x1F6C, symBinAddr: 0x10000325C, symSize: 0x34 }
  - { offsetInCU: 0xE8D0D, offset: 0xE8D0D, size: 0x8, addend: 0x0, symName: __ZN5Acorn8TypePoolC1ERKS0_, symObjAddr: 0x1FA0, symBinAddr: 0x100003290, symSize: 0x34 }
  - { offsetInCU: 0xE8D43, offset: 0xE8D43, size: 0x8, addend: 0x0, symName: __ZN5Acorn8TypePoolD1Ev, symObjAddr: 0x1FD4, symBinAddr: 0x1000032C4, symSize: 0x2C }
  - { offsetInCU: 0xE8D70, offset: 0xE8D70, size: 0x8, addend: 0x0, symName: __ZN5Acorn3PtrC1Ejjj, symObjAddr: 0x224C, symBinAddr: 0x10000353C, symSize: 0x44 }
  - { offsetInCU: 0xE8DC4, offset: 0xE8DC4, size: 0x8, addend: 0x0, symName: __ZN5Acorn4Type10note_valueERKNSt3__112basic_stringIcNS1_11char_traitsIcEENS1_9allocatorIcEEEEjj, symObjAddr: 0x28C8, symBinAddr: 0x100003BB8, symSize: 0xF0 }
  - { offsetInCU: 0xE8E17, offset: 0xE8E17, size: 0x8, addend: 0x0, symName: __ZN5Acorn4Type7add_rowEi, symObjAddr: 0x29B8, symBinAddr: 0x100003CA8, symSize: 0x30 }
  - { offsetInCU: 0xE8E4C, offset: 0xE8E4C, size: 0x8, addend: 0x0, symName: __ZN4listIN5Acorn8TypePoolEEixEm, symObjAddr: 0x2EB4, symBinAddr: 0x1000041A4, symSize: 0x74 }
  - { offsetInCU: 0xE8E81, offset: 0xE8E81, size: 0x8, addend: 0x0, symName: __ZNK4listIN5Acorn3ColEE6lengthEv, symObjAddr: 0x2F28, symBinAddr: 0x100004218, symSize: 0x64 }
  - { offsetInCU: 0xE8EA7, offset: 0xE8EA7, size: 0x8, addend: 0x0, symName: __ZN3mapIjNSt3__112basic_stringIcNS0_11char_traitsIcEENS0_9allocatorIcEEEEE3putERKjS6_, symObjAddr: 0x2F8C, symBinAddr: 0x10000427C, symSize: 0x7BC }
  - { offsetInCU: 0xE8FA6, offset: 0xE8FA6, size: 0x8, addend: 0x0, symName: __ZN4listINSt3__18functionIFvRN5Acorn3PtrEEEEElsES6_, symObjAddr: 0x610C, symBinAddr: 0x1000073FC, symSize: 0x34 }
  - { offsetInCU: 0xE8FDC, offset: 0xE8FDC, size: 0x8, addend: 0x0, symName: '__ZNSt3__18functionIFvRN5Acorn3PtrEEEC1IZNS1_14init_node_typeEvE3$_0vEET_', symObjAddr: 0x6140, symBinAddr: 0x100007430, symSize: 0x28C }
  - { offsetInCU: 0xE9026, offset: 0xE9026, size: 0x8, addend: 0x0, symName: __ZNSt3__18functionIFvRN5Acorn3PtrEEED1Ev, symObjAddr: 0x63CC, symBinAddr: 0x1000076BC, symSize: 0x2C }
  - { offsetInCU: 0xE9052, offset: 0xE9052, size: 0x8, addend: 0x0, symName: '__ZNSt3__18functionIFvRN5Acorn3PtrEEEC1IZNS1_15init_value_typeEvE3$_1vEET_', symObjAddr: 0x63F8, symBinAddr: 0x1000076E8, symSize: 0x28C }
  - { offsetInCU: 0xE909C, offset: 0xE909C, size: 0x8, addend: 0x0, symName: __ZN5Acorn4TypeixEm, symObjAddr: 0x7294, symBinAddr: 0x100008584, symSize: 0x2C }
  - { offsetInCU: 0xE90D1, offset: 0xE90D1, size: 0x8, addend: 0x0, symName: __ZNKSt3__112basic_stringIcNS_11char_traitsIcEENS_9allocatorIcEEE5emptyB8ue170006Ev, symObjAddr: 0x72C0, symBinAddr: 0x1000085B0, symSize: 0x30 }
  - { offsetInCU: 0xE90F7, offset: 0xE90F7, size: 0x8, addend: 0x0, symName: __ZN5Acorn6string3colEv, symObjAddr: 0x73D0, symBinAddr: 0x1000086C0, symSize: 0x110 }
  - { offsetInCU: 0xE911D, offset: 0xE911D, size: 0x8, addend: 0x0, symName: __ZN5Acorn6string6lengthEv, symObjAddr: 0x74E0, symBinAddr: 0x1000087D0, symSize: 0x28 }
  - { offsetInCU: 0xE9143, offset: 0xE9143, size: 0x8, addend: 0x0, symName: __ZN5Acorn8TypePool6createEv, symObjAddr: 0x7864, symBinAddr: 0x100008B54, symSize: 0x480 }
  - { offsetInCU: 0xE9209, offset: 0xE9209, size: 0x8, addend: 0x0, symName: __ZN5Acorn4NodeC1ENS_3PtrE, symObjAddr: 0x7CE4, symBinAddr: 0x100008FD4, symSize: 0x2B8 }
  - { offsetInCU: 0xE9247, offset: 0xE9247, size: 0x8, addend: 0x0, symName: __ZN5Acorn4Node4typeEj, symObjAddr: 0x8308, symBinAddr: 0x1000095F8, symSize: 0x318 }
  - { offsetInCU: 0xE9281, offset: 0xE9281, size: 0x8, addend: 0x0, symName: __ZN5Acorn5ValueC1ENS_3PtrE, symObjAddr: 0x89C4, symBinAddr: 0x100009CB4, symSize: 0x2B8 }
  - { offsetInCU: 0xE92BF, offset: 0xE92BF, size: 0x8, addend: 0x0, symName: __ZN5Acorn5Value4sizeEj, symObjAddr: 0x8F60, symBinAddr: 0x10000A250, symSize: 0x31C }
  - { offsetInCU: 0xE92F9, offset: 0xE92F9, size: 0x8, addend: 0x0, symName: __ZN5Acorn5Value4typeEj, symObjAddr: 0x927C, symBinAddr: 0x10000A56C, symSize: 0x31C }
  - { offsetInCU: 0xE9333, offset: 0xE9333, size: 0x8, addend: 0x0, symName: __ZN5Acorn5Value7addressEj, symObjAddr: 0x9598, symBinAddr: 0x10000A888, symSize: 0x31C }
  - { offsetInCU: 0xE936D, offset: 0xE936D, size: 0x8, addend: 0x0, symName: __ZNSt3__112basic_stringIcNS_11char_traitsIcEENS_9allocatorIcEEEC1B8ue170006Emc, symObjAddr: 0xBB44, symBinAddr: 0x10000CE34, symSize: 0x3C }
  - { offsetInCU: 0xE93B5, offset: 0xE93B5, size: 0x8, addend: 0x0, symName: __ZN5Acorn6stringC1ENS_3PtrE, symObjAddr: 0xBB80, symBinAddr: 0x10000CE70, symSize: 0x2B8 }
  - { offsetInCU: 0xE93F3, offset: 0xE93F3, size: 0x8, addend: 0x0, symName: __ZN5Acorn6string6to_stdEv, symObjAddr: 0xBE38, symBinAddr: 0x10000D128, symSize: 0x9C }
  - { offsetInCU: 0xE9419, offset: 0xE9419, size: 0x8, addend: 0x0, symName: __ZNSt3__112basic_stringIcNS_11char_traitsIcEENS_9allocatorIcEEE5eraseB8ue170006ENS_11__wrap_iterIPKcEES9_, symObjAddr: 0xBED4, symBinAddr: 0x10000D1C4, symSize: 0x3D8 }
  - { offsetInCU: 0xE9498, offset: 0xE9498, size: 0x8, addend: 0x0, symName: __ZNSt3__111__wrap_iterIPKcEC1B8ue170006IPcEERKNS0_IT_EEPNS_9enable_ifIXsr14is_convertibleIS6_S2_EE5valueEvE4typeE, symObjAddr: 0xC930, symBinAddr: 0x10000DC20, symSize: 0x3C }
  - { offsetInCU: 0xE94E3, offset: 0xE94E3, size: 0x8, addend: 0x0, symName: __ZN5Acorn3Col6lengthEv, symObjAddr: 0xCA80, symBinAddr: 0x10000DD70, symSize: 0xFC }
  - { offsetInCU: 0xE9509, offset: 0xE9509, size: 0x8, addend: 0x0, symName: __ZN5Acorn3ColixEj, symObjAddr: 0xCB7C, symBinAddr: 0x10000DE6C, symSize: 0x2C }
  - { offsetInCU: 0xE953D, offset: 0xE953D, size: 0x8, addend: 0x0, symName: __ZNSt3__112basic_stringIcNS_11char_traitsIcEENS_9allocatorIcEEEpLB8ue170006ERKS5_, symObjAddr: 0xCBA8, symBinAddr: 0x10000DE98, symSize: 0x2C }
  - { offsetInCU: 0xE9572, offset: 0xE9572, size: 0x8, addend: 0x0, symName: __ZNSt3__112basic_stringIcNS_11char_traitsIcEENS_9allocatorIcEEEpLB8ue170006EPKc, symObjAddr: 0xCBD4, symBinAddr: 0x10000DEC4, symSize: 0x2C }
  - { offsetInCU: 0xE95A7, offset: 0xE95A7, size: 0x8, addend: 0x0, symName: __ZN3mapINSt3__112basic_stringIcNS0_11char_traitsIcEENS0_9allocatorIcEEEEjE8entrySetEv, symObjAddr: 0xCC00, symBinAddr: 0x10000DEF0, symSize: 0x3CC }
  - { offsetInCU: 0xE964D, offset: 0xE964D, size: 0x8, addend: 0x0, symName: __ZN4listI5entryINSt3__112basic_stringIcNS1_11char_traitsIcEENS1_9allocatorIcEEEEjEE5beginEv, symObjAddr: 0xCFCC, symBinAddr: 0x10000E2BC, symSize: 0x60 }
  - { offsetInCU: 0xE9673, offset: 0xE9673, size: 0x8, addend: 0x0, symName: __ZN4listI5entryINSt3__112basic_stringIcNS1_11char_traitsIcEENS1_9allocatorIcEEEEjEE3endEv, symObjAddr: 0xD02C, symBinAddr: 0x10000E31C, symSize: 0xA8 }
  - { offsetInCU: 0xE9699, offset: 0xE9699, size: 0x8, addend: 0x0, symName: __ZN5entryINSt3__112basic_stringIcNS0_11char_traitsIcEENS0_9allocatorIcEEEEjEC1ERKS7_, symObjAddr: 0xD0D4, symBinAddr: 0x10000E3C4, symSize: 0x34 }
  - { offsetInCU: 0xE96D1, offset: 0xE96D1, size: 0x8, addend: 0x0, symName: __ZN5entryINSt3__112basic_stringIcNS0_11char_traitsIcEENS0_9allocatorIcEEEEjED1Ev, symObjAddr: 0xD108, symBinAddr: 0x10000E3F8, symSize: 0x2C }
  - { offsetInCU: 0xE96FD, offset: 0xE96FD, size: 0x8, addend: 0x0, symName: __ZN4listI5entryINSt3__112basic_stringIcNS1_11char_traitsIcEENS1_9allocatorIcEEEEjEED1Ev, symObjAddr: 0xD134, symBinAddr: 0x10000E424, symSize: 0x2C }
  - { offsetInCU: 0xE9727, offset: 0xE9727, size: 0x8, addend: 0x0, symName: __ZN3mapIjNSt3__112basic_stringIcNS0_11char_traitsIcEENS0_9allocatorIcEEEEEixERKj, symObjAddr: 0xD448, symBinAddr: 0x10000E738, symSize: 0x2EC }
  - { offsetInCU: 0xE975E, offset: 0xE975E, size: 0x8, addend: 0x0, symName: __ZNKSt3__112basic_stringIcNS_11char_traitsIcEENS_9allocatorIcEEE6lengthB8ue170006Ev, symObjAddr: 0xD80C, symBinAddr: 0x10000EAFC, symSize: 0x24 }
  - { offsetInCU: 0xE9784, offset: 0xE9784, size: 0x8, addend: 0x0, symName: __ZN4listIjEC1Ev, symObjAddr: 0x124E4, symBinAddr: 0x1000137D4, symSize: 0x2C }
  - { offsetInCU: 0xE97AE, offset: 0xE97AE, size: 0x8, addend: 0x0, symName: __ZNK4listIS_INSt3__112basic_stringIcNS0_11char_traitsIcEENS0_9allocatorIcEEEEEE6lengthEv, symObjAddr: 0x12510, symBinAddr: 0x100013800, symSize: 0x64 }
  - { offsetInCU: 0xE97D4, offset: 0xE97D4, size: 0x8, addend: 0x0, symName: __ZN4listIS_INSt3__112basic_stringIcNS0_11char_traitsIcEENS0_9allocatorIcEEEEEEixEm, symObjAddr: 0x12574, symBinAddr: 0x100013864, symSize: 0x74 }
  - { offsetInCU: 0xE9809, offset: 0xE9809, size: 0x8, addend: 0x0, symName: __ZNK4listINSt3__112basic_stringIcNS0_11char_traitsIcEENS0_9allocatorIcEEEEE6lengthEv, symObjAddr: 0x125E8, symBinAddr: 0x1000138D8, symSize: 0x64 }
  - { offsetInCU: 0xE982F, offset: 0xE982F, size: 0x8, addend: 0x0, symName: __ZN4listINSt3__112basic_stringIcNS0_11char_traitsIcEENS0_9allocatorIcEEEEEixEm, symObjAddr: 0x1264C, symBinAddr: 0x10001393C, symSize: 0x74 }
  - { offsetInCU: 0xE9864, offset: 0xE9864, size: 0x8, addend: 0x0, symName: __ZNSt3__112basic_stringIcNS_11char_traitsIcEENS_9allocatorIcEEEaSB8ue170006EOS5_, symObjAddr: 0x126C0, symBinAddr: 0x1000139B0, symSize: 0x34 }
  - { offsetInCU: 0xE9899, offset: 0xE9899, size: 0x8, addend: 0x0, symName: __ZN4listIjElsEj, symObjAddr: 0x126F4, symBinAddr: 0x1000139E4, symSize: 0x220 }
  - { offsetInCU: 0xE98D3, offset: 0xE98D3, size: 0x8, addend: 0x0, symName: __ZN4listIjEixEm, symObjAddr: 0x12914, symBinAddr: 0x100013C04, symSize: 0x6C }
  - { offsetInCU: 0xE9908, offset: 0xE9908, size: 0x8, addend: 0x0, symName: __ZN4listIjED1Ev, symObjAddr: 0x12EAC, symBinAddr: 0x10001419C, symSize: 0x2C }
  - { offsetInCU: 0xE9932, offset: 0xE9932, size: 0x8, addend: 0x0, symName: __ZN4listIS_INSt3__112basic_stringIcNS0_11char_traitsIcEENS0_9allocatorIcEEEEEEC1Ev, symObjAddr: 0x13FB8, symBinAddr: 0x1000152A8, symSize: 0x2C }
  - { offsetInCU: 0xE995C, offset: 0xE995C, size: 0x8, addend: 0x0, symName: __ZN5Acorn4Type12column_countEv, symObjAddr: 0x13FE4, symBinAddr: 0x1000152D4, symSize: 0x24 }
  - { offsetInCU: 0xE9982, offset: 0xE9982, size: 0x8, addend: 0x0, symName: __ZN4listIN5Acorn3ColEEixEm, symObjAddr: 0x14008, symBinAddr: 0x1000152F8, symSize: 0x74 }
  - { offsetInCU: 0xE99B7, offset: 0xE99B7, size: 0x8, addend: 0x0, symName: __ZN4listINSt3__112basic_stringIcNS0_11char_traitsIcEENS0_9allocatorIcEEEEEC1Ev, symObjAddr: 0x1407C, symBinAddr: 0x10001536C, symSize: 0x2C }
  - { offsetInCU: 0xE99E1, offset: 0xE99E1, size: 0x8, addend: 0x0, symName: __ZN4listINSt3__112basic_stringIcNS0_11char_traitsIcEENS0_9allocatorIcEEEEElsES6_, symObjAddr: 0x140A8, symBinAddr: 0x100015398, symSize: 0x34 }
  - { offsetInCU: 0xE9A17, offset: 0xE9A17, size: 0x8, addend: 0x0, symName: __ZN5Acorn3Col14get_cell_labelEj, symObjAddr: 0x140DC, symBinAddr: 0x1000153CC, symSize: 0x450 }
  - { offsetInCU: 0xE9A9C, offset: 0xE9A9C, size: 0x8, addend: 0x0, symName: __ZNK4listIjE5emptyEv, symObjAddr: 0x1452C, symBinAddr: 0x10001581C, symSize: 0x30 }
  - { offsetInCU: 0xE9AC2, offset: 0xE9AC2, size: 0x8, addend: 0x0, symName: __ZN4listIS_INSt3__112basic_stringIcNS0_11char_traitsIcEENS0_9allocatorIcEEEEEElsES7_, symObjAddr: 0x146E4, symBinAddr: 0x1000159D4, symSize: 0x34 }
  - { offsetInCU: 0xE9AF8, offset: 0xE9AF8, size: 0x8, addend: 0x0, symName: __ZN4listINSt3__112basic_stringIcNS0_11char_traitsIcEENS0_9allocatorIcEEEEEC1ERKS7_, symObjAddr: 0x14718, symBinAddr: 0x100015A08, symSize: 0x34 }
  - { offsetInCU: 0xE9B30, offset: 0xE9B30, size: 0x8, addend: 0x0, symName: __ZN4listINSt3__112basic_stringIcNS0_11char_traitsIcEENS0_9allocatorIcEEEEED1Ev, symObjAddr: 0x1474C, symBinAddr: 0x100015A3C, symSize: 0x2C }
  - { offsetInCU: 0xE9B5A, offset: 0xE9B5A, size: 0x8, addend: 0x0, symName: __ZN4listIS_INSt3__112basic_stringIcNS0_11char_traitsIcEENS0_9allocatorIcEEEEEED1Ev, symObjAddr: 0x14778, symBinAddr: 0x100015A68, symSize: 0x2C }
  - { offsetInCU: 0xE9B84, offset: 0xE9B84, size: 0x8, addend: 0x0, symName: __ZL4cyanRKNSt3__112basic_stringIcNS_11char_traitsIcEENS_9allocatorIcEEEE, symObjAddr: 0x176A4, symBinAddr: 0x100018994, symSize: 0x2E8 }
  - { offsetInCU: 0xE9BB2, offset: 0xE9BB2, size: 0x8, addend: 0x0, symName: __ZL5greenRKNSt3__112basic_stringIcNS_11char_traitsIcEENS_9allocatorIcEEEE, symObjAddr: 0x1798C, symBinAddr: 0x100018C7C, symSize: 0x2E8 }
  - { offsetInCU: 0xE9BE0, offset: 0xE9BE0, size: 0x8, addend: 0x0, symName: __ZN5Acorn5Value4typeEv, symObjAddr: 0x17C74, symBinAddr: 0x100018F64, symSize: 0x128 }
  - { offsetInCU: 0xE9C06, offset: 0xE9C06, size: 0x8, addend: 0x0, symName: __ZN5Acorn5Value3regEv, symObjAddr: 0x17D9C, symBinAddr: 0x10001908C, symSize: 0x128 }
  - { offsetInCU: 0xE9C2C, offset: 0xE9C2C, size: 0x8, addend: 0x0, symName: __ZN5Acorn5Value8data_ptrEv, symObjAddr: 0x17EC4, symBinAddr: 0x1000191B4, symSize: 0x128 }
  - { offsetInCU: 0xE9C52, offset: 0xE9C52, size: 0x8, addend: 0x0, symName: __ZL4grayRKNSt3__112basic_stringIcNS_11char_traitsIcEENS_9allocatorIcEEEE, symObjAddr: 0x17FEC, symBinAddr: 0x1000192DC, symSize: 0x2E8 }
  - { offsetInCU: 0xE9C80, offset: 0xE9C80, size: 0x8, addend: 0x0, symName: __ZN5Acorn5Value8sub_typeEv, symObjAddr: 0x182D4, symBinAddr: 0x1000195C4, symSize: 0x128 }
  - { offsetInCU: 0xE9CA6, offset: 0xE9CA6, size: 0x8, addend: 0x0, symName: __ZN5Acorn5Value10type_scopeEv, symObjAddr: 0x183FC, symBinAddr: 0x1000196EC, symSize: 0x3E4 }
  - { offsetInCU: 0xE9CCF, offset: 0xE9CCF, size: 0x8, addend: 0x0, symName: __ZL4blueRKNSt3__112basic_stringIcNS_11char_traitsIcEENS_9allocatorIcEEEE, symObjAddr: 0x187E0, symBinAddr: 0x100019AD0, symSize: 0x2E8 }
  - { offsetInCU: 0xE9CFD, offset: 0xE9CFD, size: 0x8, addend: 0x0, symName: __ZN5Acorn5Value4sizeEv, symObjAddr: 0x18AC8, symBinAddr: 0x100019DB8, symSize: 0x128 }
  - { offsetInCU: 0xE9D23, offset: 0xE9D23, size: 0x8, addend: 0x0, symName: __ZN5Acorn5Value7addressEv, symObjAddr: 0x18BF0, symBinAddr: 0x100019EE0, symSize: 0x128 }
  - { offsetInCU: 0xE9D49, offset: 0xE9D49, size: 0x8, addend: 0x0, symName: __ZN5Acorn5Value5storeEv, symObjAddr: 0x18D18, symBinAddr: 0x10001A008, symSize: 0x128 }
  - { offsetInCU: 0xE9D6F, offset: 0xE9D6F, size: 0x8, addend: 0x0, symName: __ZN5Acorn5Value10sub_valuesEv, symObjAddr: 0x18E40, symBinAddr: 0x10001A130, symSize: 0x2EC }
  - { offsetInCU: 0xE9D96, offset: 0xE9D96, size: 0x8, addend: 0x0, symName: __ZN5Acorn10value_list5emptyEv, symObjAddr: 0x1912C, symBinAddr: 0x10001A41C, symSize: 0x2C }
  - { offsetInCU: 0xE9DBC, offset: 0xE9DBC, size: 0x8, addend: 0x0, symName: __ZN5Acorn10value_list6lengthEv, symObjAddr: 0x19158, symBinAddr: 0x10001A448, symSize: 0x28 }
  - { offsetInCU: 0xE9DE2, offset: 0xE9DE2, size: 0x8, addend: 0x0, symName: __ZN5Acorn5Value5qualsEv, symObjAddr: 0x19180, symBinAddr: 0x10001A470, symSize: 0x2EC }
  - { offsetInCU: 0xE9E09, offset: 0xE9E09, size: 0x8, addend: 0x0, symName: __ZN5Acorn9node_list5emptyEv, symObjAddr: 0x1946C, symBinAddr: 0x10001A75C, symSize: 0x2C }
  - { offsetInCU: 0xE9E2F, offset: 0xE9E2F, size: 0x8, addend: 0x0, symName: __ZN5Acorn9node_list6lengthEv, symObjAddr: 0x19498, symBinAddr: 0x10001A788, symSize: 0x28 }
  - { offsetInCU: 0xE9E55, offset: 0xE9E55, size: 0x8, addend: 0x0, symName: __ZN5Acorn9node_listixEj, symObjAddr: 0x194C0, symBinAddr: 0x10001A7B0, symSize: 0x2C4 }
  - { offsetInCU: 0xE9E8E, offset: 0xE9E8E, size: 0x8, addend: 0x0, symName: __ZN5Acorn4Node4typeEv, symObjAddr: 0x19784, symBinAddr: 0x10001AA74, symSize: 0x124 }
  - { offsetInCU: 0xE9EB4, offset: 0xE9EB4, size: 0x8, addend: 0x0, symName: __ZN5Acorn4Node8sub_typeEv, symObjAddr: 0x1BB50, symBinAddr: 0x10001CE40, symSize: 0x124 }
  - { offsetInCU: 0xE9EDA, offset: 0xE9EDA, size: 0x8, addend: 0x0, symName: __ZN5Acorn4Node4nameEv, symObjAddr: 0x1BC74, symBinAddr: 0x10001CF64, symSize: 0x2EC }
  - { offsetInCU: 0xE9F01, offset: 0xE9F01, size: 0x8, addend: 0x0, symName: __ZN5Acorn4Node5valueEv, symObjAddr: 0x1BF60, symBinAddr: 0x10001D250, symSize: 0x350 }
  - { offsetInCU: 0xE9F28, offset: 0xE9F28, size: 0x8, addend: 0x0, symName: __ZN5Acorn4Node8childrenEv, symObjAddr: 0x1C2B0, symBinAddr: 0x10001D5A0, symSize: 0x2EC }
  - { offsetInCU: 0xE9F4F, offset: 0xE9F4F, size: 0x8, addend: 0x0, symName: __ZN5Acorn4Node6scopesEv, symObjAddr: 0x1C59C, symBinAddr: 0x10001D88C, symSize: 0x2EC }
  - { offsetInCU: 0xE9F76, offset: 0xE9F76, size: 0x8, addend: 0x0, symName: __ZN5Acorn4Node8in_scopeEv, symObjAddr: 0x1C888, symBinAddr: 0x10001DB78, symSize: 0x2EC }
  - { offsetInCU: 0xE9F9D, offset: 0xE9F9D, size: 0x8, addend: 0x0, symName: __ZN5Acorn4Node5ownerEv, symObjAddr: 0x1EC7C, symBinAddr: 0x10001FF6C, symSize: 0x2EC }
  - { offsetInCU: 0xE9FC4, offset: 0xE9FC4, size: 0x8, addend: 0x0, symName: __ZNSt3__112basic_stringIcNS_11char_traitsIcEENS_9allocatorIcEEEaSB8ue170006EPKc, symObjAddr: 0x205E4, symBinAddr: 0x1000218D4, symSize: 0x2C }
  - { offsetInCU: 0xE9FF9, offset: 0xE9FF9, size: 0x8, addend: 0x0, symName: __ZN5Acorn11value_tableC1Ev, symObjAddr: 0x20610, symBinAddr: 0x100021900, symSize: 0x2C }
  - { offsetInCU: 0xEA023, offset: 0xEA023, size: 0x8, addend: 0x0, symName: __ZN5Acorn4Node4nameENSt3__112basic_stringIcNS1_11char_traitsIcEENS1_9allocatorIcEEEE, symObjAddr: 0x2063C, symBinAddr: 0x10002192C, symSize: 0x26C }
  - { offsetInCU: 0xEA05B, offset: 0xEA05B, size: 0x8, addend: 0x0, symName: __ZN5Acorn4Node15value_table_colEv, symObjAddr: 0x208A8, symBinAddr: 0x100021B98, symSize: 0x124 }
  - { offsetInCU: 0xEA090, offset: 0xEA090, size: 0x8, addend: 0x0, symName: __ZN5Acorn4Node11value_tableEv, symObjAddr: 0x209CC, symBinAddr: 0x100021CBC, symSize: 0x2EC }
  - { offsetInCU: 0xEA0B7, offset: 0xEA0B7, size: 0x8, addend: 0x0, symName: __ZN5Acorn11value_table3putERKNSt3__112basic_stringIcNS1_11char_traitsIcEENS1_9allocatorIcEEEENS_5ValueE, symObjAddr: 0x20CB8, symBinAddr: 0x100021FA8, symSize: 0x374 }
  - { offsetInCU: 0xEA116, offset: 0xEA116, size: 0x8, addend: 0x0, symName: __ZN5Acorn4Unit20standard_travel_passENS_4NodeEPNS_7ContextE, symObjAddr: 0x2102C, symBinAddr: 0x10002231C, symSize: 0xC7C }
  - { offsetInCU: 0xEA19D, offset: 0xEA19D, size: 0x8, addend: 0x0, symName: __ZL7newlineRKNSt3__112basic_stringIcNS_11char_traitsIcEENS_9allocatorIcEEEE, symObjAddr: 0x21CA8, symBinAddr: 0x100022F98, symSize: 0x30 }
  - { offsetInCU: 0xEA1C6, offset: 0xEA1C6, size: 0x8, addend: 0x0, symName: __ZN5Acorn7ContextC1ENS_9node_listERi, symObjAddr: 0x21CD8, symBinAddr: 0x100022FC8, symSize: 0x2D0 }
  - { offsetInCU: 0xEA214, offset: 0xEA214, size: 0x8, addend: 0x0, symName: __ZN5Acorn9node_list3getEj, symObjAddr: 0x21FA8, symBinAddr: 0x100023298, symSize: 0x2F8 }
  - { offsetInCU: 0xEA24D, offset: 0xEA24D, size: 0x8, addend: 0x0, symName: __ZN5Acorn4Unit16standard_processERNS_7ContextE, symObjAddr: 0x222A0, symBinAddr: 0x100023590, symSize: 0xB4 }
  - { offsetInCU: 0xEA282, offset: 0xEA282, size: 0x8, addend: 0x0, symName: __ZL7endlinev, symObjAddr: 0x22354, symBinAddr: 0x100023644, symSize: 0x20 }
  - { offsetInCU: 0xEA2A0, offset: 0xEA2A0, size: 0x8, addend: 0x0, symName: __ZN5Acorn7ContextD1Ev, symObjAddr: 0x22374, symBinAddr: 0x100023664, symSize: 0x2C }
  - { offsetInCU: 0xEA2CD, offset: 0xEA2CD, size: 0x8, addend: 0x0, symName: __ZN4listIN5Acorn12jump_requestEEC1Ev, symObjAddr: 0x223A0, symBinAddr: 0x100023690, symSize: 0x2C }
  - { offsetInCU: 0xEA2F7, offset: 0xEA2F7, size: 0x8, addend: 0x0, symName: __ZN4listIN5Acorn12jump_requestEED1Ev, symObjAddr: 0x223CC, symBinAddr: 0x1000236BC, symSize: 0x2C }
  - { offsetInCU: 0xEA321, offset: 0xEA321, size: 0x8, addend: 0x0, symName: __ZN4listIiEC1Ev, symObjAddr: 0x223F8, symBinAddr: 0x1000236E8, symSize: 0x2C }
  - { offsetInCU: 0xEA34B, offset: 0xEA34B, size: 0x8, addend: 0x0, symName: __ZN4listIiED1Ev, symObjAddr: 0x22424, symBinAddr: 0x100023714, symSize: 0x2C }
  - { offsetInCU: 0xEA375, offset: 0xEA375, size: 0x8, addend: 0x0, symName: __ZN4listIjEC1ESt16initializer_listIjE, symObjAddr: 0x22450, symBinAddr: 0x100023740, symSize: 0x248 }
  - { offsetInCU: 0xEA3B2, offset: 0xEA3B2, size: 0x8, addend: 0x0, symName: __ZN5Acorn8AcornColC1Ej, symObjAddr: 0x22698, symBinAddr: 0x100023988, symSize: 0x34 }
  - { offsetInCU: 0xEA3EA, offset: 0xEA3EA, size: 0x8, addend: 0x0, symName: _main, symObjAddr: 0x226CC, symBinAddr: 0x1000239BC, symSize: 0xA08 }
  - { offsetInCU: 0xEA436, offset: 0xEA436, size: 0x8, addend: 0x0, symName: __Z5printIJRA11_KcEEvDpOT_, symObjAddr: 0x230D4, symBinAddr: 0x1000243C4, symSize: 0x38 }
  - { offsetInCU: 0xEA469, offset: 0xEA469, size: 0x8, addend: 0x0, symName: __Z4makeIN3Log4SpanEJEE5g_ptrIT_EDpOT0_, symObjAddr: 0x2310C, symBinAddr: 0x1000243FC, symSize: 0x6C }
  - { offsetInCU: 0xEA4A5, offset: 0xEA4A5, size: 0x8, addend: 0x0, symName: __ZN5g_ptrIN3Log4SpanEEaSEOS2_, symObjAddr: 0x23178, symBinAddr: 0x100024468, symSize: 0x29C }
  - { offsetInCU: 0xEA4D9, offset: 0xEA4D9, size: 0x8, addend: 0x0, symName: __ZN5Acorn10Acorn_DirtC1Ev, symObjAddr: 0x23414, symBinAddr: 0x100024704, symSize: 0xB78 }
  - { offsetInCU: 0xEA504, offset: 0xEA504, size: 0x8, addend: 0x0, symName: __ZN5Acorn10Acorn_Dirt3runENS_4NodeE, symObjAddr: 0x23F8C, symBinAddr: 0x10002527C, symSize: 0x950 }
  - { offsetInCU: 0xEA57C, offset: 0xEA57C, size: 0x8, addend: 0x0, symName: __ZN5Acorn10Acorn_Dirt7processENSt3__112basic_stringIcNS1_11char_traitsIcEENS1_9allocatorIcEEEE, symObjAddr: 0x248DC, symBinAddr: 0x100025BCC, symSize: 0x340 }
  - { offsetInCU: 0xEA5B3, offset: 0xEA5B3, size: 0x8, addend: 0x0, symName: __Z8readFileRKNSt3__112basic_stringIcNS_11char_traitsIcEENS_9allocatorIcEEEE, symObjAddr: 0x24C1C, symBinAddr: 0x100025F0C, symSize: 0x580 }
  - { offsetInCU: 0xEA608, offset: 0xEA608, size: 0x8, addend: 0x0, symName: __Z5printIJRA14_KcEEvDpOT_, symObjAddr: 0x2BA40, symBinAddr: 0x10002CD30, symSize: 0x38 }
  - { offsetInCU: 0xEA63C, offset: 0xEA63C, size: 0x8, addend: 0x0, symName: __ZN5Acorn10Acorn_DirtD1Ev, symObjAddr: 0x2BA78, symBinAddr: 0x10002CD68, symSize: 0x58 }
  - { offsetInCU: 0xEA668, offset: 0xEA668, size: 0x8, addend: 0x0, symName: __ZN4sgen8namebaseC2ERKNSt3__112basic_stringIcNS1_11char_traitsIcEENS1_9allocatorIcEEEE, symObjAddr: 0x2BAD0, symBinAddr: 0x10002CDC0, symSize: 0x43C }
  - { offsetInCU: 0xEA700, offset: 0xEA700, size: 0x8, addend: 0x0, symName: __Z9split_strRKNSt3__112basic_stringIcNS_11char_traitsIcEENS_9allocatorIcEEEEc, symObjAddr: 0x2BF0C, symBinAddr: 0x10002D1FC, symSize: 0x4E0 }
  - { offsetInCU: 0xEA77D, offset: 0xEA77D, size: 0x8, addend: 0x0, symName: __ZN4listINSt3__112basic_stringIcNS0_11char_traitsIcEENS0_9allocatorIcEEEEE5beginEv, symObjAddr: 0x2C3EC, symBinAddr: 0x10002D6DC, symSize: 0x60 }
  - { offsetInCU: 0xEA7A3, offset: 0xEA7A3, size: 0x8, addend: 0x0, symName: __ZN4listINSt3__112basic_stringIcNS0_11char_traitsIcEENS0_9allocatorIcEEEEE3endEv, symObjAddr: 0x2C44C, symBinAddr: 0x10002D73C, symSize: 0xB0 }
  - { offsetInCU: 0xEA7C9, offset: 0xEA7C9, size: 0x8, addend: 0x0, symName: __ZNKSt3__112basic_stringIcNS_11char_traitsIcEENS_9allocatorIcEEE6substrB8ue170006Emm, symObjAddr: 0x2C4FC, symBinAddr: 0x10002D7EC, symSize: 0x210 }
  - { offsetInCU: 0xEA810, offset: 0xEA810, size: 0x8, addend: 0x0, symName: __ZNSt3__19allocatorIcEC1B8ue170006Ev, symObjAddr: 0x2C70C, symBinAddr: 0x10002D9FC, symSize: 0x2C }
  - { offsetInCU: 0xEA83A, offset: 0xEA83A, size: 0x8, addend: 0x0, symName: __ZNSt3__19allocatorIcEC2B8ue170006Ev, symObjAddr: 0x2C738, symBinAddr: 0x10002DA28, symSize: 0x2C }
  - { offsetInCU: 0xEA864, offset: 0xEA864, size: 0x8, addend: 0x0, symName: __ZNSt3__116__non_trivial_ifILb1ENS_9allocatorIcEEEC2B8ue170006Ev, symObjAddr: 0x2C764, symBinAddr: 0x10002DA54, symSize: 0x14 }
  - { offsetInCU: 0xEA88E, offset: 0xEA88E, size: 0x8, addend: 0x0, symName: __ZN4sgen8namebaseD2Ev, symObjAddr: 0x2C778, symBinAddr: 0x10002DA68, symSize: 0x2C }
  - { offsetInCU: 0xEA8BA, offset: 0xEA8BA, size: 0x8, addend: 0x0, symName: __ZN3mapIjNSt3__112basic_stringIcNS0_11char_traitsIcEENS0_9allocatorIcEEEEED2Ev, symObjAddr: 0x2C7A4, symBinAddr: 0x10002DA94, symSize: 0x2C }
  - { offsetInCU: 0xEA8E6, offset: 0xEA8E6, size: 0x8, addend: 0x0, symName: __ZN4listI7keylistIjNSt3__112basic_stringIcNS1_11char_traitsIcEENS1_9allocatorIcEEEEEED1Ev, symObjAddr: 0x2C7D0, symBinAddr: 0x10002DAC0, symSize: 0x2C }
  - { offsetInCU: 0xEA910, offset: 0xEA910, size: 0x8, addend: 0x0, symName: __ZN4listI7keylistIjNSt3__112basic_stringIcNS1_11char_traitsIcEENS1_9allocatorIcEEEEEED2Ev, symObjAddr: 0x2C7FC, symBinAddr: 0x10002DAEC, symSize: 0x40 }
  - { offsetInCU: 0xEA93A, offset: 0xEA93A, size: 0x8, addend: 0x0, symName: __ZN4listI7keylistIjNSt3__112basic_stringIcNS1_11char_traitsIcEENS1_9allocatorIcEEEEEE7destroyEv, symObjAddr: 0x2C83C, symBinAddr: 0x10002DB2C, symSize: 0x210 }
  - { offsetInCU: 0xEA960, offset: 0xEA960, size: 0x8, addend: 0x0, symName: __ZN7keylistIjNSt3__112basic_stringIcNS0_11char_traitsIcEENS0_9allocatorIcEEEEED1Ev, symObjAddr: 0x2CA58, symBinAddr: 0x10002DD48, symSize: 0x2C }
  - { offsetInCU: 0xEA98C, offset: 0xEA98C, size: 0x8, addend: 0x0, symName: __ZN7keylistIjNSt3__112basic_stringIcNS0_11char_traitsIcEENS0_9allocatorIcEEEEED2Ev, symObjAddr: 0x2CA84, symBinAddr: 0x10002DD74, symSize: 0x2C }
  - { offsetInCU: 0xEA9B8, offset: 0xEA9B8, size: 0x8, addend: 0x0, symName: __ZN4listI5entryIjNSt3__112basic_stringIcNS1_11char_traitsIcEENS1_9allocatorIcEEEEEED2Ev, symObjAddr: 0x2CAB0, symBinAddr: 0x10002DDA0, symSize: 0x40 }
  - { offsetInCU: 0xEA9E2, offset: 0xEA9E2, size: 0x8, addend: 0x0, symName: __ZN4listI5entryIjNSt3__112basic_stringIcNS1_11char_traitsIcEENS1_9allocatorIcEEEEEE7destroyEv, symObjAddr: 0x2CAF0, symBinAddr: 0x10002DDE0, symSize: 0x208 }
  - { offsetInCU: 0xEAA08, offset: 0xEAA08, size: 0x8, addend: 0x0, symName: __ZN5entryIjNSt3__112basic_stringIcNS0_11char_traitsIcEENS0_9allocatorIcEEEEED1Ev, symObjAddr: 0x2CCF8, symBinAddr: 0x10002DFE8, symSize: 0x2C }
  - { offsetInCU: 0xEAA34, offset: 0xEAA34, size: 0x8, addend: 0x0, symName: __ZN5entryIjNSt3__112basic_stringIcNS0_11char_traitsIcEENS0_9allocatorIcEEEEED2Ev, symObjAddr: 0x2CD24, symBinAddr: 0x10002E014, symSize: 0x30 }
  - { offsetInCU: 0xEAA60, offset: 0xEAA60, size: 0x8, addend: 0x0, symName: __ZN5Acorn8TypePoolC2Ev, symObjAddr: 0x2CD54, symBinAddr: 0x10002E044, symSize: 0x160 }
  - { offsetInCU: 0xEAA8A, offset: 0xEAA8A, size: 0x8, addend: 0x0, symName: __ZN5Acorn4TypeC2Ev, symObjAddr: 0x2CEB4, symBinAddr: 0x10002E1A4, symSize: 0x10C }
  - { offsetInCU: 0xEAAB4, offset: 0xEAAB4, size: 0x8, addend: 0x0, symName: __ZN4listIN5Acorn3PtrEEC1Ev, symObjAddr: 0x2CFC0, symBinAddr: 0x10002E2B0, symSize: 0x2C }
  - { offsetInCU: 0xEAADE, offset: 0xEAADE, size: 0x8, addend: 0x0, symName: __ZN4listINSt3__18functionIFvRN5Acorn3PtrEEEEEC1Ev, symObjAddr: 0x2CFEC, symBinAddr: 0x10002E2DC, symSize: 0x2C }
  - { offsetInCU: 0xEAB08, offset: 0xEAB08, size: 0x8, addend: 0x0, symName: __ZNSt3__18functionIFN5Acorn3PtrEvEEC1INS1_8TypePool9make_funcMUlvE_EvEET_, symObjAddr: 0x2D018, symBinAddr: 0x10002E308, symSize: 0x2C }
  - { offsetInCU: 0xEAB4D, offset: 0xEAB4D, size: 0x8, addend: 0x0, symName: __ZN4listINSt3__18functionIFvRN5Acorn3PtrEEEEED1Ev, symObjAddr: 0x2D044, symBinAddr: 0x10002E334, symSize: 0x2C }
  - { offsetInCU: 0xEAB77, offset: 0xEAB77, size: 0x8, addend: 0x0, symName: __ZN4listIN5Acorn3PtrEED1Ev, symObjAddr: 0x2D070, symBinAddr: 0x10002E360, symSize: 0x2C }
  - { offsetInCU: 0xEABA1, offset: 0xEABA1, size: 0x8, addend: 0x0, symName: __ZN5Acorn4TypeD2Ev, symObjAddr: 0x2D09C, symBinAddr: 0x10002E38C, symSize: 0x44 }
  - { offsetInCU: 0xEABCB, offset: 0xEABCB, size: 0x8, addend: 0x0, symName: __ZN4listIN5Acorn3ColEEC1Ev, symObjAddr: 0x2D0E0, symBinAddr: 0x10002E3D0, symSize: 0x2C }
  - { offsetInCU: 0xEABF5, offset: 0xEABF5, size: 0x8, addend: 0x0, symName: __ZN4listIN5Acorn3ColEED1Ev, symObjAddr: 0x2D10C, symBinAddr: 0x10002E3FC, symSize: 0x2C }
  - { offsetInCU: 0xEAC1F, offset: 0xEAC1F, size: 0x8, addend: 0x0, symName: __ZN4listIN5Acorn3ColEEC2Ev, symObjAddr: 0x2D138, symBinAddr: 0x10002E428, symSize: 0xD4 }
  - { offsetInCU: 0xEAC49, offset: 0xEAC49, size: 0x8, addend: 0x0, symName: __ZN4listIN5Acorn3ColEED2Ev, symObjAddr: 0x2D20C, symBinAddr: 0x10002E4FC, symSize: 0x40 }
  - { offsetInCU: 0xEAC73, offset: 0xEAC73, size: 0x8, addend: 0x0, symName: __ZN4listIN5Acorn3ColEE7destroyEv, symObjAddr: 0x2D24C, symBinAddr: 0x10002E53C, symSize: 0x210 }
  - { offsetInCU: 0xEAC99, offset: 0xEAC99, size: 0x8, addend: 0x0, symName: __ZN5Acorn3ColD1Ev, symObjAddr: 0x2D45C, symBinAddr: 0x10002E74C, symSize: 0x2C }
  - { offsetInCU: 0xEACC5, offset: 0xEACC5, size: 0x8, addend: 0x0, symName: __ZN5Acorn3ColD2Ev, symObjAddr: 0x2D488, symBinAddr: 0x10002E778, symSize: 0x3C }
  - { offsetInCU: 0xEACF1, offset: 0xEACF1, size: 0x8, addend: 0x0, symName: __ZN3mapINSt3__112basic_stringIcNS0_11char_traitsIcEENS0_9allocatorIcEEEEjED1Ev, symObjAddr: 0x2D4C4, symBinAddr: 0x10002E7B4, symSize: 0x2C }
  - { offsetInCU: 0xEAD1D, offset: 0xEAD1D, size: 0x8, addend: 0x0, symName: __ZN3mapINSt3__112basic_stringIcNS0_11char_traitsIcEENS0_9allocatorIcEEEEjED2Ev, symObjAddr: 0x2D4F0, symBinAddr: 0x10002E7E0, symSize: 0x2C }
  - { offsetInCU: 0xEAD49, offset: 0xEAD49, size: 0x8, addend: 0x0, symName: __ZN4listI7keylistINSt3__112basic_stringIcNS1_11char_traitsIcEENS1_9allocatorIcEEEEjEED1Ev, symObjAddr: 0x2D51C, symBinAddr: 0x10002E80C, symSize: 0x2C }
  - { offsetInCU: 0xEAD73, offset: 0xEAD73, size: 0x8, addend: 0x0, symName: __ZN4listI7keylistINSt3__112basic_stringIcNS1_11char_traitsIcEENS1_9allocatorIcEEEEjEED2Ev, symObjAddr: 0x2D548, symBinAddr: 0x10002E838, symSize: 0x40 }
  - { offsetInCU: 0xEAD9D, offset: 0xEAD9D, size: 0x8, addend: 0x0, symName: __ZN4listI7keylistINSt3__112basic_stringIcNS1_11char_traitsIcEENS1_9allocatorIcEEEEjEE7destroyEv, symObjAddr: 0x2D588, symBinAddr: 0x10002E878, symSize: 0x210 }
  - { offsetInCU: 0xEADC3, offset: 0xEADC3, size: 0x8, addend: 0x0, symName: __ZN7keylistINSt3__112basic_stringIcNS0_11char_traitsIcEENS0_9allocatorIcEEEEjED1Ev, symObjAddr: 0x2D798, symBinAddr: 0x10002EA88, symSize: 0x2C }
  - { offsetInCU: 0xEADEF, offset: 0xEADEF, size: 0x8, addend: 0x0, symName: __ZN7keylistINSt3__112basic_stringIcNS0_11char_traitsIcEENS0_9allocatorIcEEEEjED2Ev, symObjAddr: 0x2D7C4, symBinAddr: 0x10002EAB4, symSize: 0x2C }
  - { offsetInCU: 0xEAE1B, offset: 0xEAE1B, size: 0x8, addend: 0x0, symName: __ZN4listI5entryINSt3__112basic_stringIcNS1_11char_traitsIcEENS1_9allocatorIcEEEEjEED2Ev, symObjAddr: 0x2D7F0, symBinAddr: 0x10002EAE0, symSize: 0x40 }
  - { offsetInCU: 0xEAE45, offset: 0xEAE45, size: 0x8, addend: 0x0, symName: __ZN4listI5entryINSt3__112basic_stringIcNS1_11char_traitsIcEENS1_9allocatorIcEEEEjEE7destroyEv, symObjAddr: 0x2D830, symBinAddr: 0x10002EB20, symSize: 0x208 }
  - { offsetInCU: 0xEAE6B, offset: 0xEAE6B, size: 0x8, addend: 0x0, symName: __ZN4listIN5Acorn3PtrEEC2Ev, symObjAddr: 0x2DA38, symBinAddr: 0x10002ED28, symSize: 0xD4 }
  - { offsetInCU: 0xEAE95, offset: 0xEAE95, size: 0x8, addend: 0x0, symName: __ZN4listINSt3__18functionIFvRN5Acorn3PtrEEEEEC2Ev, symObjAddr: 0x2DB0C, symBinAddr: 0x10002EDFC, symSize: 0xD4 }
  - { offsetInCU: 0xEAEBF, offset: 0xEAEBF, size: 0x8, addend: 0x0, symName: __ZNSt3__18functionIFN5Acorn3PtrEvEEC2INS1_8TypePool9make_funcMUlvE_EvEET_, symObjAddr: 0x2DBE0, symBinAddr: 0x10002EED0, symSize: 0x1BC }
  - { offsetInCU: 0xEAF09, offset: 0xEAF09, size: 0x8, addend: 0x0, symName: __ZNSt3__110__function12__value_funcIFN5Acorn3PtrEvEEC1B8ue170006INS2_8TypePool9make_funcMUlvE_EvEEOT_, symObjAddr: 0x2DD9C, symBinAddr: 0x10002F08C, symSize: 0x1F8 }
  - { offsetInCU: 0xEAF4E, offset: 0xEAF4E, size: 0x8, addend: 0x0, symName: __ZNSt3__19allocatorIN5Acorn8TypePool9make_funcMUlvE_EEC1B8ue170006Ev, symObjAddr: 0x2DF94, symBinAddr: 0x10002F284, symSize: 0x2C }
  - { offsetInCU: 0xEAF78, offset: 0xEAF78, size: 0x8, addend: 0x0, symName: __ZNSt3__110__function12__value_funcIFN5Acorn3PtrEvEEC1B8ue170006INS2_8TypePool9make_funcMUlvE_ENS_9allocatorIS8_EEEEOT_RKT0_, symObjAddr: 0x2DFC0, symBinAddr: 0x10002F2B0, symSize: 0x3C }
  - { offsetInCU: 0xEAFD2, offset: 0xEAFD2, size: 0x8, addend: 0x0, symName: __ZNSt3__19allocatorIN5Acorn8TypePool9make_funcMUlvE_EEC2B8ue170006Ev, symObjAddr: 0x2DFFC, symBinAddr: 0x10002F2EC, symSize: 0x2C }
  - { offsetInCU: 0xEAFFC, offset: 0xEAFFC, size: 0x8, addend: 0x0, symName: __ZNSt3__116__non_trivial_ifILb1ENS_9allocatorIN5Acorn8TypePool9make_funcMUlvE_EEEEC2B8ue170006Ev, symObjAddr: 0x2E028, symBinAddr: 0x10002F318, symSize: 0x14 }
  - { offsetInCU: 0xEB026, offset: 0xEB026, size: 0x8, addend: 0x0, symName: __ZNSt3__110__function12__value_funcIFN5Acorn3PtrEvEEC2B8ue170006INS2_8TypePool9make_funcMUlvE_ENS_9allocatorIS8_EEEEOT_RKT0_, symObjAddr: 0x2E03C, symBinAddr: 0x10002F32C, symSize: 0x2D0 }
  - { offsetInCU: 0xEB0D1, offset: 0xEB0D1, size: 0x8, addend: 0x0, symName: __ZNSt3__19allocatorINS_10__function6__funcIN5Acorn8TypePool9make_funcMUlvE_ENS0_IS5_EEFNS3_3PtrEvEEEEC1B8ue170006IS5_EERKNS0_IT_EE, symObjAddr: 0x2E324, symBinAddr: 0x10002F614, symSize: 0x34 }
  - { offsetInCU: 0xEB114, offset: 0xEB114, size: 0x8, addend: 0x0, symName: __ZNSt3__19allocatorIN5Acorn8TypePool9make_funcMUlvE_EEC1B8ue170006INS_10__function6__funcIS3_S4_FNS1_3PtrEvEEEEERKNS0_IT_EE, symObjAddr: 0x2E358, symBinAddr: 0x10002F648, symSize: 0x34 }
  - { offsetInCU: 0xEB151, offset: 0xEB151, size: 0x8, addend: 0x0, symName: __ZNSt3__110__function6__funcIN5Acorn8TypePool9make_funcMUlvE_ENS_9allocatorIS4_EEFNS2_3PtrEvEEC1B8ue170006EOS4_OS6_, symObjAddr: 0x2E38C, symBinAddr: 0x10002F67C, symSize: 0x3C }
  - { offsetInCU: 0xEB199, offset: 0xEB199, size: 0x8, addend: 0x0, symName: __ZNSt3__19allocatorINS_10__function6__funcIN5Acorn8TypePool9make_funcMUlvE_ENS0_IS5_EEFNS3_3PtrEvEEEEC2B8ue170006IS5_EERKNS0_IT_EE, symObjAddr: 0x2E3C8, symBinAddr: 0x10002F6B8, symSize: 0x30 }
  - { offsetInCU: 0xEB1D6, offset: 0xEB1D6, size: 0x8, addend: 0x0, symName: __ZNSt3__116__non_trivial_ifILb1ENS_9allocatorINS_10__function6__funcIN5Acorn8TypePool9make_funcMUlvE_ENS1_IS6_EEFNS4_3PtrEvEEEEEEC2B8ue170006Ev, symObjAddr: 0x2E3F8, symBinAddr: 0x10002F6E8, symSize: 0x14 }
  - { offsetInCU: 0xEB200, offset: 0xEB200, size: 0x8, addend: 0x0, symName: __ZNSt3__19allocatorIN5Acorn8TypePool9make_funcMUlvE_EEC2B8ue170006INS_10__function6__funcIS3_S4_FNS1_3PtrEvEEEEERKNS0_IT_EE, symObjAddr: 0x2E40C, symBinAddr: 0x10002F6FC, symSize: 0x30 }
  - { offsetInCU: 0xEB23D, offset: 0xEB23D, size: 0x8, addend: 0x0, symName: __ZNSt3__110__function6__funcIN5Acorn8TypePool9make_funcMUlvE_ENS_9allocatorIS4_EEFNS2_3PtrEvEEC2B8ue170006EOS4_OS6_, symObjAddr: 0x2E43C, symBinAddr: 0x10002F72C, symSize: 0xC8 }
  - { offsetInCU: 0xEB285, offset: 0xEB285, size: 0x8, addend: 0x0, symName: __ZNSt3__110__function6__baseIFN5Acorn3PtrEvEEC2B8ue170006Ev, symObjAddr: 0x2E504, symBinAddr: 0x10002F7F4, symSize: 0x74 }
  - { offsetInCU: 0xEB2AF, offset: 0xEB2AF, size: 0x8, addend: 0x0, symName: __ZNSt3__110__function12__alloc_funcIN5Acorn8TypePool9make_funcMUlvE_ENS_9allocatorIS4_EEFNS2_3PtrEvEEC1B8ue170006EOS4_OS6_, symObjAddr: 0x2E578, symBinAddr: 0x10002F868, symSize: 0x3C }
  - { offsetInCU: 0xEB2F5, offset: 0xEB2F5, size: 0x8, addend: 0x0, symName: __ZNSt3__110__function6__baseIFN5Acorn3PtrEvEED2Ev, symObjAddr: 0x2E5B4, symBinAddr: 0x10002F8A4, symSize: 0x14 }
  - { offsetInCU: 0xEB31F, offset: 0xEB31F, size: 0x8, addend: 0x0, symName: __ZNSt3__110__function6__funcIN5Acorn8TypePool9make_funcMUlvE_ENS_9allocatorIS4_EEFNS2_3PtrEvEED1Ev, symObjAddr: 0x2E5C8, symBinAddr: 0x10002F8B8, symSize: 0x2C }
  - { offsetInCU: 0xEB34C, offset: 0xEB34C, size: 0x8, addend: 0x0, symName: __ZNSt3__110__function6__funcIN5Acorn8TypePool9make_funcMUlvE_ENS_9allocatorIS4_EEFNS2_3PtrEvEED0Ev, symObjAddr: 0x2E5F4, symBinAddr: 0x10002F8E4, symSize: 0x30 }
  - { offsetInCU: 0xEB379, offset: 0xEB379, size: 0x8, addend: 0x0, symName: __ZNKSt3__110__function6__funcIN5Acorn8TypePool9make_funcMUlvE_ENS_9allocatorIS4_EEFNS2_3PtrEvEE7__cloneEv, symObjAddr: 0x2E624, symBinAddr: 0x10002F914, symSize: 0x448 }
  - { offsetInCU: 0xEB3D4, offset: 0xEB3D4, size: 0x8, addend: 0x0, symName: __ZNKSt3__110__function6__funcIN5Acorn8TypePool9make_funcMUlvE_ENS_9allocatorIS4_EEFNS2_3PtrEvEE7__cloneEPNS0_6__baseIS8_EE, symObjAddr: 0x2EA6C, symBinAddr: 0x10002FD5C, symSize: 0x58 }
  - { offsetInCU: 0xEB40B, offset: 0xEB40B, size: 0x8, addend: 0x0, symName: __ZNSt3__110__function6__funcIN5Acorn8TypePool9make_funcMUlvE_ENS_9allocatorIS4_EEFNS2_3PtrEvEE7destroyEv, symObjAddr: 0x2EAC4, symBinAddr: 0x10002FDB4, symSize: 0x28 }
  - { offsetInCU: 0xEB433, offset: 0xEB433, size: 0x8, addend: 0x0, symName: __ZNSt3__110__function6__funcIN5Acorn8TypePool9make_funcMUlvE_ENS_9allocatorIS4_EEFNS2_3PtrEvEE18destroy_deallocateEv, symObjAddr: 0x2EAEC, symBinAddr: 0x10002FDDC, symSize: 0x204 }
  - { offsetInCU: 0xEB47B, offset: 0xEB47B, size: 0x8, addend: 0x0, symName: __ZNSt3__110__function6__funcIN5Acorn8TypePool9make_funcMUlvE_ENS_9allocatorIS4_EEFNS2_3PtrEvEEclEv, symObjAddr: 0x2ECF0, symBinAddr: 0x10002FFE0, symSize: 0x2C0 }
  - { offsetInCU: 0xEB4A4, offset: 0xEB4A4, size: 0x8, addend: 0x0, symName: __ZNKSt3__110__function6__funcIN5Acorn8TypePool9make_funcMUlvE_ENS_9allocatorIS4_EEFNS2_3PtrEvEE6targetERKSt9type_info, symObjAddr: 0x2EFB0, symBinAddr: 0x1000302A0, symSize: 0x60 }
  - { offsetInCU: 0xEB4DB, offset: 0xEB4DB, size: 0x8, addend: 0x0, symName: __ZNKSt3__110__function6__funcIN5Acorn8TypePool9make_funcMUlvE_ENS_9allocatorIS4_EEFNS2_3PtrEvEE11target_typeEv, symObjAddr: 0x2F010, symBinAddr: 0x100030300, symSize: 0x18 }
  - { offsetInCU: 0xEB503, offset: 0xEB503, size: 0x8, addend: 0x0, symName: __ZNSt3__110__function6__baseIFN5Acorn3PtrEvEED1Ev, symObjAddr: 0x2F028, symBinAddr: 0x100030318, symSize: 0x20 }
  - { offsetInCU: 0xEB52D, offset: 0xEB52D, size: 0x8, addend: 0x0, symName: __ZNSt3__110__function6__baseIFN5Acorn3PtrEvEED0Ev, symObjAddr: 0x2F048, symBinAddr: 0x100030338, symSize: 0x18 }
  - { offsetInCU: 0xEB557, offset: 0xEB557, size: 0x8, addend: 0x0, symName: __ZNSt3__110__function12__alloc_funcIN5Acorn8TypePool9make_funcMUlvE_ENS_9allocatorIS4_EEFNS2_3PtrEvEEC2B8ue170006EOS4_OS6_, symObjAddr: 0x2F060, symBinAddr: 0x100030350, symSize: 0x314 }
  - { offsetInCU: 0xEB5A0, offset: 0xEB5A0, size: 0x8, addend: 0x0, symName: __ZNSt3__117__compressed_pairIN5Acorn8TypePool9make_funcMUlvE_ENS_9allocatorIS3_EEEC1B8ue170006IJOS3_EJOS5_EEENS_21piecewise_construct_tENS_5tupleIJDpT_EEENSB_IJDpT0_EEE, symObjAddr: 0x2F764, symBinAddr: 0x100030A54, symSize: 0x2FC }
  - { offsetInCU: 0xEB614, offset: 0xEB614, size: 0x8, addend: 0x0, symName: __ZNSt3__15tupleIJON5Acorn8TypePool9make_funcMUlvE_EEEC1B8ue170006IJS3_ELi0EEEDpOT_, symObjAddr: 0x2FA60, symBinAddr: 0x100030D50, symSize: 0x34 }
  - { offsetInCU: 0xEB65E, offset: 0xEB65E, size: 0x8, addend: 0x0, symName: __ZNSt3__15tupleIJON5Acorn8TypePool9make_funcMUlvE_EEEC2B8ue170006IJS3_ELi0EEEDpOT_, symObjAddr: 0x2FA94, symBinAddr: 0x100030D84, symSize: 0x34 }
  - { offsetInCU: 0xEB6A8, offset: 0xEB6A8, size: 0x8, addend: 0x0, symName: __ZNSt3__112__tuple_implINS_15__tuple_indicesIJLm0EEEEJON5Acorn8TypePool9make_funcMUlvE_EEEC1B8ue170006IJLm0EEJS6_EJEJEJS5_EEENS1_IJXspT_EEEENS_13__tuple_typesIJDpT0_EEENS1_IJXspT1_EEEENSA_IJDpT2_EEEDpOT3_, symObjAddr: 0x2FAC8, symBinAddr: 0x100030DB8, symSize: 0x34 }
  - { offsetInCU: 0xEB73D, offset: 0xEB73D, size: 0x8, addend: 0x0, symName: __ZNSt3__112__tuple_implINS_15__tuple_indicesIJLm0EEEEJON5Acorn8TypePool9make_funcMUlvE_EEEC2B8ue170006IJLm0EEJS6_EJEJEJS5_EEENS1_IJXspT_EEEENS_13__tuple_typesIJDpT0_EEENS1_IJXspT1_EEEENSA_IJDpT2_EEEDpOT3_, symObjAddr: 0x2FAFC, symBinAddr: 0x100030DEC, symSize: 0x34 }
  - { offsetInCU: 0xEB7D2, offset: 0xEB7D2, size: 0x8, addend: 0x0, symName: __ZNSt3__112__tuple_leafILm0EON5Acorn8TypePool9make_funcMUlvE_ELb0EEC2B8ue170006IS3_vEEOT_, symObjAddr: 0x2FB30, symBinAddr: 0x100030E20, symSize: 0x70 }
  - { offsetInCU: 0xEB815, offset: 0xEB815, size: 0x8, addend: 0x0, symName: __ZNSt3__15tupleIJONS_9allocatorIN5Acorn8TypePool9make_funcMUlvE_EEEEEC1B8ue170006IJS5_ELi0EEEDpOT_, symObjAddr: 0x2FBA0, symBinAddr: 0x100030E90, symSize: 0x34 }
  - { offsetInCU: 0xEB85F, offset: 0xEB85F, size: 0x8, addend: 0x0, symName: __ZNSt3__15tupleIJONS_9allocatorIN5Acorn8TypePool9make_funcMUlvE_EEEEEC2B8ue170006IJS5_ELi0EEEDpOT_, symObjAddr: 0x2FBD4, symBinAddr: 0x100030EC4, symSize: 0x34 }
  - { offsetInCU: 0xEB8A9, offset: 0xEB8A9, size: 0x8, addend: 0x0, symName: __ZNSt3__112__tuple_implINS_15__tuple_indicesIJLm0EEEEJONS_9allocatorIN5Acorn8TypePool9make_funcMUlvE_EEEEEC1B8ue170006IJLm0EEJS8_EJEJEJS7_EEENS1_IJXspT_EEEENS_13__tuple_typesIJDpT0_EEENS1_IJXspT1_EEEENSC_IJDpT2_EEEDpOT3_, symObjAddr: 0x2FC08, symBinAddr: 0x100030EF8, symSize: 0x34 }
  - { offsetInCU: 0xEB93E, offset: 0xEB93E, size: 0x8, addend: 0x0, symName: __ZNSt3__112__tuple_implINS_15__tuple_indicesIJLm0EEEEJONS_9allocatorIN5Acorn8TypePool9make_funcMUlvE_EEEEEC2B8ue170006IJLm0EEJS8_EJEJEJS7_EEENS1_IJXspT_EEEENS_13__tuple_typesIJDpT0_EEENS1_IJXspT1_EEEENSC_IJDpT2_EEEDpOT3_, symObjAddr: 0x2FC3C, symBinAddr: 0x100030F2C, symSize: 0x34 }
  - { offsetInCU: 0xEB9D3, offset: 0xEB9D3, size: 0x8, addend: 0x0, symName: __ZNSt3__112__tuple_leafILm0EONS_9allocatorIN5Acorn8TypePool9make_funcMUlvE_EEELb0EEC2B8ue170006IS5_vEEOT_, symObjAddr: 0x2FC70, symBinAddr: 0x100030F60, symSize: 0x70 }
  - { offsetInCU: 0xEBA16, offset: 0xEBA16, size: 0x8, addend: 0x0, symName: __ZNSt3__117__compressed_pairIN5Acorn8TypePool9make_funcMUlvE_ENS_9allocatorIS3_EEEC2B8ue170006IJOS3_EJOS5_EEENS_21piecewise_construct_tENS_5tupleIJDpT_EEENSB_IJDpT0_EEE, symObjAddr: 0x2FCE0, symBinAddr: 0x100030FD0, symSize: 0x360 }
  - { offsetInCU: 0xEBA8A, offset: 0xEBA8A, size: 0x8, addend: 0x0, symName: __ZNSt3__122__compressed_pair_elemIN5Acorn8TypePool9make_funcMUlvE_ELi0ELb1EEC2B8ue170006IJOS3_EJLm0EEEENS_21piecewise_construct_tENS_5tupleIJDpT_EEENS_15__tuple_indicesIJXspT0_EEEE, symObjAddr: 0x30040, symBinAddr: 0x100031330, symSize: 0x200 }
  - { offsetInCU: 0xEBAF4, offset: 0xEBAF4, size: 0x8, addend: 0x0, symName: __ZNSt3__122__compressed_pair_elemINS_9allocatorIN5Acorn8TypePool9make_funcMUlvE_EEELi1ELb1EEC2B8ue170006IJOS5_EJLm0EEEENS_21piecewise_construct_tENS_5tupleIJDpT_EEENS_15__tuple_indicesIJXspT0_EEEE, symObjAddr: 0x30240, symBinAddr: 0x100031530, symSize: 0x200 }
  - { offsetInCU: 0xEBB5E, offset: 0xEBB5E, size: 0x8, addend: 0x0, symName: __ZNSt3__112__tuple_leafILm0EON5Acorn8TypePool9make_funcMUlvE_ELb0EE3getB8ue170006Ev, symObjAddr: 0x30464, symBinAddr: 0x100031754, symSize: 0x60 }
  - { offsetInCU: 0xEBB84, offset: 0xEBB84, size: 0x8, addend: 0x0, symName: __ZNSt3__112__tuple_leafILm0EONS_9allocatorIN5Acorn8TypePool9make_funcMUlvE_EEELb0EE3getB8ue170006Ev, symObjAddr: 0x304E8, symBinAddr: 0x1000317D8, symSize: 0x60 }
  - { offsetInCU: 0xEBBAA, offset: 0xEBBAA, size: 0x8, addend: 0x0, symName: __ZNSt3__110__function6__funcIN5Acorn8TypePool9make_funcMUlvE_ENS_9allocatorIS4_EEFNS2_3PtrEvEED2Ev, symObjAddr: 0x30548, symBinAddr: 0x100031838, symSize: 0x2C }
  - { offsetInCU: 0xEBBD7, offset: 0xEBBD7, size: 0x8, addend: 0x0, symName: __ZNKSt3__110__function12__alloc_funcIN5Acorn8TypePool9make_funcMUlvE_ENS_9allocatorIS4_EEFNS2_3PtrEvEE15__get_allocatorB8ue170006Ev, symObjAddr: 0x30574, symBinAddr: 0x100031864, symSize: 0x24 }
  - { offsetInCU: 0xEBBFD, offset: 0xEBBFD, size: 0x8, addend: 0x0, symName: __ZNSt3__19allocatorINS_10__function6__funcIN5Acorn8TypePool9make_funcMUlvE_ENS0_IS5_EEFNS3_3PtrEvEEEE8allocateB8ue170006Em, symObjAddr: 0x30598, symBinAddr: 0x100031888, symSize: 0x5C }
  - { offsetInCU: 0xEBC43, offset: 0xEBC43, size: 0x8, addend: 0x0, symName: __ZNSt3__122__allocator_destructorINS_9allocatorINS_10__function6__funcIN5Acorn8TypePool9make_funcMUlvE_ENS1_IS6_EEFNS4_3PtrEvEEEEEEC1B8ue170006ERSB_m, symObjAddr: 0x305F4, symBinAddr: 0x1000318E4, symSize: 0x3C }
  - { offsetInCU: 0xEBD2A, offset: 0xEBD2A, size: 0x8, addend: 0x0, symName: __ZNSt3__110unique_ptrINS_10__function6__funcIN5Acorn8TypePool9make_funcMUlvE_ENS_9allocatorIS5_EEFNS3_3PtrEvEEENS_22__allocator_destructorINS6_ISA_EEEEEC1B8ue170006ILb1EvEEPSA_NS_16__dependent_typeINS_27__unique_ptr_deleter_sfinaeISD_EEXT_EE20__good_rval_ref_typeE, symObjAddr: 0x30630, symBinAddr: 0x100031920, symSize: 0x3C }
  - { offsetInCU: 0xEBD7B, offset: 0xEBD7B, size: 0x8, addend: 0x0, symName: __ZNKSt3__110unique_ptrINS_10__function6__funcIN5Acorn8TypePool9make_funcMUlvE_ENS_9allocatorIS5_EEFNS3_3PtrEvEEENS_22__allocator_destructorINS6_ISA_EEEEE3getB8ue170006Ev, symObjAddr: 0x3066C, symBinAddr: 0x10003195C, symSize: 0x6C }
  - { offsetInCU: 0xEBDA1, offset: 0xEBDA1, size: 0x8, addend: 0x0, symName: __ZNKSt3__110__function12__alloc_funcIN5Acorn8TypePool9make_funcMUlvE_ENS_9allocatorIS4_EEFNS2_3PtrEvEE8__targetB8ue170006Ev, symObjAddr: 0x306D8, symBinAddr: 0x1000319C8, symSize: 0x24 }
  - { offsetInCU: 0xEBDC7, offset: 0xEBDC7, size: 0x8, addend: 0x0, symName: __ZNSt3__110__function6__funcIN5Acorn8TypePool9make_funcMUlvE_ENS_9allocatorIS4_EEFNS2_3PtrEvEEC1B8ue170006ERKS4_OS6_, symObjAddr: 0x306FC, symBinAddr: 0x1000319EC, symSize: 0x3C }
  - { offsetInCU: 0xEBE0F, offset: 0xEBE0F, size: 0x8, addend: 0x0, symName: __ZNSt3__110unique_ptrINS_10__function6__funcIN5Acorn8TypePool9make_funcMUlvE_ENS_9allocatorIS5_EEFNS3_3PtrEvEEENS_22__allocator_destructorINS6_ISA_EEEEE7releaseB8ue170006Ev, symObjAddr: 0x30738, symBinAddr: 0x100031A28, symSize: 0xB8 }
  - { offsetInCU: 0xEBE44, offset: 0xEBE44, size: 0x8, addend: 0x0, symName: __ZNSt3__110unique_ptrINS_10__function6__funcIN5Acorn8TypePool9make_funcMUlvE_ENS_9allocatorIS5_EEFNS3_3PtrEvEEENS_22__allocator_destructorINS6_ISA_EEEEED1B8ue170006Ev, symObjAddr: 0x307F0, symBinAddr: 0x100031AE0, symSize: 0x2C }
  - { offsetInCU: 0xEBE6E, offset: 0xEBE6E, size: 0x8, addend: 0x0, symName: __ZNKSt3__117__compressed_pairIN5Acorn8TypePool9make_funcMUlvE_ENS_9allocatorIS3_EEE6secondB8ue170006Ev, symObjAddr: 0x3081C, symBinAddr: 0x100031B0C, symSize: 0x24 }
  - { offsetInCU: 0xEBE94, offset: 0xEBE94, size: 0x8, addend: 0x0, symName: __ZNKSt3__122__compressed_pair_elemINS_9allocatorIN5Acorn8TypePool9make_funcMUlvE_EEELi1ELb1EE5__getB8ue170006Ev, symObjAddr: 0x30840, symBinAddr: 0x100031B30, symSize: 0x14 }
  - { offsetInCU: 0xEBEC5, offset: 0xEBEC5, size: 0x8, addend: 0x0, symName: __ZNSt3__116allocator_traitsINS_9allocatorINS_10__function6__funcIN5Acorn8TypePool9make_funcMUlvE_ENS1_IS6_EEFNS4_3PtrEvEEEEEE8max_sizeB8ue170006ISB_vEEmRKSB_, symObjAddr: 0x30854, symBinAddr: 0x100031B44, symSize: 0x24 }
  - { offsetInCU: 0xEBEF3, offset: 0xEBEF3, size: 0x8, addend: 0x0, symName: __ZNKSt3__19allocatorINS_10__function6__funcIN5Acorn8TypePool9make_funcMUlvE_ENS0_IS5_EEFNS3_3PtrEvEEEE8max_sizeB8ue170006Ev, symObjAddr: 0x30910, symBinAddr: 0x100031C00, symSize: 0x14 }
  - { offsetInCU: 0xEBF19, offset: 0xEBF19, size: 0x8, addend: 0x0, symName: __ZNSt3__122__allocator_destructorINS_9allocatorINS_10__function6__funcIN5Acorn8TypePool9make_funcMUlvE_ENS1_IS6_EEFNS4_3PtrEvEEEEEEC2B8ue170006ERSB_m, symObjAddr: 0x30994, symBinAddr: 0x100031C84, symSize: 0xBC }
  - { offsetInCU: 0xEBF5F, offset: 0xEBF5F, size: 0x8, addend: 0x0, symName: __ZNSt3__110unique_ptrINS_10__function6__funcIN5Acorn8TypePool9make_funcMUlvE_ENS_9allocatorIS5_EEFNS3_3PtrEvEEENS_22__allocator_destructorINS6_ISA_EEEEEC2B8ue170006ILb1EvEEPSA_NS_16__dependent_typeINS_27__unique_ptr_deleter_sfinaeISD_EEXT_EE20__good_rval_ref_typeE, symObjAddr: 0x30A50, symBinAddr: 0x100031D40, symSize: 0x21C }
  - { offsetInCU: 0xEBFB6, offset: 0xEBFB6, size: 0x8, addend: 0x0, symName: __ZNSt3__117__compressed_pairIPNS_10__function6__funcIN5Acorn8TypePool9make_funcMUlvE_ENS_9allocatorIS5_EEFNS3_3PtrEvEEENS_22__allocator_destructorINS6_ISA_EEEEEC1B8ue170006IRSB_SE_EEOT_OT0_, symObjAddr: 0x30C6C, symBinAddr: 0x100031F5C, symSize: 0x3C }
  - { offsetInCU: 0xEC00E, offset: 0xEC00E, size: 0x8, addend: 0x0, symName: __ZNSt3__117__compressed_pairIPNS_10__function6__funcIN5Acorn8TypePool9make_funcMUlvE_ENS_9allocatorIS5_EEFNS3_3PtrEvEEENS_22__allocator_destructorINS6_ISA_EEEEEC2B8ue170006IRSB_SE_EEOT_OT0_, symObjAddr: 0x30CA8, symBinAddr: 0x100031F98, symSize: 0x48 }
  - { offsetInCU: 0xEC066, offset: 0xEC066, size: 0x8, addend: 0x0, symName: __ZNSt3__122__compressed_pair_elemIPNS_10__function6__funcIN5Acorn8TypePool9make_funcMUlvE_ENS_9allocatorIS5_EEFNS3_3PtrEvEEELi0ELb0EEC2B8ue170006IRSB_vEEOT_, symObjAddr: 0x30CF0, symBinAddr: 0x100031FE0, symSize: 0xB0 }
  - { offsetInCU: 0xEC0A8, offset: 0xEC0A8, size: 0x8, addend: 0x0, symName: __ZNSt3__122__compressed_pair_elemINS_22__allocator_destructorINS_9allocatorINS_10__function6__funcIN5Acorn8TypePool9make_funcMUlvE_ENS2_IS7_EEFNS5_3PtrEvEEEEEEELi1ELb0EEC2B8ue170006ISD_vEEOT_, symObjAddr: 0x30DA0, symBinAddr: 0x100032090, symSize: 0x38 }
  - { offsetInCU: 0xEC0EA, offset: 0xEC0EA, size: 0x8, addend: 0x0, symName: __ZNKSt3__117__compressed_pairIPNS_10__function6__funcIN5Acorn8TypePool9make_funcMUlvE_ENS_9allocatorIS5_EEFNS3_3PtrEvEEENS_22__allocator_destructorINS6_ISA_EEEEE5firstB8ue170006Ev, symObjAddr: 0x30DD8, symBinAddr: 0x1000320C8, symSize: 0x24 }
  - { offsetInCU: 0xEC110, offset: 0xEC110, size: 0x8, addend: 0x0, symName: __ZNKSt3__122__compressed_pair_elemIPNS_10__function6__funcIN5Acorn8TypePool9make_funcMUlvE_ENS_9allocatorIS5_EEFNS3_3PtrEvEEELi0ELb0EE5__getB8ue170006Ev, symObjAddr: 0x30DFC, symBinAddr: 0x1000320EC, symSize: 0x14 }
  - { offsetInCU: 0xEC136, offset: 0xEC136, size: 0x8, addend: 0x0, symName: __ZNKSt3__117__compressed_pairIN5Acorn8TypePool9make_funcMUlvE_ENS_9allocatorIS3_EEE5firstB8ue170006Ev, symObjAddr: 0x30E10, symBinAddr: 0x100032100, symSize: 0x24 }
  - { offsetInCU: 0xEC15C, offset: 0xEC15C, size: 0x8, addend: 0x0, symName: __ZNKSt3__122__compressed_pair_elemIN5Acorn8TypePool9make_funcMUlvE_ELi0ELb1EE5__getB8ue170006Ev, symObjAddr: 0x30E34, symBinAddr: 0x100032124, symSize: 0x14 }
  - { offsetInCU: 0xEC182, offset: 0xEC182, size: 0x8, addend: 0x0, symName: __ZNSt3__110__function6__funcIN5Acorn8TypePool9make_funcMUlvE_ENS_9allocatorIS4_EEFNS2_3PtrEvEEC2B8ue170006ERKS4_OS6_, symObjAddr: 0x30E48, symBinAddr: 0x100032138, symSize: 0xC8 }
  - { offsetInCU: 0xEC1CA, offset: 0xEC1CA, size: 0x8, addend: 0x0, symName: __ZNSt3__110__function12__alloc_funcIN5Acorn8TypePool9make_funcMUlvE_ENS_9allocatorIS4_EEFNS2_3PtrEvEEC1B8ue170006ERKS4_OS6_, symObjAddr: 0x30F10, symBinAddr: 0x100032200, symSize: 0x3C }
  - { offsetInCU: 0xEC210, offset: 0xEC210, size: 0x8, addend: 0x0, symName: __ZNSt3__110__function12__alloc_funcIN5Acorn8TypePool9make_funcMUlvE_ENS_9allocatorIS4_EEFNS2_3PtrEvEEC2B8ue170006ERKS4_OS6_, symObjAddr: 0x30F4C, symBinAddr: 0x10003223C, symSize: 0x314 }
  - { offsetInCU: 0xEC259, offset: 0xEC259, size: 0x8, addend: 0x0, symName: __ZNSt3__117__compressed_pairIN5Acorn8TypePool9make_funcMUlvE_ENS_9allocatorIS3_EEEC1B8ue170006IJRKS3_EJOS5_EEENS_21piecewise_construct_tENS_5tupleIJDpT_EEENSC_IJDpT0_EEE, symObjAddr: 0x31458, symBinAddr: 0x100032748, symSize: 0x2FC }
  - { offsetInCU: 0xEC2CD, offset: 0xEC2CD, size: 0x8, addend: 0x0, symName: __ZNSt3__15tupleIJRKN5Acorn8TypePool9make_funcMUlvE_EEEC1B8ue170006INS_4_AndELi0EEES5_, symObjAddr: 0x31754, symBinAddr: 0x100032A44, symSize: 0x34 }
  - { offsetInCU: 0xEC315, offset: 0xEC315, size: 0x8, addend: 0x0, symName: __ZNSt3__15tupleIJRKN5Acorn8TypePool9make_funcMUlvE_EEEC2B8ue170006INS_4_AndELi0EEES5_, symObjAddr: 0x31788, symBinAddr: 0x100032A78, symSize: 0x34 }
  - { offsetInCU: 0xEC35D, offset: 0xEC35D, size: 0x8, addend: 0x0, symName: __ZNSt3__112__tuple_implINS_15__tuple_indicesIJLm0EEEEJRKN5Acorn8TypePool9make_funcMUlvE_EEEC1B8ue170006IJLm0EEJS7_EJEJEJS7_EEENS1_IJXspT_EEEENS_13__tuple_typesIJDpT0_EEENS1_IJXspT1_EEEENSB_IJDpT2_EEEDpOT3_, symObjAddr: 0x317BC, symBinAddr: 0x100032AAC, symSize: 0x34 }
  - { offsetInCU: 0xEC3F2, offset: 0xEC3F2, size: 0x8, addend: 0x0, symName: __ZNSt3__112__tuple_implINS_15__tuple_indicesIJLm0EEEEJRKN5Acorn8TypePool9make_funcMUlvE_EEEC2B8ue170006IJLm0EEJS7_EJEJEJS7_EEENS1_IJXspT_EEEENS_13__tuple_typesIJDpT0_EEENS1_IJXspT1_EEEENSB_IJDpT2_EEEDpOT3_, symObjAddr: 0x317F0, symBinAddr: 0x100032AE0, symSize: 0x34 }
  - { offsetInCU: 0xEC487, offset: 0xEC487, size: 0x8, addend: 0x0, symName: __ZNSt3__112__tuple_leafILm0ERKN5Acorn8TypePool9make_funcMUlvE_ELb0EEC2B8ue170006IS5_vEEOT_, symObjAddr: 0x31824, symBinAddr: 0x100032B14, symSize: 0x70 }
  - { offsetInCU: 0xEC4CA, offset: 0xEC4CA, size: 0x8, addend: 0x0, symName: __ZNSt3__117__compressed_pairIN5Acorn8TypePool9make_funcMUlvE_ENS_9allocatorIS3_EEEC2B8ue170006IJRKS3_EJOS5_EEENS_21piecewise_construct_tENS_5tupleIJDpT_EEENSC_IJDpT0_EEE, symObjAddr: 0x31894, symBinAddr: 0x100032B84, symSize: 0x360 }
  - { offsetInCU: 0xEC53E, offset: 0xEC53E, size: 0x8, addend: 0x0, symName: __ZNSt3__122__compressed_pair_elemIN5Acorn8TypePool9make_funcMUlvE_ELi0ELb1EEC2B8ue170006IJRKS3_EJLm0EEEENS_21piecewise_construct_tENS_5tupleIJDpT_EEENS_15__tuple_indicesIJXspT0_EEEE, symObjAddr: 0x31BF4, symBinAddr: 0x100032EE4, symSize: 0x200 }
  - { offsetInCU: 0xEC5A8, offset: 0xEC5A8, size: 0x8, addend: 0x0, symName: __ZNSt3__112__tuple_leafILm0ERKN5Acorn8TypePool9make_funcMUlvE_ELb0EE3getB8ue170006Ev, symObjAddr: 0x31E18, symBinAddr: 0x100033108, symSize: 0x60 }
  - { offsetInCU: 0xEC5CE, offset: 0xEC5CE, size: 0x8, addend: 0x0, symName: __ZNSt3__117__compressed_pairIPNS_10__function6__funcIN5Acorn8TypePool9make_funcMUlvE_ENS_9allocatorIS5_EEFNS3_3PtrEvEEENS_22__allocator_destructorINS6_ISA_EEEEE5firstB8ue170006Ev, symObjAddr: 0x31E78, symBinAddr: 0x100033168, symSize: 0x24 }
  - { offsetInCU: 0xEC5F4, offset: 0xEC5F4, size: 0x8, addend: 0x0, symName: __ZNSt3__122__compressed_pair_elemIPNS_10__function6__funcIN5Acorn8TypePool9make_funcMUlvE_ENS_9allocatorIS5_EEFNS3_3PtrEvEEELi0ELb0EE5__getB8ue170006Ev, symObjAddr: 0x31E9C, symBinAddr: 0x10003318C, symSize: 0x14 }
  - { offsetInCU: 0xEC61A, offset: 0xEC61A, size: 0x8, addend: 0x0, symName: __ZNSt3__110unique_ptrINS_10__function6__funcIN5Acorn8TypePool9make_funcMUlvE_ENS_9allocatorIS5_EEFNS3_3PtrEvEEENS_22__allocator_destructorINS6_ISA_EEEEED2B8ue170006Ev, symObjAddr: 0x31EB0, symBinAddr: 0x1000331A0, symSize: 0x30 }
  - { offsetInCU: 0xEC644, offset: 0xEC644, size: 0x8, addend: 0x0, symName: __ZNSt3__110unique_ptrINS_10__function6__funcIN5Acorn8TypePool9make_funcMUlvE_ENS_9allocatorIS5_EEFNS3_3PtrEvEEENS_22__allocator_destructorINS6_ISA_EEEEE5resetB8ue170006EPSA_, symObjAddr: 0x31EE0, symBinAddr: 0x1000331D0, symSize: 0xEC }
  - { offsetInCU: 0xEC688, offset: 0xEC688, size: 0x8, addend: 0x0, symName: __ZNSt3__117__compressed_pairIPNS_10__function6__funcIN5Acorn8TypePool9make_funcMUlvE_ENS_9allocatorIS5_EEFNS3_3PtrEvEEENS_22__allocator_destructorINS6_ISA_EEEEE6secondB8ue170006Ev, symObjAddr: 0x31FCC, symBinAddr: 0x1000332BC, symSize: 0x28 }
  - { offsetInCU: 0xEC6AE, offset: 0xEC6AE, size: 0x8, addend: 0x0, symName: __ZNSt3__122__allocator_destructorINS_9allocatorINS_10__function6__funcIN5Acorn8TypePool9make_funcMUlvE_ENS1_IS6_EEFNS4_3PtrEvEEEEEEclB8ue170006EPSA_, symObjAddr: 0x31FF4, symBinAddr: 0x1000332E4, symSize: 0xB8 }
  - { offsetInCU: 0xEC6E2, offset: 0xEC6E2, size: 0x8, addend: 0x0, symName: __ZNSt3__122__compressed_pair_elemINS_22__allocator_destructorINS_9allocatorINS_10__function6__funcIN5Acorn8TypePool9make_funcMUlvE_ENS2_IS7_EEFNS5_3PtrEvEEEEEEELi1ELb0EE5__getB8ue170006Ev, symObjAddr: 0x320AC, symBinAddr: 0x10003339C, symSize: 0x14 }
  - { offsetInCU: 0xEC708, offset: 0xEC708, size: 0x8, addend: 0x0, symName: __ZNSt3__116allocator_traitsINS_9allocatorINS_10__function6__funcIN5Acorn8TypePool9make_funcMUlvE_ENS1_IS6_EEFNS4_3PtrEvEEEEEE10deallocateB8ue170006ERSB_PSA_m, symObjAddr: 0x320C0, symBinAddr: 0x1000333B0, symSize: 0x34 }
  - { offsetInCU: 0xEC74A, offset: 0xEC74A, size: 0x8, addend: 0x0, symName: __ZNSt3__19allocatorINS_10__function6__funcIN5Acorn8TypePool9make_funcMUlvE_ENS0_IS5_EEFNS3_3PtrEvEEEE10deallocateB8ue170006EPS9_m, symObjAddr: 0x320F4, symBinAddr: 0x1000333E4, symSize: 0x4C }
  - { offsetInCU: 0xEC78C, offset: 0xEC78C, size: 0x8, addend: 0x0, symName: __ZNSt3__110__function6__funcIN5Acorn8TypePool9make_funcMUlvE_ENS_9allocatorIS4_EEFNS2_3PtrEvEEC1B8ue170006ERKS4_RKS6_, symObjAddr: 0x32248, symBinAddr: 0x100033538, symSize: 0x3C }
  - { offsetInCU: 0xEC7D4, offset: 0xEC7D4, size: 0x8, addend: 0x0, symName: __ZNSt3__110__function6__funcIN5Acorn8TypePool9make_funcMUlvE_ENS_9allocatorIS4_EEFNS2_3PtrEvEEC2B8ue170006ERKS4_RKS6_, symObjAddr: 0x32284, symBinAddr: 0x100033574, symSize: 0xC8 }
  - { offsetInCU: 0xEC81C, offset: 0xEC81C, size: 0x8, addend: 0x0, symName: __ZNSt3__110__function12__alloc_funcIN5Acorn8TypePool9make_funcMUlvE_ENS_9allocatorIS4_EEFNS2_3PtrEvEEC1B8ue170006ERKS4_RKS6_, symObjAddr: 0x3234C, symBinAddr: 0x10003363C, symSize: 0x3C }
  - { offsetInCU: 0xEC862, offset: 0xEC862, size: 0x8, addend: 0x0, symName: __ZNSt3__110__function12__alloc_funcIN5Acorn8TypePool9make_funcMUlvE_ENS_9allocatorIS4_EEFNS2_3PtrEvEEC2B8ue170006ERKS4_RKS6_, symObjAddr: 0x32388, symBinAddr: 0x100033678, symSize: 0x314 }
  - { offsetInCU: 0xEC8AB, offset: 0xEC8AB, size: 0x8, addend: 0x0, symName: __ZNSt3__117__compressed_pairIN5Acorn8TypePool9make_funcMUlvE_ENS_9allocatorIS3_EEEC1B8ue170006IJRKS3_EJRKS5_EEENS_21piecewise_construct_tENS_5tupleIJDpT_EEENSD_IJDpT0_EEE, symObjAddr: 0x32894, symBinAddr: 0x100033B84, symSize: 0x2FC }
  - { offsetInCU: 0xEC91F, offset: 0xEC91F, size: 0x8, addend: 0x0, symName: __ZNSt3__15tupleIJRKNS_9allocatorIN5Acorn8TypePool9make_funcMUlvE_EEEEEC1B8ue170006INS_4_AndELi0EEES7_, symObjAddr: 0x32B90, symBinAddr: 0x100033E80, symSize: 0x34 }
  - { offsetInCU: 0xEC967, offset: 0xEC967, size: 0x8, addend: 0x0, symName: __ZNSt3__15tupleIJRKNS_9allocatorIN5Acorn8TypePool9make_funcMUlvE_EEEEEC2B8ue170006INS_4_AndELi0EEES7_, symObjAddr: 0x32BC4, symBinAddr: 0x100033EB4, symSize: 0x34 }
  - { offsetInCU: 0xEC9AF, offset: 0xEC9AF, size: 0x8, addend: 0x0, symName: __ZNSt3__112__tuple_implINS_15__tuple_indicesIJLm0EEEEJRKNS_9allocatorIN5Acorn8TypePool9make_funcMUlvE_EEEEEC1B8ue170006IJLm0EEJS9_EJEJEJS9_EEENS1_IJXspT_EEEENS_13__tuple_typesIJDpT0_EEENS1_IJXspT1_EEEENSD_IJDpT2_EEEDpOT3_, symObjAddr: 0x32BF8, symBinAddr: 0x100033EE8, symSize: 0x34 }
  - { offsetInCU: 0xECA44, offset: 0xECA44, size: 0x8, addend: 0x0, symName: __ZNSt3__112__tuple_implINS_15__tuple_indicesIJLm0EEEEJRKNS_9allocatorIN5Acorn8TypePool9make_funcMUlvE_EEEEEC2B8ue170006IJLm0EEJS9_EJEJEJS9_EEENS1_IJXspT_EEEENS_13__tuple_typesIJDpT0_EEENS1_IJXspT1_EEEENSD_IJDpT2_EEEDpOT3_, symObjAddr: 0x32C2C, symBinAddr: 0x100033F1C, symSize: 0x34 }
  - { offsetInCU: 0xECAD9, offset: 0xECAD9, size: 0x8, addend: 0x0, symName: __ZNSt3__112__tuple_leafILm0ERKNS_9allocatorIN5Acorn8TypePool9make_funcMUlvE_EEELb0EEC2B8ue170006IS7_vEEOT_, symObjAddr: 0x32C60, symBinAddr: 0x100033F50, symSize: 0x70 }
  - { offsetInCU: 0xECB1C, offset: 0xECB1C, size: 0x8, addend: 0x0, symName: __ZNSt3__117__compressed_pairIN5Acorn8TypePool9make_funcMUlvE_ENS_9allocatorIS3_EEEC2B8ue170006IJRKS3_EJRKS5_EEENS_21piecewise_construct_tENS_5tupleIJDpT_EEENSD_IJDpT0_EEE, symObjAddr: 0x32CD0, symBinAddr: 0x100033FC0, symSize: 0x360 }
  - { offsetInCU: 0xECB90, offset: 0xECB90, size: 0x8, addend: 0x0, symName: __ZNSt3__122__compressed_pair_elemINS_9allocatorIN5Acorn8TypePool9make_funcMUlvE_EEELi1ELb1EEC2B8ue170006IJRKS5_EJLm0EEEENS_21piecewise_construct_tENS_5tupleIJDpT_EEENS_15__tuple_indicesIJXspT0_EEEE, symObjAddr: 0x33030, symBinAddr: 0x100034320, symSize: 0x200 }
  - { offsetInCU: 0xECBFA, offset: 0xECBFA, size: 0x8, addend: 0x0, symName: __ZNSt3__112__tuple_leafILm0ERKNS_9allocatorIN5Acorn8TypePool9make_funcMUlvE_EEELb0EE3getB8ue170006Ev, symObjAddr: 0x33254, symBinAddr: 0x100034544, symSize: 0x60 }
  - { offsetInCU: 0xECC20, offset: 0xECC20, size: 0x8, addend: 0x0, symName: __ZNSt3__110__function12__alloc_funcIN5Acorn8TypePool9make_funcMUlvE_ENS_9allocatorIS4_EEFNS2_3PtrEvEE7destroyB8ue170006Ev, symObjAddr: 0x332B4, symBinAddr: 0x1000345A4, symSize: 0x10 }
  - { offsetInCU: 0xECC46, offset: 0xECC46, size: 0x8, addend: 0x0, symName: __ZNSt3__110__function12__alloc_funcIN5Acorn8TypePool9make_funcMUlvE_ENS_9allocatorIS4_EEFNS2_3PtrEvEEclB8ue170006Ev, symObjAddr: 0x332C4, symBinAddr: 0x1000345B4, symSize: 0x2C0 }
  - { offsetInCU: 0xECC6D, offset: 0xECC6D, size: 0x8, addend: 0x0, symName: __ZNSt3__128__invoke_void_return_wrapperIN5Acorn3PtrELb0EE6__callB8ue170006IJRNS1_8TypePool9make_funcMUlvE_EEEES2_DpOT_, symObjAddr: 0x33584, symBinAddr: 0x100034874, symSize: 0x2BC }
  - { offsetInCU: 0xECC9D, offset: 0xECC9D, size: 0x8, addend: 0x0, symName: __ZNSt3__117__compressed_pairIN5Acorn8TypePool9make_funcMUlvE_ENS_9allocatorIS3_EEE5firstB8ue170006Ev, symObjAddr: 0x33840, symBinAddr: 0x100034B30, symSize: 0x24 }
  - { offsetInCU: 0xECCC9, offset: 0xECCC9, size: 0x8, addend: 0x0, symName: __ZNK5Acorn8TypePool9make_funcMUlvE_clEv, symObjAddr: 0x33B20, symBinAddr: 0x100034E10, symSize: 0x23C }
  - { offsetInCU: 0xECD03, offset: 0xECD03, size: 0x8, addend: 0x0, symName: __ZN5Acorn3PtrC1Ev, symObjAddr: 0x33D5C, symBinAddr: 0x10003504C, symSize: 0x2C }
  - { offsetInCU: 0xECD2D, offset: 0xECD2D, size: 0x8, addend: 0x0, symName: __ZN5Acorn3PtrC2Ev, symObjAddr: 0x33D88, symBinAddr: 0x100035078, symSize: 0x14C }
  - { offsetInCU: 0xECD57, offset: 0xECD57, size: 0x8, addend: 0x0, symName: __ZNSt3__122__compressed_pair_elemIN5Acorn8TypePool9make_funcMUlvE_ELi0ELb1EE5__getB8ue170006Ev, symObjAddr: 0x33ED4, symBinAddr: 0x1000351C4, symSize: 0x14 }
  - { offsetInCU: 0xECDB3, offset: 0xECDB3, size: 0x8, addend: 0x0, symName: __ZNKSt9type_infoeqB8ue170006ERKS_, symObjAddr: 0x33EE8, symBinAddr: 0x1000351D8, symSize: 0x160 }
  - { offsetInCU: 0xECE51, offset: 0xECE51, size: 0x8, addend: 0x0, symName: __ZNSt27__type_info_implementations30__non_unique_arm_rtti_bit_impl21__is_type_name_uniqueB8ue170006Em, symObjAddr: 0x34048, symBinAddr: 0x100035338, symSize: 0x20 }
  - { offsetInCU: 0xECE75, offset: 0xECE75, size: 0x8, addend: 0x0, symName: __ZN4listINSt3__18functionIFvRN5Acorn3PtrEEEEED2Ev, symObjAddr: 0x34068, symBinAddr: 0x100035358, symSize: 0x40 }
  - { offsetInCU: 0xECE9F, offset: 0xECE9F, size: 0x8, addend: 0x0, symName: __ZN4listINSt3__18functionIFvRN5Acorn3PtrEEEEE7destroyEv, symObjAddr: 0x340A8, symBinAddr: 0x100035398, symSize: 0x208 }
  - { offsetInCU: 0xECEC5, offset: 0xECEC5, size: 0x8, addend: 0x0, symName: __ZN4listIN5Acorn3PtrEED2Ev, symObjAddr: 0x342B0, symBinAddr: 0x1000355A0, symSize: 0x40 }
  - { offsetInCU: 0xECEEF, offset: 0xECEEF, size: 0x8, addend: 0x0, symName: __ZN4listIN5Acorn3PtrEE7destroyEv, symObjAddr: 0x342F0, symBinAddr: 0x1000355E0, symSize: 0x17C }
  - { offsetInCU: 0xECF15, offset: 0xECF15, size: 0x8, addend: 0x0, symName: __ZN5Acorn8TypePoolC2ERKS0_, symObjAddr: 0x3446C, symBinAddr: 0x10003575C, symSize: 0x1B8 }
  - { offsetInCU: 0xECF56, offset: 0xECF56, size: 0x8, addend: 0x0, symName: __ZN5Acorn4TypeC2ERKS0_, symObjAddr: 0x34624, symBinAddr: 0x100035914, symSize: 0x178 }
  - { offsetInCU: 0xECF8B, offset: 0xECF8B, size: 0x8, addend: 0x0, symName: __ZN4listIN5Acorn3PtrEEC1ERKS2_, symObjAddr: 0x3479C, symBinAddr: 0x100035A8C, symSize: 0x34 }
  - { offsetInCU: 0xECFC3, offset: 0xECFC3, size: 0x8, addend: 0x0, symName: __ZN4listIiEC1ERKS0_, symObjAddr: 0x347D0, symBinAddr: 0x100035AC0, symSize: 0x34 }
  - { offsetInCU: 0xECFFB, offset: 0xECFFB, size: 0x8, addend: 0x0, symName: __ZN4listINSt3__18functionIFvRN5Acorn3PtrEEEEEC1ERKS7_, symObjAddr: 0x34804, symBinAddr: 0x100035AF4, symSize: 0x34 }
  - { offsetInCU: 0xED033, offset: 0xED033, size: 0x8, addend: 0x0, symName: __ZNSt3__18functionIFN5Acorn3PtrEvEEC1ERKS4_, symObjAddr: 0x34838, symBinAddr: 0x100035B28, symSize: 0x34 }
  - { offsetInCU: 0xED06E, offset: 0xED06E, size: 0x8, addend: 0x0, symName: __ZN4listIN5Acorn3ColEEC1ERKS2_, symObjAddr: 0x3486C, symBinAddr: 0x100035B5C, symSize: 0x34 }
  - { offsetInCU: 0xED0A6, offset: 0xED0A6, size: 0x8, addend: 0x0, symName: __ZN4listIN5Acorn3ColEEC2ERKS2_, symObjAddr: 0x348A0, symBinAddr: 0x100035B90, symSize: 0x49C }
  - { offsetInCU: 0xED0FC, offset: 0xED0FC, size: 0x8, addend: 0x0, symName: __ZN5Acorn3ColC1Ej, symObjAddr: 0x34D3C, symBinAddr: 0x10003602C, symSize: 0x34 }
  - { offsetInCU: 0xED134, offset: 0xED134, size: 0x8, addend: 0x0, symName: __ZN5Acorn3ColaSERKS0_, symObjAddr: 0x34D70, symBinAddr: 0x100036060, symSize: 0x60 }
  - { offsetInCU: 0xED165, offset: 0xED165, size: 0x8, addend: 0x0, symName: __ZN5Acorn3ColC2Ej, symObjAddr: 0x34DD0, symBinAddr: 0x1000360C0, symSize: 0x238 }
  - { offsetInCU: 0xED19D, offset: 0xED19D, size: 0x8, addend: 0x0, symName: __ZNSt3__112basic_stringIcNS_11char_traitsIcEENS_9allocatorIcEEEC1B8ue170006Ev, symObjAddr: 0x35008, symBinAddr: 0x1000362F8, symSize: 0x2C }
  - { offsetInCU: 0xED1C7, offset: 0xED1C7, size: 0x8, addend: 0x0, symName: __ZN3mapINSt3__112basic_stringIcNS0_11char_traitsIcEENS0_9allocatorIcEEEEjEC1Ev, symObjAddr: 0x35034, symBinAddr: 0x100036324, symSize: 0x2C }
  - { offsetInCU: 0xED1F1, offset: 0xED1F1, size: 0x8, addend: 0x0, symName: __ZNSt3__112basic_stringIcNS_11char_traitsIcEENS_9allocatorIcEEEC2B8ue170006Ev, symObjAddr: 0x35060, symBinAddr: 0x100036350, symSize: 0x20C }
  - { offsetInCU: 0xED222, offset: 0xED222, size: 0x8, addend: 0x0, symName: __ZNSt3__117__compressed_pairINS_12basic_stringIcNS_11char_traitsIcEENS_9allocatorIcEEE5__repES5_EC1B8ue170006INS_18__default_init_tagESA_EEOT_OT0_, symObjAddr: 0x3526C, symBinAddr: 0x10003655C, symSize: 0x3C }
  - { offsetInCU: 0xED27A, offset: 0xED27A, size: 0x8, addend: 0x0, symName: __ZNSt3__112basic_stringIcNS_11char_traitsIcEENS_9allocatorIcEEE14__default_initB8ue170006Ev, symObjAddr: 0x352A8, symBinAddr: 0x100036598, symSize: 0x22C }
  - { offsetInCU: 0xED2A1, offset: 0xED2A1, size: 0x8, addend: 0x0, symName: __ZNSt3__117__compressed_pairINS_12basic_stringIcNS_11char_traitsIcEENS_9allocatorIcEEE5__repES5_EC2B8ue170006INS_18__default_init_tagESA_EEOT_OT0_, symObjAddr: 0x354D4, symBinAddr: 0x1000367C4, symSize: 0x3C }
  - { offsetInCU: 0xED2F9, offset: 0xED2F9, size: 0x8, addend: 0x0, symName: __ZNSt3__122__compressed_pair_elemINS_12basic_stringIcNS_11char_traitsIcEENS_9allocatorIcEEE5__repELi0ELb0EEC2B8ue170006ENS_18__default_init_tagE, symObjAddr: 0x35510, symBinAddr: 0x100036800, symSize: 0x14 }
  - { offsetInCU: 0xED32D, offset: 0xED32D, size: 0x8, addend: 0x0, symName: __ZNSt3__122__compressed_pair_elemINS_9allocatorIcEELi1ELb1EEC2B8ue170006ENS_18__default_init_tagE, symObjAddr: 0x35524, symBinAddr: 0x100036814, symSize: 0x2C }
  - { offsetInCU: 0xED361, offset: 0xED361, size: 0x8, addend: 0x0, symName: __ZNSt3__117__compressed_pairINS_12basic_stringIcNS_11char_traitsIcEENS_9allocatorIcEEE5__repES5_E5firstB8ue170006Ev, symObjAddr: 0x35550, symBinAddr: 0x100036840, symSize: 0x24 }
  - { offsetInCU: 0xED387, offset: 0xED387, size: 0x8, addend: 0x0, symName: __ZNSt3__122__compressed_pair_elemINS_12basic_stringIcNS_11char_traitsIcEENS_9allocatorIcEEE5__repELi0ELb0EE5__getB8ue170006Ev, symObjAddr: 0x35574, symBinAddr: 0x100036864, symSize: 0x14 }
  - { offsetInCU: 0xED3AD, offset: 0xED3AD, size: 0x8, addend: 0x0, symName: __ZN3mapINSt3__112basic_stringIcNS0_11char_traitsIcEENS0_9allocatorIcEEEEjEC2Ev, symObjAddr: 0x35588, symBinAddr: 0x100036878, symSize: 0x414 }
  - { offsetInCU: 0xED3F7, offset: 0xED3F7, size: 0x8, addend: 0x0, symName: __ZN4listI7keylistINSt3__112basic_stringIcNS1_11char_traitsIcEENS1_9allocatorIcEEEEjEEC1Ev, symObjAddr: 0x3599C, symBinAddr: 0x100036C8C, symSize: 0x2C }
  - { offsetInCU: 0xED427, offset: 0xED427, size: 0x8, addend: 0x0, symName: __ZN4listI7keylistINSt3__112basic_stringIcNS1_11char_traitsIcEENS1_9allocatorIcEEEEjEE4pushIS8_EEvOT_, symObjAddr: 0x359C8, symBinAddr: 0x100036CB8, symSize: 0x644 }
  - { offsetInCU: 0xED48F, offset: 0xED48F, size: 0x8, addend: 0x0, symName: __ZN7keylistINSt3__112basic_stringIcNS0_11char_traitsIcEENS0_9allocatorIcEEEEjEC1Ev, symObjAddr: 0x3600C, symBinAddr: 0x1000372FC, symSize: 0x2C }
  - { offsetInCU: 0xED4BB, offset: 0xED4BB, size: 0x8, addend: 0x0, symName: __ZN4listI7keylistINSt3__112basic_stringIcNS1_11char_traitsIcEENS1_9allocatorIcEEEEjEEC2Ev, symObjAddr: 0x36038, symBinAddr: 0x100037328, symSize: 0xD4 }
  - { offsetInCU: 0xED4E5, offset: 0xED4E5, size: 0x8, addend: 0x0, symName: __ZN7keylistINSt3__112basic_stringIcNS0_11char_traitsIcEENS0_9allocatorIcEEEEjEaSEOS7_, symObjAddr: 0x3610C, symBinAddr: 0x1000373FC, symSize: 0x34 }
  - { offsetInCU: 0xED516, offset: 0xED516, size: 0x8, addend: 0x0, symName: __ZN7keylistINSt3__112basic_stringIcNS0_11char_traitsIcEENS0_9allocatorIcEEEEjEC1EOS7_, symObjAddr: 0x36140, symBinAddr: 0x100037430, symSize: 0x34 }
  - { offsetInCU: 0xED54B, offset: 0xED54B, size: 0x8, addend: 0x0, symName: __ZN4listI5entryINSt3__112basic_stringIcNS1_11char_traitsIcEENS1_9allocatorIcEEEEjEEaSEOS9_, symObjAddr: 0x36174, symBinAddr: 0x100037464, symSize: 0x3B4 }
  - { offsetInCU: 0xED58E, offset: 0xED58E, size: 0x8, addend: 0x0, symName: __ZN7keylistINSt3__112basic_stringIcNS0_11char_traitsIcEENS0_9allocatorIcEEEEjEC2EOS7_, symObjAddr: 0x36528, symBinAddr: 0x100037818, symSize: 0x34 }
  - { offsetInCU: 0xED5C3, offset: 0xED5C3, size: 0x8, addend: 0x0, symName: __ZN4listI5entryINSt3__112basic_stringIcNS1_11char_traitsIcEENS1_9allocatorIcEEEEjEEC2EOS9_, symObjAddr: 0x3655C, symBinAddr: 0x10003784C, symSize: 0x278 }
  - { offsetInCU: 0xED5FB, offset: 0xED5FB, size: 0x8, addend: 0x0, symName: __ZN7keylistINSt3__112basic_stringIcNS0_11char_traitsIcEENS0_9allocatorIcEEEEjEC2Ev, symObjAddr: 0x367D4, symBinAddr: 0x100037AC4, symSize: 0x2C }
  - { offsetInCU: 0xED627, offset: 0xED627, size: 0x8, addend: 0x0, symName: __ZN4listI5entryINSt3__112basic_stringIcNS1_11char_traitsIcEENS1_9allocatorIcEEEEjEEC2Ev, symObjAddr: 0x36800, symBinAddr: 0x100037AF0, symSize: 0xD4 }
  - { offsetInCU: 0xED662, offset: 0xED662, size: 0x8, addend: 0x0, symName: __ZN3mapINSt3__112basic_stringIcNS0_11char_traitsIcEENS0_9allocatorIcEEEEjEaSERKS7_, symObjAddr: 0x368D4, symBinAddr: 0x100037BC4, symSize: 0x4C }
  - { offsetInCU: 0xED693, offset: 0xED693, size: 0x8, addend: 0x0, symName: __ZN4listI7keylistINSt3__112basic_stringIcNS1_11char_traitsIcEENS1_9allocatorIcEEEEjEEaSERKS9_, symObjAddr: 0x36920, symBinAddr: 0x100037C10, symSize: 0x504 }
  - { offsetInCU: 0xED6DC, offset: 0xED6DC, size: 0x8, addend: 0x0, symName: __ZN7keylistINSt3__112basic_stringIcNS0_11char_traitsIcEENS0_9allocatorIcEEEEjEaSERKS7_, symObjAddr: 0x36E24, symBinAddr: 0x100038114, symSize: 0x34 }
  - { offsetInCU: 0xED70D, offset: 0xED70D, size: 0x8, addend: 0x0, symName: __ZN4listI5entryINSt3__112basic_stringIcNS1_11char_traitsIcEENS1_9allocatorIcEEEEjEEaSERKS9_, symObjAddr: 0x36E58, symBinAddr: 0x100038148, symSize: 0x480 }
  - { offsetInCU: 0xED75F, offset: 0xED75F, size: 0x8, addend: 0x0, symName: __ZN5entryINSt3__112basic_stringIcNS0_11char_traitsIcEENS0_9allocatorIcEEEEjEC1Ev, symObjAddr: 0x372D8, symBinAddr: 0x1000385C8, symSize: 0x2C }
  - { offsetInCU: 0xED789, offset: 0xED789, size: 0x8, addend: 0x0, symName: __ZN5entryINSt3__112basic_stringIcNS0_11char_traitsIcEENS0_9allocatorIcEEEEjEaSERKS7_, symObjAddr: 0x37304, symBinAddr: 0x1000385F4, symSize: 0x114 }
  - { offsetInCU: 0xED7BD, offset: 0xED7BD, size: 0x8, addend: 0x0, symName: __ZN5entryINSt3__112basic_stringIcNS0_11char_traitsIcEENS0_9allocatorIcEEEEjEC2Ev, symObjAddr: 0x37418, symBinAddr: 0x100038708, symSize: 0x2C }
  - { offsetInCU: 0xED7E7, offset: 0xED7E7, size: 0x8, addend: 0x0, symName: __ZN4listIN5Acorn3PtrEEC2ERKS2_, symObjAddr: 0x37444, symBinAddr: 0x100038734, symSize: 0x40C }
  - { offsetInCU: 0xED83D, offset: 0xED83D, size: 0x8, addend: 0x0, symName: __ZN4listIiEC2ERKS0_, symObjAddr: 0x37850, symBinAddr: 0x100038B40, symSize: 0x44C }
  - { offsetInCU: 0xED893, offset: 0xED893, size: 0x8, addend: 0x0, symName: __ZN4listINSt3__18functionIFvRN5Acorn3PtrEEEEEC2ERKS7_, symObjAddr: 0x37C9C, symBinAddr: 0x100038F8C, symSize: 0x47C }
  - { offsetInCU: 0xED8E9, offset: 0xED8E9, size: 0x8, addend: 0x0, symName: __ZNSt3__18functionIFvRN5Acorn3PtrEEEC1B8ue170006Ev, symObjAddr: 0x38118, symBinAddr: 0x100039408, symSize: 0x2C }
  - { offsetInCU: 0xED913, offset: 0xED913, size: 0x8, addend: 0x0, symName: __ZNSt3__18functionIFvRN5Acorn3PtrEEEaSERKS5_, symObjAddr: 0x38144, symBinAddr: 0x100039434, symSize: 0x218 }
  - { offsetInCU: 0xED94C, offset: 0xED94C, size: 0x8, addend: 0x0, symName: __ZNSt3__18functionIFvRN5Acorn3PtrEEEC2B8ue170006Ev, symObjAddr: 0x3835C, symBinAddr: 0x10003964C, symSize: 0x2C }
  - { offsetInCU: 0xED976, offset: 0xED976, size: 0x8, addend: 0x0, symName: __ZNSt3__110__function12__value_funcIFvRN5Acorn3PtrEEEC1B8ue170006Ev, symObjAddr: 0x38388, symBinAddr: 0x100039678, symSize: 0x2C }
  - { offsetInCU: 0xED9A0, offset: 0xED9A0, size: 0x8, addend: 0x0, symName: __ZNSt3__110__function12__value_funcIFvRN5Acorn3PtrEEEC2B8ue170006Ev, symObjAddr: 0x383B4, symBinAddr: 0x1000396A4, symSize: 0x64 }
  - { offsetInCU: 0xED9CA, offset: 0xED9CA, size: 0x8, addend: 0x0, symName: __ZNSt3__18functionIFvRN5Acorn3PtrEEEC1ERKS5_, symObjAddr: 0x38418, symBinAddr: 0x100039708, symSize: 0x34 }
  - { offsetInCU: 0xEDA05, offset: 0xEDA05, size: 0x8, addend: 0x0, symName: __ZNSt3__18functionIFvRN5Acorn3PtrEEE4swapERS5_, symObjAddr: 0x3844C, symBinAddr: 0x10003973C, symSize: 0x2C }
  - { offsetInCU: 0xEDA3C, offset: 0xEDA3C, size: 0x8, addend: 0x0, symName: __ZNSt3__18functionIFvRN5Acorn3PtrEEEC2ERKS5_, symObjAddr: 0x38478, symBinAddr: 0x100039768, symSize: 0x34 }
  - { offsetInCU: 0xEDA77, offset: 0xEDA77, size: 0x8, addend: 0x0, symName: __ZNSt3__110__function12__value_funcIFvRN5Acorn3PtrEEEC1B8ue170006ERKS6_, symObjAddr: 0x384AC, symBinAddr: 0x10003979C, symSize: 0x34 }
  - { offsetInCU: 0xEDAB0, offset: 0xEDAB0, size: 0x8, addend: 0x0, symName: __ZNSt3__110__function12__value_funcIFvRN5Acorn3PtrEEEC2B8ue170006ERKS6_, symObjAddr: 0x384E0, symBinAddr: 0x1000397D0, symSize: 0x37C }
  - { offsetInCU: 0xEDAE9, offset: 0xEDAE9, size: 0x8, addend: 0x0, symName: __ZNSt3__110__function12__value_funcIFvRN5Acorn3PtrEEE9__as_baseB8ue170006EPv, symObjAddr: 0x3885C, symBinAddr: 0x100039B4C, symSize: 0x14 }
  - { offsetInCU: 0xEDB0D, offset: 0xEDB0D, size: 0x8, addend: 0x0, symName: __ZNSt3__110__function12__value_funcIFvRN5Acorn3PtrEEE4swapB8ue170006ERS6_, symObjAddr: 0x38870, symBinAddr: 0x100039B60, symSize: 0xDAC }
  - { offsetInCU: 0xEDB6D, offset: 0xEDB6D, size: 0x8, addend: 0x0, symName: __ZNSt3__18functionIFN5Acorn3PtrEvEEC2ERKS4_, symObjAddr: 0x39750, symBinAddr: 0x10003AA40, symSize: 0x34 }
  - { offsetInCU: 0xEDBA8, offset: 0xEDBA8, size: 0x8, addend: 0x0, symName: __ZNSt3__110__function12__value_funcIFN5Acorn3PtrEvEEC1B8ue170006ERKS5_, symObjAddr: 0x39784, symBinAddr: 0x10003AA74, symSize: 0x34 }
  - { offsetInCU: 0xEDBE1, offset: 0xEDBE1, size: 0x8, addend: 0x0, symName: __ZNSt3__110__function12__value_funcIFN5Acorn3PtrEvEEC2B8ue170006ERKS5_, symObjAddr: 0x397B8, symBinAddr: 0x10003AAA8, symSize: 0x37C }
  - { offsetInCU: 0xEDC1A, offset: 0xEDC1A, size: 0x8, addend: 0x0, symName: __ZNSt3__110__function12__value_funcIFN5Acorn3PtrEvEE9__as_baseB8ue170006EPv, symObjAddr: 0x39B34, symBinAddr: 0x10003AE24, symSize: 0x14 }
  - { offsetInCU: 0xEDC3E, offset: 0xEDC3E, size: 0x8, addend: 0x0, symName: __ZN5Acorn8TypePoolD2Ev, symObjAddr: 0x39B48, symBinAddr: 0x10003AE38, symSize: 0x5C }
  - { offsetInCU: 0xEDC6B, offset: 0xEDC6B, size: 0x8, addend: 0x0, symName: __ZNSt3__18functionIFN5Acorn3PtrEvEED1Ev, symObjAddr: 0x39BA4, symBinAddr: 0x10003AE94, symSize: 0x2C }
  - { offsetInCU: 0xEDC97, offset: 0xEDC97, size: 0x8, addend: 0x0, symName: __ZNSt3__18functionIFN5Acorn3PtrEvEED2Ev, symObjAddr: 0x39BD0, symBinAddr: 0x10003AEC0, symSize: 0x2C }
  - { offsetInCU: 0xEDCC3, offset: 0xEDCC3, size: 0x8, addend: 0x0, symName: __ZNSt3__110__function12__value_funcIFN5Acorn3PtrEvEED1B8ue170006Ev, symObjAddr: 0x39BFC, symBinAddr: 0x10003AEEC, symSize: 0x2C }
  - { offsetInCU: 0xEDCED, offset: 0xEDCED, size: 0x8, addend: 0x0, symName: __ZNSt3__110__function12__value_funcIFN5Acorn3PtrEvEED2B8ue170006Ev, symObjAddr: 0x39C28, symBinAddr: 0x10003AF18, symSize: 0x24C }
  - { offsetInCU: 0xEDD17, offset: 0xEDD17, size: 0x8, addend: 0x0, symName: __ZN5Acorn3PtrC2Ejjj, symObjAddr: 0x39E74, symBinAddr: 0x10003B164, symSize: 0x17C }
  - { offsetInCU: 0xEDD6B, offset: 0xEDD6B, size: 0x8, addend: 0x0, symName: __ZN5Acorn4Type10add_columnEm, symObjAddr: 0x39FF0, symBinAddr: 0x10003B2E0, symSize: 0x340 }
  - { offsetInCU: 0xEDDA2, offset: 0xEDDA2, size: 0x8, addend: 0x0, symName: __ZN4listIN5Acorn3ColEE4lastEv, symObjAddr: 0x3A330, symBinAddr: 0x10003B620, symSize: 0xB4 }
  - { offsetInCU: 0xEDDCE, offset: 0xEDDCE, size: 0x8, addend: 0x0, symName: __ZN4listIN5Acorn3ColEE4pushIS1_EEvOT_, symObjAddr: 0x3A3E4, symBinAddr: 0x10003B6D4, symSize: 0x648 }
  - { offsetInCU: 0xEDE36, offset: 0xEDE36, size: 0x8, addend: 0x0, symName: __ZN5Acorn3ColaSEOS0_, symObjAddr: 0x3AA2C, symBinAddr: 0x10003BD1C, symSize: 0x60 }
  - { offsetInCU: 0xEDE67, offset: 0xEDE67, size: 0x8, addend: 0x0, symName: __ZN5Acorn3ColC1EOS0_, symObjAddr: 0x3AA8C, symBinAddr: 0x10003BD7C, symSize: 0x34 }
  - { offsetInCU: 0xEDEA2, offset: 0xEDEA2, size: 0x8, addend: 0x0, symName: __ZN3mapINSt3__112basic_stringIcNS0_11char_traitsIcEENS0_9allocatorIcEEEEjEaSEOS7_, symObjAddr: 0x3AAC0, symBinAddr: 0x10003BDB0, symSize: 0x4C }
  - { offsetInCU: 0xEDED3, offset: 0xEDED3, size: 0x8, addend: 0x0, symName: __ZN4listI7keylistINSt3__112basic_stringIcNS1_11char_traitsIcEENS1_9allocatorIcEEEEjEEaSEOS9_, symObjAddr: 0x3AB0C, symBinAddr: 0x10003BDFC, symSize: 0x3BC }
  - { offsetInCU: 0xEDF16, offset: 0xEDF16, size: 0x8, addend: 0x0, symName: __ZN5Acorn3ColC2EOS0_, symObjAddr: 0x3AEC8, symBinAddr: 0x10003C1B8, symSize: 0x60 }
  - { offsetInCU: 0xEDF4B, offset: 0xEDF4B, size: 0x8, addend: 0x0, symName: __ZNSt3__112basic_stringIcNS_11char_traitsIcEENS_9allocatorIcEEEC1B8ue170006EOS5_, symObjAddr: 0x3AF28, symBinAddr: 0x10003C218, symSize: 0x34 }
  - { offsetInCU: 0xEDF84, offset: 0xEDF84, size: 0x8, addend: 0x0, symName: __ZN3mapINSt3__112basic_stringIcNS0_11char_traitsIcEENS0_9allocatorIcEEEEjEC1EOS7_, symObjAddr: 0x3AF5C, symBinAddr: 0x10003C24C, symSize: 0x34 }
  - { offsetInCU: 0xEDFB9, offset: 0xEDFB9, size: 0x8, addend: 0x0, symName: __ZNSt3__112basic_stringIcNS_11char_traitsIcEENS_9allocatorIcEEEC2B8ue170006EOS5_, symObjAddr: 0x3AF90, symBinAddr: 0x10003C280, symSize: 0x40 }
  - { offsetInCU: 0xEDFF2, offset: 0xEDFF2, size: 0x8, addend: 0x0, symName: __ZN3mapINSt3__112basic_stringIcNS0_11char_traitsIcEENS0_9allocatorIcEEEEjEC2EOS7_, symObjAddr: 0x3AFD0, symBinAddr: 0x10003C2C0, symSize: 0x4C }
  - { offsetInCU: 0xEE027, offset: 0xEE027, size: 0x8, addend: 0x0, symName: __ZN4listI7keylistINSt3__112basic_stringIcNS1_11char_traitsIcEENS1_9allocatorIcEEEEjEEC1EOS9_, symObjAddr: 0x3B01C, symBinAddr: 0x10003C30C, symSize: 0x34 }
  - { offsetInCU: 0xEE05F, offset: 0xEE05F, size: 0x8, addend: 0x0, symName: __ZN4listI7keylistINSt3__112basic_stringIcNS1_11char_traitsIcEENS1_9allocatorIcEEEEjEEC2EOS9_, symObjAddr: 0x3B050, symBinAddr: 0x10003C340, symSize: 0x278 }
  - { offsetInCU: 0xEE097, offset: 0xEE097, size: 0x8, addend: 0x0, symName: __ZN5Acorn3Col12push_defaultEv, symObjAddr: 0x3B2C8, symBinAddr: 0x10003C5B8, symSize: 0x1C0 }
  - { offsetInCU: 0xEE0CC, offset: 0xEE0CC, size: 0x8, addend: 0x0, symName: __ZN5Acorn3Col6resizeEj, symObjAddr: 0x3B488, symBinAddr: 0x10003C778, symSize: 0x130 }
  - { offsetInCU: 0xEE100, offset: 0xEE100, size: 0x8, addend: 0x0, symName: __ZN5Acorn3Col7reserveEj, symObjAddr: 0x3B5B8, symBinAddr: 0x10003C8A8, symSize: 0x37C }
  - { offsetInCU: 0xEE161, offset: 0xEE161, size: 0x8, addend: 0x0, symName: __ZN5Acorn8TypePool8get_nextEv, symObjAddr: 0x3B934, symBinAddr: 0x10003CC24, symSize: 0x198 }
  - { offsetInCU: 0xEE187, offset: 0xEE187, size: 0x8, addend: 0x0, symName: __ZN4listIN5Acorn3PtrEE3getEm, symObjAddr: 0x3BACC, symBinAddr: 0x10003CDBC, symSize: 0x74 }
  - { offsetInCU: 0xEE1BC, offset: 0xEE1BC, size: 0x8, addend: 0x0, symName: __ZNK4listINSt3__18functionIFvRN5Acorn3PtrEEEEE4sizeEv, symObjAddr: 0x3BB40, symBinAddr: 0x10003CE30, symSize: 0x64 }
  - { offsetInCU: 0xEE1E2, offset: 0xEE1E2, size: 0x8, addend: 0x0, symName: __ZN4listINSt3__18functionIFvRN5Acorn3PtrEEEEEixEm, symObjAddr: 0x3BBA4, symBinAddr: 0x10003CE94, symSize: 0x6C }
  - { offsetInCU: 0xEE217, offset: 0xEE217, size: 0x8, addend: 0x0, symName: __ZNKSt3__18functionIFvRN5Acorn3PtrEEEclES3_, symObjAddr: 0x3BC10, symBinAddr: 0x10003CF00, symSize: 0x2C }
  - { offsetInCU: 0xEE24E, offset: 0xEE24E, size: 0x8, addend: 0x0, symName: __ZNKSt3__18functionIFN5Acorn3PtrEvEEclEv, symObjAddr: 0x3BC3C, symBinAddr: 0x10003CF2C, symSize: 0x2BC }
  - { offsetInCU: 0xEE277, offset: 0xEE277, size: 0x8, addend: 0x0, symName: __ZN5Acorn8TypePool5storeERNS_3PtrE, symObjAddr: 0x3BEF8, symBinAddr: 0x10003D1E8, symSize: 0x114 }
  - { offsetInCU: 0xEE2CA, offset: 0xEE2CA, size: 0x8, addend: 0x0, symName: __ZN4listIN5Acorn3PtrEE4lastEv, symObjAddr: 0x3C00C, symBinAddr: 0x10003D2FC, symSize: 0xB4 }
  - { offsetInCU: 0xEE2F0, offset: 0xEE2F0, size: 0x8, addend: 0x0, symName: __ZN4listIiE3getEm, symObjAddr: 0x3C0C0, symBinAddr: 0x10003D3B0, symSize: 0x6C }
  - { offsetInCU: 0xEE325, offset: 0xEE325, size: 0x8, addend: 0x0, symName: __ZNKSt3__110__function12__value_funcIFvRN5Acorn3PtrEEEclB8ue170006ES4_, symObjAddr: 0x3C12C, symBinAddr: 0x10003D41C, symSize: 0x148 }
  - { offsetInCU: 0xEE360, offset: 0xEE360, size: 0x8, addend: 0x0, symName: __ZNSt3__117bad_function_callC1Ev, symObjAddr: 0x3C2C0, symBinAddr: 0x10003D5B0, symSize: 0x2C }
  - { offsetInCU: 0xEE38C, offset: 0xEE38C, size: 0x8, addend: 0x0, symName: __ZNSt3__117bad_function_callD1Ev, symObjAddr: 0x3C2EC, symBinAddr: 0x10003D5DC, symSize: 0x2C }
  - { offsetInCU: 0xEE3B6, offset: 0xEE3B6, size: 0x8, addend: 0x0, symName: __ZNSt3__117bad_function_callC2Ev, symObjAddr: 0x3C318, symBinAddr: 0x10003D608, symSize: 0x84 }
  - { offsetInCU: 0xEE3E2, offset: 0xEE3E2, size: 0x8, addend: 0x0, symName: __ZNSt9exceptionC2B8ue170006Ev, symObjAddr: 0x3C39C, symBinAddr: 0x10003D68C, symSize: 0x74 }
  - { offsetInCU: 0xEE40C, offset: 0xEE40C, size: 0x8, addend: 0x0, symName: __ZNSt3__117bad_function_callD0Ev, symObjAddr: 0x3C410, symBinAddr: 0x10003D700, symSize: 0x30 }
  - { offsetInCU: 0xEE436, offset: 0xEE436, size: 0x8, addend: 0x0, symName: __ZNSt3__117bad_function_callD2Ev, symObjAddr: 0x3C440, symBinAddr: 0x10003D730, symSize: 0x2C }
  - { offsetInCU: 0xEE460, offset: 0xEE460, size: 0x8, addend: 0x0, symName: __ZNKSt3__110__function12__value_funcIFN5Acorn3PtrEvEEclB8ue170006Ev, symObjAddr: 0x3C46C, symBinAddr: 0x10003D75C, symSize: 0x3C0 }
  - { offsetInCU: 0xEE487, offset: 0xEE487, size: 0x8, addend: 0x0, symName: __ZNK4listIN5Acorn3PtrEE4sizeEv, symObjAddr: 0x3C82C, symBinAddr: 0x10003DB1C, symSize: 0x64 }
  - { offsetInCU: 0xEE4AD, offset: 0xEE4AD, size: 0x8, addend: 0x0, symName: __ZN4listIN5Acorn3PtrEE4pushIRS1_EEvOT_, symObjAddr: 0x3C890, symBinAddr: 0x10003DB80, symSize: 0x4EC }
  - { offsetInCU: 0xEE515, offset: 0xEE515, size: 0x8, addend: 0x0, symName: __ZN5Acorn4NodeC2ENS_3PtrE, symObjAddr: 0x3CD7C, symBinAddr: 0x10003E06C, symSize: 0x4AC }
  - { offsetInCU: 0xEE553, offset: 0xEE553, size: 0x8, addend: 0x0, symName: __ZN5Acorn3Col3setEmPKv, symObjAddr: 0x3D228, symBinAddr: 0x10003E518, symSize: 0x164 }
  - { offsetInCU: 0xEE595, offset: 0xEE595, size: 0x8, addend: 0x0, symName: __ZN5Acorn5ValueC2ENS_3PtrE, symObjAddr: 0x3D38C, symBinAddr: 0x10003E67C, symSize: 0x4AC }
  - { offsetInCU: 0xEE5D3, offset: 0xEE5D3, size: 0x8, addend: 0x0, symName: __ZN5Acorn6stringC2ENS_3PtrE, symObjAddr: 0x3D838, symBinAddr: 0x10003EB28, symSize: 0x250 }
  - { offsetInCU: 0xEE611, offset: 0xEE611, size: 0x8, addend: 0x0, symName: __ZNSt3__112basic_stringIcNS_11char_traitsIcEENS_9allocatorIcEEEC1B8ue170006EPKcm, symObjAddr: 0x3DA88, symBinAddr: 0x10003ED78, symSize: 0x3C }
  - { offsetInCU: 0xEE659, offset: 0xEE659, size: 0x8, addend: 0x0, symName: __ZNSt3__112basic_stringIcNS_11char_traitsIcEENS_9allocatorIcEEEC2B8ue170006EPKcm, symObjAddr: 0x3DAC4, symBinAddr: 0x10003EDB4, symSize: 0x204 }
  - { offsetInCU: 0xEE6A4, offset: 0xEE6A4, size: 0x8, addend: 0x0, symName: __ZNSt3__111__wrap_iterIPKcEC2B8ue170006IPcEERKNS0_IT_EEPNS_9enable_ifIXsr14is_convertibleIS6_S2_EE5valueEvE4typeE, symObjAddr: 0x3DCC8, symBinAddr: 0x10003EFB8, symSize: 0x84 }
  - { offsetInCU: 0xEE6EF, offset: 0xEE6EF, size: 0x8, addend: 0x0, symName: __ZNKSt3__111__wrap_iterIPcE4baseB8ue170006Ev, symObjAddr: 0x3DD4C, symBinAddr: 0x10003F03C, symSize: 0x60 }
  - { offsetInCU: 0xEE715, offset: 0xEE715, size: 0x8, addend: 0x0, symName: __ZN5Acorn3Col3getEj, symObjAddr: 0x3DDAC, symBinAddr: 0x10003F09C, symSize: 0xE4 }
  - { offsetInCU: 0xEE749, offset: 0xEE749, size: 0x8, addend: 0x0, symName: __ZN5entryINSt3__112basic_stringIcNS0_11char_traitsIcEENS0_9allocatorIcEEEEjEC2ERKS7_, symObjAddr: 0x3DE90, symBinAddr: 0x10003F180, symSize: 0x11C }
  - { offsetInCU: 0xEE781, offset: 0xEE781, size: 0x8, addend: 0x0, symName: __ZN5entryINSt3__112basic_stringIcNS0_11char_traitsIcEENS0_9allocatorIcEEEEjED2Ev, symObjAddr: 0x3DFAC, symBinAddr: 0x10003F29C, symSize: 0x2C }
  - { offsetInCU: 0xEE7AD, offset: 0xEE7AD, size: 0x8, addend: 0x0, symName: __ZN5Acorn5Value14sub_values_ptrEv, symObjAddr: 0x3DFD8, symBinAddr: 0x10003F2C8, symSize: 0x128 }
  - { offsetInCU: 0xEE7D3, offset: 0xEE7D3, size: 0x8, addend: 0x0, symName: __ZN5Acorn10value_listC1ENS_3PtrE, symObjAddr: 0x3E100, symBinAddr: 0x10003F3F0, symSize: 0x2B8 }
  - { offsetInCU: 0xEE811, offset: 0xEE811, size: 0x8, addend: 0x0, symName: __ZN5Acorn10value_listC2ENS_3PtrE, symObjAddr: 0x3E3B8, symBinAddr: 0x10003F6A8, symSize: 0x250 }
  - { offsetInCU: 0xEE84F, offset: 0xEE84F, size: 0x8, addend: 0x0, symName: __ZN5Acorn10value_list3colEv, symObjAddr: 0x3E608, symBinAddr: 0x10003F8F8, symSize: 0x110 }
  - { offsetInCU: 0xEE875, offset: 0xEE875, size: 0x8, addend: 0x0, symName: __ZN5Acorn3Col5emptyEv, symObjAddr: 0x3E718, symBinAddr: 0x10003FA08, symSize: 0x98 }
  - { offsetInCU: 0xEE89B, offset: 0xEE89B, size: 0x8, addend: 0x0, symName: __ZN5Acorn5Value9quals_ptrEv, symObjAddr: 0x3E7B0, symBinAddr: 0x10003FAA0, symSize: 0x128 }
  - { offsetInCU: 0xEE8C1, offset: 0xEE8C1, size: 0x8, addend: 0x0, symName: __ZN5Acorn9node_listC1ENS_3PtrE, symObjAddr: 0x3E8D8, symBinAddr: 0x10003FBC8, symSize: 0x2B8 }
  - { offsetInCU: 0xEE8FF, offset: 0xEE8FF, size: 0x8, addend: 0x0, symName: __ZN5Acorn9node_listC2ENS_3PtrE, symObjAddr: 0x3EB90, symBinAddr: 0x10003FE80, symSize: 0x250 }
  - { offsetInCU: 0xEE93D, offset: 0xEE93D, size: 0x8, addend: 0x0, symName: __ZN5Acorn9node_list3colEv, symObjAddr: 0x3EDE0, symBinAddr: 0x1000400D0, symSize: 0x110 }
  - { offsetInCU: 0xEE963, offset: 0xEE963, size: 0x8, addend: 0x0, symName: __ZN5Acorn4Node8name_ptrEv, symObjAddr: 0x3EEF0, symBinAddr: 0x1000401E0, symSize: 0x124 }
  - { offsetInCU: 0xEE989, offset: 0xEE989, size: 0x8, addend: 0x0, symName: __ZN5Acorn4Node9value_ptrEv, symObjAddr: 0x3F014, symBinAddr: 0x100040304, symSize: 0x348 }
  - { offsetInCU: 0xEE9B0, offset: 0xEE9B0, size: 0x8, addend: 0x0, symName: __ZN5Acorn4Node12children_ptrEv, symObjAddr: 0x3F35C, symBinAddr: 0x10004064C, symSize: 0x124 }
  - { offsetInCU: 0xEE9D6, offset: 0xEE9D6, size: 0x8, addend: 0x0, symName: __ZN5Acorn4Node10scopes_ptrEv, symObjAddr: 0x3F480, symBinAddr: 0x100040770, symSize: 0x124 }
  - { offsetInCU: 0xEE9FC, offset: 0xEE9FC, size: 0x8, addend: 0x0, symName: __ZN5Acorn4Node12in_scope_ptrEv, symObjAddr: 0x3F5A4, symBinAddr: 0x100040894, symSize: 0x124 }
  - { offsetInCU: 0xEEA22, offset: 0xEEA22, size: 0x8, addend: 0x0, symName: __ZN5Acorn4Node9owner_ptrEv, symObjAddr: 0x3F6C8, symBinAddr: 0x1000409B8, symSize: 0x124 }
  - { offsetInCU: 0xEEA48, offset: 0xEEA48, size: 0x8, addend: 0x0, symName: __ZN5Acorn11value_tableC2Ev, symObjAddr: 0x3F7EC, symBinAddr: 0x100040ADC, symSize: 0x2C }
  - { offsetInCU: 0xEEA72, offset: 0xEEA72, size: 0x8, addend: 0x0, symName: __ZN5Acorn6stringaSERKNSt3__112basic_stringIcNS1_11char_traitsIcEENS1_9allocatorIcEEEE, symObjAddr: 0x3F818, symBinAddr: 0x100040B08, symSize: 0x3C }
  - { offsetInCU: 0xEEAA7, offset: 0xEEAA7, size: 0x8, addend: 0x0, symName: __ZN5Acorn3Col5clearEv, symObjAddr: 0x3F854, symBinAddr: 0x100040B44, symSize: 0x8C }
  - { offsetInCU: 0xEEACD, offset: 0xEEACD, size: 0x8, addend: 0x0, symName: __ZN5Acorn6string4pushERKNSt3__112basic_stringIcNS1_11char_traitsIcEENS1_9allocatorIcEEEE, symObjAddr: 0x3F8E0, symBinAddr: 0x100040BD0, symSize: 0x50 }
  - { offsetInCU: 0xEEB02, offset: 0xEEB02, size: 0x8, addend: 0x0, symName: __ZN5Acorn6string4pushEPKcj, symObjAddr: 0x3F930, symBinAddr: 0x100040C20, symSize: 0x7C }
  - { offsetInCU: 0xEEB64, offset: 0xEEB64, size: 0x8, addend: 0x0, symName: __ZNKSt3__112basic_stringIcNS_11char_traitsIcEENS_9allocatorIcEEE4dataB8ue170006Ev, symObjAddr: 0x3F9AC, symBinAddr: 0x100040C9C, symSize: 0x28 }
  - { offsetInCU: 0xEEB8A, offset: 0xEEB8A, size: 0x8, addend: 0x0, symName: __ZN5Acorn3Col4pushEPKv, symObjAddr: 0x3F9D4, symBinAddr: 0x100040CC4, symSize: 0x1CC }
  - { offsetInCU: 0xEEBCD, offset: 0xEEBCD, size: 0x8, addend: 0x0, symName: __ZNKSt3__112basic_stringIcNS_11char_traitsIcEENS_9allocatorIcEEE13__get_pointerB8ue170006Ev, symObjAddr: 0x3FBB4, symBinAddr: 0x100040EA4, symSize: 0x54 }
  - { offsetInCU: 0xEEBF3, offset: 0xEEBF3, size: 0x8, addend: 0x0, symName: __ZNKSt3__112basic_stringIcNS_11char_traitsIcEENS_9allocatorIcEEE9__is_longB8ue170006Ev, symObjAddr: 0x3FC08, symBinAddr: 0x100040EF8, symSize: 0xA4 }
  - { offsetInCU: 0xEEC19, offset: 0xEEC19, size: 0x8, addend: 0x0, symName: __ZNKSt3__112basic_stringIcNS_11char_traitsIcEENS_9allocatorIcEEE18__get_long_pointerB8ue170006Ev, symObjAddr: 0x3FCAC, symBinAddr: 0x100040F9C, symSize: 0x6C }
  - { offsetInCU: 0xEEC3F, offset: 0xEEC3F, size: 0x8, addend: 0x0, symName: __ZNKSt3__112basic_stringIcNS_11char_traitsIcEENS_9allocatorIcEEE19__get_short_pointerB8ue170006Ev, symObjAddr: 0x3FD18, symBinAddr: 0x100041008, symSize: 0x28 }
  - { offsetInCU: 0xEEC65, offset: 0xEEC65, size: 0x8, addend: 0x0, symName: __ZNKSt3__117__compressed_pairINS_12basic_stringIcNS_11char_traitsIcEENS_9allocatorIcEEE5__repES5_E5firstB8ue170006Ev, symObjAddr: 0x3FD40, symBinAddr: 0x100041030, symSize: 0x24 }
  - { offsetInCU: 0xEEC8B, offset: 0xEEC8B, size: 0x8, addend: 0x0, symName: __ZNKSt3__122__compressed_pair_elemINS_12basic_stringIcNS_11char_traitsIcEENS_9allocatorIcEEE5__repELi0ELb0EE5__getB8ue170006Ev, symObjAddr: 0x3FD64, symBinAddr: 0x100041054, symSize: 0x14 }
  - { offsetInCU: 0xEECB1, offset: 0xEECB1, size: 0x8, addend: 0x0, symName: __ZNSt3__114pointer_traitsIPKcE10pointer_toB8ue170006ERS1_, symObjAddr: 0x3FD78, symBinAddr: 0x100041068, symSize: 0x14 }
  - { offsetInCU: 0xEECD4, offset: 0xEECD4, size: 0x8, addend: 0x0, symName: __ZN5Acorn4Node15value_table_ptrEv, symObjAddr: 0x3FD8C, symBinAddr: 0x10004107C, symSize: 0x124 }
  - { offsetInCU: 0xEECFA, offset: 0xEECFA, size: 0x8, addend: 0x0, symName: __ZN5Acorn11value_tableC1ENS_3PtrE, symObjAddr: 0x3FEB0, symBinAddr: 0x1000411A0, symSize: 0x2B8 }
  - { offsetInCU: 0xEED38, offset: 0xEED38, size: 0x8, addend: 0x0, symName: __ZN5Acorn11value_tableC2ENS_3PtrE, symObjAddr: 0x40168, symBinAddr: 0x100041458, symSize: 0x250 }
  - { offsetInCU: 0xEED76, offset: 0xEED76, size: 0x8, addend: 0x0, symName: __ZN5Acorn11value_table3colEv, symObjAddr: 0x403B8, symBinAddr: 0x1000416A8, symSize: 0x110 }
  - { offsetInCU: 0xEED9C, offset: 0xEED9C, size: 0x8, addend: 0x0, symName: __ZN5Acorn3Col3putERKNSt3__112basic_stringIcNS1_11char_traitsIcEENS1_9allocatorIcEEEEPKv, symObjAddr: 0x404C8, symBinAddr: 0x1000417B8, symSize: 0xC4 }
  - { offsetInCU: 0xEEDDE, offset: 0xEEDDE, size: 0x8, addend: 0x0, symName: __ZN3mapINSt3__112basic_stringIcNS0_11char_traitsIcEENS0_9allocatorIcEEEEjEixERKS6_, symObjAddr: 0x4058C, symBinAddr: 0x10004187C, symSize: 0x24C }
  - { offsetInCU: 0xEEE15, offset: 0xEEE15, size: 0x8, addend: 0x0, symName: __ZN3mapINSt3__112basic_stringIcNS0_11char_traitsIcEENS0_9allocatorIcEEEEjE8getOrPutERKS6_RKj, symObjAddr: 0x407D8, symBinAddr: 0x100041AC8, symSize: 0xD4 }
  - { offsetInCU: 0xEEE59, offset: 0xEEE59, size: 0x8, addend: 0x0, symName: __ZN3mapINSt3__112basic_stringIcNS0_11char_traitsIcEENS0_9allocatorIcEEEEjE6hasKeyERKS6_, symObjAddr: 0x408AC, symBinAddr: 0x100041B9C, symSize: 0xA4 }
  - { offsetInCU: 0xEEE8E, offset: 0xEEE8E, size: 0x8, addend: 0x0, symName: __ZN3mapINSt3__112basic_stringIcNS0_11char_traitsIcEENS0_9allocatorIcEEEEjE3putERKS6_j, symObjAddr: 0x40950, symBinAddr: 0x100041C40, symSize: 0x834 }
  - { offsetInCU: 0xEEF8F, offset: 0xEEF8F, size: 0x8, addend: 0x0, symName: __ZN3mapINSt3__112basic_stringIcNS0_11char_traitsIcEENS0_9allocatorIcEEEEjE3getERKS6_, symObjAddr: 0x41184, symBinAddr: 0x100042474, symSize: 0xA0 }
  - { offsetInCU: 0xEEFC3, offset: 0xEEFC3, size: 0x8, addend: 0x0, symName: __ZN4listI7keylistINSt3__112basic_stringIcNS1_11char_traitsIcEENS1_9allocatorIcEEEEjEE3getEm, symObjAddr: 0x41224, symBinAddr: 0x100042514, symSize: 0x74 }
  - { offsetInCU: 0xEEFF8, offset: 0xEEFF8, size: 0x8, addend: 0x0, symName: __ZN3mapINSt3__112basic_stringIcNS0_11char_traitsIcEENS0_9allocatorIcEEEEjE5hashTIS6_EEjRKT_, symObjAddr: 0x41298, symBinAddr: 0x100042588, symSize: 0x2C }
  - { offsetInCU: 0xEF035, offset: 0xEF035, size: 0x8, addend: 0x0, symName: __ZN7keylistINSt3__112basic_stringIcNS0_11char_traitsIcEENS0_9allocatorIcEEEEjE6hasKeyERKS6_, symObjAddr: 0x412C4, symBinAddr: 0x1000425B4, symSize: 0x100 }
  - { offsetInCU: 0xEF0BD, offset: 0xEF0BD, size: 0x8, addend: 0x0, symName: __ZN3mapINSt3__112basic_stringIcNS0_11char_traitsIcEENS0_9allocatorIcEEEEjE10hashStringERKS6_, symObjAddr: 0x413C4, symBinAddr: 0x1000426B4, symSize: 0x368 }
  - { offsetInCU: 0xEF161, offset: 0xEF161, size: 0x8, addend: 0x0, symName: __ZNKSt3__112basic_stringIcNS_11char_traitsIcEENS_9allocatorIcEEE5beginB8ue170006Ev, symObjAddr: 0x4172C, symBinAddr: 0x100042A1C, symSize: 0x258 }
  - { offsetInCU: 0xEF188, offset: 0xEF188, size: 0x8, addend: 0x0, symName: __ZNKSt3__112basic_stringIcNS_11char_traitsIcEENS_9allocatorIcEEE3endB8ue170006Ev, symObjAddr: 0x41984, symBinAddr: 0x100042C74, symSize: 0x25C }
  - { offsetInCU: 0xEF1AF, offset: 0xEF1AF, size: 0x8, addend: 0x0, symName: __ZNKSt3__111__wrap_iterIPKcEdeB8ue170006Ev, symObjAddr: 0x41C14, symBinAddr: 0x100042F04, symSize: 0x60 }
  - { offsetInCU: 0xEF1D5, offset: 0xEF1D5, size: 0x8, addend: 0x0, symName: __ZNSt3__111__wrap_iterIPKcEppB8ue170006Ev, symObjAddr: 0x41C74, symBinAddr: 0x100042F64, symSize: 0x68 }
  - { offsetInCU: 0xEF1FB, offset: 0xEF1FB, size: 0x8, addend: 0x0, symName: __ZNKSt3__112basic_stringIcNS_11char_traitsIcEENS_9allocatorIcEEE21__make_const_iteratorB8ue170006EPKc, symObjAddr: 0x41CDC, symBinAddr: 0x100042FCC, symSize: 0x1FC }
  - { offsetInCU: 0xEF232, offset: 0xEF232, size: 0x8, addend: 0x0, symName: __ZNSt3__111__wrap_iterIPKcEC1B8ue170006ES2_, symObjAddr: 0x41ED8, symBinAddr: 0x1000431C8, symSize: 0x34 }
  - { offsetInCU: 0xEF26A, offset: 0xEF26A, size: 0x8, addend: 0x0, symName: __ZNSt3__111__wrap_iterIPKcEC2B8ue170006ES2_, symObjAddr: 0x41F0C, symBinAddr: 0x1000431FC, symSize: 0x70 }
  - { offsetInCU: 0xEF2A2, offset: 0xEF2A2, size: 0x8, addend: 0x0, symName: __ZNKSt3__112basic_stringIcNS_11char_traitsIcEENS_9allocatorIcEEE4sizeB8ue170006Ev, symObjAddr: 0x41F7C, symBinAddr: 0x10004326C, symSize: 0x54 }
  - { offsetInCU: 0xEF2C8, offset: 0xEF2C8, size: 0x8, addend: 0x0, symName: __ZNKSt3__112basic_stringIcNS_11char_traitsIcEENS_9allocatorIcEEE15__get_long_sizeB8ue170006Ev, symObjAddr: 0x41FD0, symBinAddr: 0x1000432C0, symSize: 0x70 }
  - { offsetInCU: 0xEF2EE, offset: 0xEF2EE, size: 0x8, addend: 0x0, symName: __ZNKSt3__112basic_stringIcNS_11char_traitsIcEENS_9allocatorIcEEE16__get_short_sizeB8ue170006Ev, symObjAddr: 0x42040, symBinAddr: 0x100043330, symSize: 0xA0 }
  - { offsetInCU: 0xEF314, offset: 0xEF314, size: 0x8, addend: 0x0, symName: __ZNKSt3__111__wrap_iterIPKcE4baseB8ue170006Ev, symObjAddr: 0x42128, symBinAddr: 0x100043418, symSize: 0x60 }
  - { offsetInCU: 0xEF33A, offset: 0xEF33A, size: 0x8, addend: 0x0, symName: __ZN4listI7keylistINSt3__112basic_stringIcNS1_11char_traitsIcEENS1_9allocatorIcEEEEjEEC1Em, symObjAddr: 0x42188, symBinAddr: 0x100043478, symSize: 0x34 }
  - { offsetInCU: 0xEF372, offset: 0xEF372, size: 0x8, addend: 0x0, symName: __ZN4listI7keylistINSt3__112basic_stringIcNS1_11char_traitsIcEENS1_9allocatorIcEEEEjEE5beginEv, symObjAddr: 0x421BC, symBinAddr: 0x1000434AC, symSize: 0x60 }
  - { offsetInCU: 0xEF398, offset: 0xEF398, size: 0x8, addend: 0x0, symName: __ZN4listI7keylistINSt3__112basic_stringIcNS1_11char_traitsIcEENS1_9allocatorIcEEEEjEE3endEv, symObjAddr: 0x4221C, symBinAddr: 0x10004350C, symSize: 0xB0 }
  - { offsetInCU: 0xEF3CA, offset: 0xEF3CA, size: 0x8, addend: 0x0, symName: __ZN4listI5entryINSt3__112basic_stringIcNS1_11char_traitsIcEENS1_9allocatorIcEEEEjEEclIZN3mapIS7_jE3putERKS7_jEUlRKS8_E_EEvOT_, symObjAddr: 0x422CC, symBinAddr: 0x1000435BC, symSize: 0x100 }
  - { offsetInCU: 0xEF425, offset: 0xEF425, size: 0x8, addend: 0x0, symName: __ZN4listI7keylistINSt3__112basic_stringIcNS1_11char_traitsIcEENS1_9allocatorIcEEEEjEEixEm, symObjAddr: 0x423CC, symBinAddr: 0x1000436BC, symSize: 0x74 }
  - { offsetInCU: 0xEF45A, offset: 0xEF45A, size: 0x8, addend: 0x0, symName: __ZN7keylistINSt3__112basic_stringIcNS0_11char_traitsIcEENS0_9allocatorIcEEEEjE3putIRKS6_RjEEvOT_OT0_, symObjAddr: 0x42440, symBinAddr: 0x100043730, symSize: 0x294 }
  - { offsetInCU: 0xEF4B1, offset: 0xEF4B1, size: 0x8, addend: 0x0, symName: __ZN4listI7keylistINSt3__112basic_stringIcNS1_11char_traitsIcEENS1_9allocatorIcEEEEjEEC2Em, symObjAddr: 0x426D4, symBinAddr: 0x1000439C4, symSize: 0x3B0 }
  - { offsetInCU: 0xEF4F4, offset: 0xEF4F4, size: 0x8, addend: 0x0, symName: __ZZN3mapINSt3__112basic_stringIcNS0_11char_traitsIcEENS0_9allocatorIcEEEEjE3putERKS6_jENKUlRK5entryIS6_jEE_clESD_, symObjAddr: 0x42A84, symBinAddr: 0x100043D74, symSize: 0x120 }
  - { offsetInCU: 0xEF52C, offset: 0xEF52C, size: 0x8, addend: 0x0, symName: __ZN7keylistINSt3__112basic_stringIcNS0_11char_traitsIcEENS0_9allocatorIcEEEEjE3putIRKS6_RKjEEvOT_OT0_, symObjAddr: 0x42BA4, symBinAddr: 0x100043E94, symSize: 0x294 }
  - { offsetInCU: 0xEF583, offset: 0xEF583, size: 0x8, addend: 0x0, symName: __ZN4listI5entryINSt3__112basic_stringIcNS1_11char_traitsIcEENS1_9allocatorIcEEEEjEElsES8_, symObjAddr: 0x42E38, symBinAddr: 0x100044128, symSize: 0x34 }
  - { offsetInCU: 0xEF5B9, offset: 0xEF5B9, size: 0x8, addend: 0x0, symName: __ZN5entryINSt3__112basic_stringIcNS0_11char_traitsIcEENS0_9allocatorIcEEEEjEC1ERKS6_RKj, symObjAddr: 0x42E6C, symBinAddr: 0x10004415C, symSize: 0x3C }
  - { offsetInCU: 0xEF5FF, offset: 0xEF5FF, size: 0x8, addend: 0x0, symName: __ZN4listI5entryINSt3__112basic_stringIcNS1_11char_traitsIcEENS1_9allocatorIcEEEEjEE4pushIRS8_EEvOT_, symObjAddr: 0x42EA8, symBinAddr: 0x100044198, symSize: 0x5B4 }
  - { offsetInCU: 0xEF679, offset: 0xEF679, size: 0x8, addend: 0x0, symName: __ZN5entryINSt3__112basic_stringIcNS0_11char_traitsIcEENS0_9allocatorIcEEEEjEaSEOS7_, symObjAddr: 0x4345C, symBinAddr: 0x10004474C, symSize: 0x114 }
  - { offsetInCU: 0xEF6AD, offset: 0xEF6AD, size: 0x8, addend: 0x0, symName: __ZN5entryINSt3__112basic_stringIcNS0_11char_traitsIcEENS0_9allocatorIcEEEEjEC2ERKS6_RKj, symObjAddr: 0x43570, symBinAddr: 0x100044860, symSize: 0x11C }
  - { offsetInCU: 0xEF6F3, offset: 0xEF6F3, size: 0x8, addend: 0x0, symName: __ZN7keylistINSt3__112basic_stringIcNS0_11char_traitsIcEENS0_9allocatorIcEEEEjE3getERKS6_, symObjAddr: 0x4368C, symBinAddr: 0x10004497C, symSize: 0x140 }
  - { offsetInCU: 0xEF77B, offset: 0xEF77B, size: 0x8, addend: 0x0, symName: __ZNK5g_ptrIN3Log4SpanEEptEv, symObjAddr: 0x437CC, symBinAddr: 0x100044ABC, symSize: 0x60 }
  - { offsetInCU: 0xEF7A1, offset: 0xEF7A1, size: 0x8, addend: 0x0, symName: __ZN3Log4Span8add_lineERKNSt3__112basic_stringIcNS1_11char_traitsIcEENS1_9allocatorIcEEEE, symObjAddr: 0x4382C, symBinAddr: 0x100044B1C, symSize: 0x534 }
  - { offsetInCU: 0xEF7EB, offset: 0xEF7EB, size: 0x8, addend: 0x0, symName: __ZN3Log4Span13get_last_lineEv, symObjAddr: 0x43D60, symBinAddr: 0x100045050, symSize: 0x64 }
  - { offsetInCU: 0xEF811, offset: 0xEF811, size: 0x8, addend: 0x0, symName: __ZNK5g_ptrIN3Log7SeqLineEEptEv, symObjAddr: 0x43DC4, symBinAddr: 0x1000450B4, symSize: 0x60 }
  - { offsetInCU: 0xEF837, offset: 0xEF837, size: 0x8, addend: 0x0, symName: __ZN4listI5g_ptrIN3Log7SeqLineEEElsES3_, symObjAddr: 0x43E24, symBinAddr: 0x100045114, symSize: 0x34 }
  - { offsetInCU: 0xEF86C, offset: 0xEF86C, size: 0x8, addend: 0x0, symName: __Z4makeIN3Log7SeqLineEJRKNSt3__112basic_stringIcNS2_11char_traitsIcEENS2_9allocatorIcEEEEbEE5g_ptrIT_EDpOT0_, symObjAddr: 0x43E58, symBinAddr: 0x100045148, symSize: 0x370 }
  - { offsetInCU: 0xEF8D2, offset: 0xEF8D2, size: 0x8, addend: 0x0, symName: __ZN5g_ptrIN3Log7SeqLineEED1Ev, symObjAddr: 0x441C8, symBinAddr: 0x1000454B8, symSize: 0x2C }
  - { offsetInCU: 0xEF8FC, offset: 0xEF8FC, size: 0x8, addend: 0x0, symName: __ZNK5g_ptrIN3Log7SeqLineEE6getPtrEv, symObjAddr: 0x441F4, symBinAddr: 0x1000454E4, symSize: 0x60 }
  - { offsetInCU: 0xEF922, offset: 0xEF922, size: 0x8, addend: 0x0, symName: __ZN4listI5g_ptrIN3Log7SeqLineEEE4lastEv, symObjAddr: 0x44254, symBinAddr: 0x100045544, symSize: 0xAC }
  - { offsetInCU: 0xEF948, offset: 0xEF948, size: 0x8, addend: 0x0, symName: __ZN5g_ptrIN3Log7SeqLineEEaSERKS2_, symObjAddr: 0x44300, symBinAddr: 0x1000455F0, symSize: 0x254 }
  - { offsetInCU: 0xEF97C, offset: 0xEF97C, size: 0x8, addend: 0x0, symName: __Z5printIJRKNSt3__112basic_stringIcNS0_11char_traitsIcEENS0_9allocatorIcEEEEEEvDpOT_, symObjAddr: 0x44554, symBinAddr: 0x100045844, symSize: 0x38 }
  - { offsetInCU: 0xEF9B0, offset: 0xEF9B0, size: 0x8, addend: 0x0, symName: __ZNK5g_ptrIN3Log7SeqLineEEcvbEv, symObjAddr: 0x4458C, symBinAddr: 0x10004587C, symSize: 0x6C }
  - { offsetInCU: 0xEF9D6, offset: 0xEF9D6, size: 0x8, addend: 0x0, symName: __ZN5g_ptrIN3Log7SeqLineEEC1ERKS2_, symObjAddr: 0x445F8, symBinAddr: 0x1000458E8, symSize: 0x34 }
  - { offsetInCU: 0xEFA0E, offset: 0xEFA0E, size: 0x8, addend: 0x0, symName: __ZN5g_ptrIN3Log7SeqLineEEC2ERKS2_, symObjAddr: 0x4462C, symBinAddr: 0x10004591C, symSize: 0x13C }
  - { offsetInCU: 0xEFA46, offset: 0xEFA46, size: 0x8, addend: 0x0, symName: __ZN8q_object6retainEv, symObjAddr: 0x44768, symBinAddr: 0x100045A58, symSize: 0x28 }
  - { offsetInCU: 0xEFA6C, offset: 0xEFA6C, size: 0x8, addend: 0x0, symName: __ZNSt3__113__atomic_baseIiLb1EEppB8ue170006Ev, symObjAddr: 0x44790, symBinAddr: 0x100045A80, symSize: 0x30 }
  - { offsetInCU: 0xEFA92, offset: 0xEFA92, size: 0x8, addend: 0x0, symName: __ZNSt3__113__atomic_baseIiLb1EE9fetch_addB8ue170006EiNS_12memory_orderE, symObjAddr: 0x447C0, symBinAddr: 0x100045AB0, symSize: 0x34 }
  - { offsetInCU: 0xEFAD4, offset: 0xEFAD4, size: 0x8, addend: 0x0, symName: __ZN4listI5g_ptrIN3Log7SeqLineEEE4pushIRS3_EEvOT_, symObjAddr: 0x44AC8, symBinAddr: 0x100045DB8, symSize: 0x5B4 }
  - { offsetInCU: 0xEFB4E, offset: 0xEFB4E, size: 0x8, addend: 0x0, symName: __ZN5g_ptrIN3Log7SeqLineEEC1Ev, symObjAddr: 0x4507C, symBinAddr: 0x10004636C, symSize: 0x2C }
  - { offsetInCU: 0xEFB78, offset: 0xEFB78, size: 0x8, addend: 0x0, symName: __ZN5g_ptrIN3Log7SeqLineEEaSEOS2_, symObjAddr: 0x450A8, symBinAddr: 0x100046398, symSize: 0x220 }
  - { offsetInCU: 0xEFBAC, offset: 0xEFBAC, size: 0x8, addend: 0x0, symName: __ZN5g_ptrIN3Log7SeqLineEEC2Ev, symObjAddr: 0x452C8, symBinAddr: 0x1000465B8, symSize: 0x60 }
  - { offsetInCU: 0xEFBD6, offset: 0xEFBD6, size: 0x8, addend: 0x0, symName: __ZN3Log7SeqLineC1ENSt3__112basic_stringIcNS1_11char_traitsIcEENS1_9allocatorIcEEEEb, symObjAddr: 0x45328, symBinAddr: 0x100046618, symSize: 0x48 }
  - { offsetInCU: 0xEFC1D, offset: 0xEFC1D, size: 0x8, addend: 0x0, symName: __ZN5g_ptrIN3Log7SeqLineEEC1EPS1_, symObjAddr: 0x45370, symBinAddr: 0x100046660, symSize: 0x34 }
  - { offsetInCU: 0xEFC55, offset: 0xEFC55, size: 0x8, addend: 0x0, symName: __ZN3Log7SeqLineC2ENSt3__112basic_stringIcNS1_11char_traitsIcEENS1_9allocatorIcEEEEb, symObjAddr: 0x453A4, symBinAddr: 0x100046694, symSize: 0x540 }
  - { offsetInCU: 0xEFCB8, offset: 0xEFCB8, size: 0x8, addend: 0x0, symName: __ZN8q_objectC2Ev, symObjAddr: 0x458E4, symBinAddr: 0x100046BD4, symSize: 0x98 }
  - { offsetInCU: 0xEFCE2, offset: 0xEFCE2, size: 0x8, addend: 0x0, symName: __ZN3Log4LineC1Ev, symObjAddr: 0x4597C, symBinAddr: 0x100046C6C, symSize: 0x2C }
  - { offsetInCU: 0xEFD0C, offset: 0xEFD0C, size: 0x8, addend: 0x0, symName: __ZN4listI5g_ptrIN3Log7SeqLineEEEC1Ev, symObjAddr: 0x459A8, symBinAddr: 0x100046C98, symSize: 0x2C }
  - { offsetInCU: 0xEFD36, offset: 0xEFD36, size: 0x8, addend: 0x0, symName: __ZN3Log4Line5startEv, symObjAddr: 0x459D4, symBinAddr: 0x100046CC4, symSize: 0x224 }
  - { offsetInCU: 0xEFD5D, offset: 0xEFD5D, size: 0x8, addend: 0x0, symName: __ZN3Log4LineaSERKS0_, symObjAddr: 0x45BF8, symBinAddr: 0x100046EE8, symSize: 0x4C }
  - { offsetInCU: 0xEFD8E, offset: 0xEFD8E, size: 0x8, addend: 0x0, symName: __ZN3Log4LineD1Ev, symObjAddr: 0x45C44, symBinAddr: 0x100046F34, symSize: 0x2C }
  - { offsetInCU: 0xEFDB8, offset: 0xEFDB8, size: 0x8, addend: 0x0, symName: __ZN4listI5g_ptrIN3Log7SeqLineEEED1Ev, symObjAddr: 0x45C70, symBinAddr: 0x100046F60, symSize: 0x2C }
  - { offsetInCU: 0xEFDE2, offset: 0xEFDE2, size: 0x8, addend: 0x0, symName: __ZN8q_objectD2Ev, symObjAddr: 0x45C9C, symBinAddr: 0x100046F8C, symSize: 0x14 }
  - { offsetInCU: 0xEFE0C, offset: 0xEFE0C, size: 0x8, addend: 0x0, symName: __ZN3Log7SeqLineD1Ev, symObjAddr: 0x45CB0, symBinAddr: 0x100046FA0, symSize: 0x2C }
  - { offsetInCU: 0xEFE38, offset: 0xEFE38, size: 0x8, addend: 0x0, symName: __ZN3Log7SeqLineD0Ev, symObjAddr: 0x45CDC, symBinAddr: 0x100046FCC, symSize: 0x30 }
  - { offsetInCU: 0xEFE64, offset: 0xEFE64, size: 0x8, addend: 0x0, symName: __ZN8q_object7releaseEv, symObjAddr: 0x45D0C, symBinAddr: 0x100046FFC, symSize: 0xEC }
  - { offsetInCU: 0xEFE8A, offset: 0xEFE8A, size: 0x8, addend: 0x0, symName: __ZNSt3__16atomicIiEC1B8ue170006Ei, symObjAddr: 0x45DF8, symBinAddr: 0x1000470E8, symSize: 0x34 }
  - { offsetInCU: 0xEFEC2, offset: 0xEFEC2, size: 0x8, addend: 0x0, symName: __ZNSt3__16atomicIbEC1B8ue170006Eb, symObjAddr: 0x45E2C, symBinAddr: 0x10004711C, symSize: 0x40 }
  - { offsetInCU: 0xEFEFA, offset: 0xEFEFA, size: 0x8, addend: 0x0, symName: __ZN8q_objectD1Ev, symObjAddr: 0x45E6C, symBinAddr: 0x10004715C, symSize: 0x2C }
  - { offsetInCU: 0xEFF24, offset: 0xEFF24, size: 0x8, addend: 0x0, symName: __ZN8q_objectD0Ev, symObjAddr: 0x45E98, symBinAddr: 0x100047188, symSize: 0x30 }
  - { offsetInCU: 0xEFF4E, offset: 0xEFF4E, size: 0x8, addend: 0x0, symName: __ZNSt3__16atomicIiEC2B8ue170006Ei, symObjAddr: 0x45EC8, symBinAddr: 0x1000471B8, symSize: 0x34 }
  - { offsetInCU: 0xEFF86, offset: 0xEFF86, size: 0x8, addend: 0x0, symName: __ZNSt3__113__atomic_baseIiLb1EEC2B8ue170006Ei, symObjAddr: 0x45EFC, symBinAddr: 0x1000471EC, symSize: 0x34 }
  - { offsetInCU: 0xEFFBE, offset: 0xEFFBE, size: 0x8, addend: 0x0, symName: __ZNSt3__113__atomic_baseIiLb0EEC2B8ue170006Ei, symObjAddr: 0x45F30, symBinAddr: 0x100047220, symSize: 0x34 }
  - { offsetInCU: 0xEFFF6, offset: 0xEFFF6, size: 0x8, addend: 0x0, symName: __ZNSt3__117__cxx_atomic_implIiNS_22__cxx_atomic_base_implIiEEEC1B8ue170006Ei, symObjAddr: 0x45F64, symBinAddr: 0x100047254, symSize: 0x34 }
  - { offsetInCU: 0xF002F, offset: 0xF002F, size: 0x8, addend: 0x0, symName: __ZNSt3__117__cxx_atomic_implIiNS_22__cxx_atomic_base_implIiEEEC2B8ue170006Ei, symObjAddr: 0x45F98, symBinAddr: 0x100047288, symSize: 0x34 }
  - { offsetInCU: 0xF0068, offset: 0xF0068, size: 0x8, addend: 0x0, symName: __ZNSt3__122__cxx_atomic_base_implIiEC2Ei, symObjAddr: 0x45FCC, symBinAddr: 0x1000472BC, symSize: 0x98 }
  - { offsetInCU: 0xF00A1, offset: 0xF00A1, size: 0x8, addend: 0x0, symName: __ZNSt3__16atomicIbEC2B8ue170006Eb, symObjAddr: 0x46064, symBinAddr: 0x100047354, symSize: 0x40 }
  - { offsetInCU: 0xF00D9, offset: 0xF00D9, size: 0x8, addend: 0x0, symName: __ZNSt3__113__atomic_baseIbLb0EEC2B8ue170006Eb, symObjAddr: 0x460A4, symBinAddr: 0x100047394, symSize: 0x40 }
  - { offsetInCU: 0xF0111, offset: 0xF0111, size: 0x8, addend: 0x0, symName: __ZNSt3__117__cxx_atomic_implIbNS_22__cxx_atomic_base_implIbEEEC1B8ue170006Eb, symObjAddr: 0x460E4, symBinAddr: 0x1000473D4, symSize: 0x40 }
  - { offsetInCU: 0xF014A, offset: 0xF014A, size: 0x8, addend: 0x0, symName: __ZNSt3__117__cxx_atomic_implIbNS_22__cxx_atomic_base_implIbEEEC2B8ue170006Eb, symObjAddr: 0x46124, symBinAddr: 0x100047414, symSize: 0x40 }
  - { offsetInCU: 0xF0183, offset: 0xF0183, size: 0x8, addend: 0x0, symName: __ZNSt3__122__cxx_atomic_base_implIbEC2Eb, symObjAddr: 0x46164, symBinAddr: 0x100047454, symSize: 0xA0 }
  - { offsetInCU: 0xF01BC, offset: 0xF01BC, size: 0x8, addend: 0x0, symName: __ZN3Log4LineC2Ev, symObjAddr: 0x46204, symBinAddr: 0x1000474F4, symSize: 0xAC }
  - { offsetInCU: 0xF01E6, offset: 0xF01E6, size: 0x8, addend: 0x0, symName: __ZNSt3__16chrono10time_pointINS0_12steady_clockENS0_8durationIxNS_5ratioILl1ELl1000000000EEEEEEC1B8ue170006Ev, symObjAddr: 0x462B0, symBinAddr: 0x1000475A0, symSize: 0x2C }
  - { offsetInCU: 0xF0210, offset: 0xF0210, size: 0x8, addend: 0x0, symName: __ZNSt3__16chrono10time_pointINS0_12steady_clockENS0_8durationIxNS_5ratioILl1ELl1000000000EEEEEEC2B8ue170006Ev, symObjAddr: 0x462DC, symBinAddr: 0x1000475CC, symSize: 0x78 }
  - { offsetInCU: 0xF023A, offset: 0xF023A, size: 0x8, addend: 0x0, symName: __ZNSt3__16chrono8durationIxNS_5ratioILl1ELl1000000000EEEE4zeroB8ue170006Ev, symObjAddr: 0x46354, symBinAddr: 0x100047644, symSize: 0x298 }
  - { offsetInCU: 0xF024E, offset: 0xF024E, size: 0x8, addend: 0x0, symName: __ZNSt3__16chrono15duration_valuesIxE4zeroB8ue170006Ev, symObjAddr: 0x465EC, symBinAddr: 0x1000478DC, symSize: 0x8 }
  - { offsetInCU: 0xF026D, offset: 0xF026D, size: 0x8, addend: 0x0, symName: __ZNSt3__16chrono8durationIxNS_5ratioILl1ELl1000000000EEEEC1B8ue170006IxEERKT_PNS_9enable_ifIXaasr14is_convertibleIS8_xEE5valueooL_ZNS_17integral_constantIbLb0EE5valueEEntsr23treat_as_floating_pointIS6_EE5valueEvE4typeE, symObjAddr: 0x465F4, symBinAddr: 0x1000478E4, symSize: 0x3C }
  - { offsetInCU: 0xF02BA, offset: 0xF02BA, size: 0x8, addend: 0x0, symName: __ZNSt3__16chrono8durationIxNS_5ratioILl1ELl1000000000EEEEC2B8ue170006IxEERKT_PNS_9enable_ifIXaasr14is_convertibleIS8_xEE5valueooL_ZNS_17integral_constantIbLb0EE5valueEEntsr23treat_as_floating_pointIS6_EE5valueEvE4typeE, symObjAddr: 0x46630, symBinAddr: 0x100047920, symSize: 0xB4 }
  - { offsetInCU: 0xF0307, offset: 0xF0307, size: 0x8, addend: 0x0, symName: __ZN4listI5g_ptrIN3Log7SeqLineEEEC2Ev, symObjAddr: 0x466E4, symBinAddr: 0x1000479D4, symSize: 0xD4 }
  - { offsetInCU: 0xF0331, offset: 0xF0331, size: 0x8, addend: 0x0, symName: __ZN3Log4LineD2Ev, symObjAddr: 0x467B8, symBinAddr: 0x100047AA8, symSize: 0x2C }
  - { offsetInCU: 0xF035B, offset: 0xF035B, size: 0x8, addend: 0x0, symName: __ZN4listI5g_ptrIN3Log7SeqLineEEED2Ev, symObjAddr: 0x467E4, symBinAddr: 0x100047AD4, symSize: 0x40 }
  - { offsetInCU: 0xF0385, offset: 0xF0385, size: 0x8, addend: 0x0, symName: __ZN4listI5g_ptrIN3Log7SeqLineEEE7destroyEv, symObjAddr: 0x46824, symBinAddr: 0x100047B14, symSize: 0x208 }
  - { offsetInCU: 0xF03AB, offset: 0xF03AB, size: 0x8, addend: 0x0, symName: __ZN3Log7SeqLineD2Ev, symObjAddr: 0x46A2C, symBinAddr: 0x100047D1C, symSize: 0xA0 }
  - { offsetInCU: 0xF03D7, offset: 0xF03D7, size: 0x8, addend: 0x0, symName: __ZNSt3__113__atomic_baseIiLb1EE9fetch_subB8ue170006EiNS_12memory_orderE, symObjAddr: 0x46ACC, symBinAddr: 0x100047DBC, symSize: 0x34 }
  - { offsetInCU: 0xF0419, offset: 0xF0419, size: 0x8, addend: 0x0, symName: __ZN5g_ptrIN3Log7SeqLineEEC2EPS1_, symObjAddr: 0x46DE8, symBinAddr: 0x1000480D8, symSize: 0x104 }
  - { offsetInCU: 0xF0451, offset: 0xF0451, size: 0x8, addend: 0x0, symName: __ZN5g_ptrIN3Log7SeqLineEED2Ev, symObjAddr: 0x46EEC, symBinAddr: 0x1000481DC, symSize: 0x14C }
  - { offsetInCU: 0xF047B, offset: 0xF047B, size: 0x8, addend: 0x0, symName: __ZNSt3__113basic_ostreamIcNS_11char_traitsIcEEElsB8ue170006EPFRS3_S4_E, symObjAddr: 0x47084, symBinAddr: 0x100048374, symSize: 0x2C }
  - { offsetInCU: 0xF04D2, offset: 0xF04D2, size: 0x8, addend: 0x0, symName: __ZNKSt3__113basic_ostreamIcNS_11char_traitsIcEEE6sentrycvbB8ue170006Ev, symObjAddr: 0x478C8, symBinAddr: 0x100048BB8, symSize: 0x88 }
  - { offsetInCU: 0xF04F8, offset: 0xF04F8, size: 0x8, addend: 0x0, symName: __ZNSt3__119ostreambuf_iteratorIcNS_11char_traitsIcEEEC1B8ue170006ERNS_13basic_ostreamIcS2_EE, symObjAddr: 0x480B0, symBinAddr: 0x1000493A0, symSize: 0x34 }
  - { offsetInCU: 0xF0530, offset: 0xF0530, size: 0x8, addend: 0x0, symName: __ZNKSt3__18ios_base5flagsB8ue170006Ev, symObjAddr: 0x480E4, symBinAddr: 0x1000493D4, symSize: 0x8C }
  - { offsetInCU: 0xF0558, offset: 0xF0558, size: 0x8, addend: 0x0, symName: __ZNKSt3__19basic_iosIcNS_11char_traitsIcEEE4fillB8ue170006Ev, symObjAddr: 0x48170, symBinAddr: 0x100049460, symSize: 0x198 }
  - { offsetInCU: 0xF0580, offset: 0xF0580, size: 0x8, addend: 0x0, symName: __ZNKSt3__119ostreambuf_iteratorIcNS_11char_traitsIcEEE6failedB8ue170006Ev, symObjAddr: 0x48308, symBinAddr: 0x1000495F8, symSize: 0x6C }
  - { offsetInCU: 0xF05A6, offset: 0xF05A6, size: 0x8, addend: 0x0, symName: __ZNSt3__19basic_iosIcNS_11char_traitsIcEEE8setstateB8ue170006Ej, symObjAddr: 0x48374, symBinAddr: 0x100049664, symSize: 0x2C }
  - { offsetInCU: 0xF05DB, offset: 0xF05DB, size: 0x8, addend: 0x0, symName: __ZNKSt3__18ios_base5widthB8ue170006Ev, symObjAddr: 0x483A0, symBinAddr: 0x100049690, symSize: 0x64 }
  - { offsetInCU: 0xF0603, offset: 0xF0603, size: 0x8, addend: 0x0, symName: __ZNSt3__115basic_streambufIcNS_11char_traitsIcEEE5sputnB8ue170006EPKcl, symObjAddr: 0x48404, symBinAddr: 0x1000496F4, symSize: 0xC8 }
  - { offsetInCU: 0xF0645, offset: 0xF0645, size: 0x8, addend: 0x0, symName: __ZNSt3__112basic_stringIcNS_11char_traitsIcEENS_9allocatorIcEEE4dataB8ue170006Ev, symObjAddr: 0x484CC, symBinAddr: 0x1000497BC, symSize: 0x28 }
  - { offsetInCU: 0xF066B, offset: 0xF066B, size: 0x8, addend: 0x0, symName: __ZNSt3__18ios_base5widthB8ue170006El, symObjAddr: 0x484F4, symBinAddr: 0x1000497E4, symSize: 0xB8 }
  - { offsetInCU: 0xF06B1, offset: 0xF06B1, size: 0x8, addend: 0x0, symName: __ZNSt3__112basic_stringIcNS_11char_traitsIcEENS_9allocatorIcEEE13__get_pointerB8ue170006Ev, symObjAddr: 0x485C0, symBinAddr: 0x1000498B0, symSize: 0x54 }
  - { offsetInCU: 0xF06D7, offset: 0xF06D7, size: 0x8, addend: 0x0, symName: __ZNSt3__112basic_stringIcNS_11char_traitsIcEENS_9allocatorIcEEE18__get_long_pointerB8ue170006Ev, symObjAddr: 0x48614, symBinAddr: 0x100049904, symSize: 0x6C }
  - { offsetInCU: 0xF06FD, offset: 0xF06FD, size: 0x8, addend: 0x0, symName: __ZNSt3__112basic_stringIcNS_11char_traitsIcEENS_9allocatorIcEEE19__get_short_pointerB8ue170006Ev, symObjAddr: 0x48680, symBinAddr: 0x100049970, symSize: 0x28 }
  - { offsetInCU: 0xF0723, offset: 0xF0723, size: 0x8, addend: 0x0, symName: __ZNSt3__114pointer_traitsIPcE10pointer_toB8ue170006ERc, symObjAddr: 0x486A8, symBinAddr: 0x100049998, symSize: 0x14 }
  - { offsetInCU: 0xF0746, offset: 0xF0746, size: 0x8, addend: 0x0, symName: __ZNSt3__119ostreambuf_iteratorIcNS_11char_traitsIcEEEC2B8ue170006ERNS_13basic_ostreamIcS2_EE, symObjAddr: 0x486BC, symBinAddr: 0x1000499AC, symSize: 0x10C }
  - { offsetInCU: 0xF077E, offset: 0xF077E, size: 0x8, addend: 0x0, symName: __ZNKSt3__19basic_iosIcNS_11char_traitsIcEEE5rdbufB8ue170006Ev, symObjAddr: 0x487C8, symBinAddr: 0x100049AB8, symSize: 0x24 }
  - { offsetInCU: 0xF07A6, offset: 0xF07A6, size: 0x8, addend: 0x0, symName: __ZNKSt3__18ios_base5rdbufB8ue170006Ev, symObjAddr: 0x487EC, symBinAddr: 0x100049ADC, symSize: 0x64 }
  - { offsetInCU: 0xF07CC, offset: 0xF07CC, size: 0x8, addend: 0x0, symName: __ZNSt3__111char_traitsIcE11eq_int_typeB8ue170006Eii, symObjAddr: 0x48850, symBinAddr: 0x100049B40, symSize: 0x28 }
  - { offsetInCU: 0xF07FF, offset: 0xF07FF, size: 0x8, addend: 0x0, symName: __ZNSt3__111char_traitsIcE3eofB8ue170006Ev, symObjAddr: 0x48878, symBinAddr: 0x100049B68, symSize: 0x8 }
  - { offsetInCU: 0xF0813, offset: 0xF0813, size: 0x8, addend: 0x0, symName: __ZNKSt3__19basic_iosIcNS_11char_traitsIcEEE5widenB8ue170006Ec, symObjAddr: 0x48880, symBinAddr: 0x100049B70, symSize: 0x2A4 }
  - { offsetInCU: 0xF0885, offset: 0xF0885, size: 0x8, addend: 0x0, symName: __ZNKSt3__15ctypeIcE5widenB8ue170006Ec, symObjAddr: 0x48B50, symBinAddr: 0x100049E40, symSize: 0xBC }
  - { offsetInCU: 0xF08BA, offset: 0xF08BA, size: 0x8, addend: 0x0, symName: __ZNSt3__18ios_base8setstateB8ue170006Ej, symObjAddr: 0x48C0C, symBinAddr: 0x100049EFC, symSize: 0x9C }
  - { offsetInCU: 0xF08F1, offset: 0xF08F1, size: 0x8, addend: 0x0, symName: __ZN5Acorn7ContextC2ENS_9node_listERi, symObjAddr: 0x48CA8, symBinAddr: 0x100049F98, symSize: 0x458 }
  - { offsetInCU: 0xF093F, offset: 0xF093F, size: 0x8, addend: 0x0, symName: __ZN5Acorn4NodeC1Ev, symObjAddr: 0x49100, symBinAddr: 0x10004A3F0, symSize: 0x2C }
  - { offsetInCU: 0xF0969, offset: 0xF0969, size: 0x8, addend: 0x0, symName: __ZN5Acorn5ValueC1Ev, symObjAddr: 0x4912C, symBinAddr: 0x10004A41C, symSize: 0x2C }
  - { offsetInCU: 0xF0993, offset: 0xF0993, size: 0x8, addend: 0x0, symName: __ZN5Acorn4NodeC2Ev, symObjAddr: 0x49158, symBinAddr: 0x10004A448, symSize: 0x2C }
  - { offsetInCU: 0xF09BD, offset: 0xF09BD, size: 0x8, addend: 0x0, symName: __ZN5Acorn5ValueC2Ev, symObjAddr: 0x49184, symBinAddr: 0x10004A474, symSize: 0x2C }
  - { offsetInCU: 0xF09E7, offset: 0xF09E7, size: 0x8, addend: 0x0, symName: __ZN5Acorn4Unit16standard_processERNS_7ContextEj, symObjAddr: 0x491B0, symBinAddr: 0x10004A4A0, symSize: 0x9D0 }
  - { offsetInCU: 0xF0A58, offset: 0xF0A58, size: 0x8, addend: 0x0, symName: __ZN5Acorn5Stage3runEj, symObjAddr: 0x49B80, symBinAddr: 0x10004AE70, symSize: 0x22C }
  - { offsetInCU: 0xF0A92, offset: 0xF0A92, size: 0x8, addend: 0x0, symName: __ZNKSt3__18functionIFvRN5Acorn7ContextEEEclES3_, symObjAddr: 0x49DAC, symBinAddr: 0x10004B09C, symSize: 0x2C }
  - { offsetInCU: 0xF0AC9, offset: 0xF0AC9, size: 0x8, addend: 0x0, symName: __ZN3mapIjNSt3__18functionIFvRN5Acorn7ContextEEEEE12getOrDefaultIRS6_EES9_RKjOT_, symObjAddr: 0x49DD8, symBinAddr: 0x10004B0C8, symSize: 0xA8 }
  - { offsetInCU: 0xF0B16, offset: 0xF0B16, size: 0x8, addend: 0x0, symName: __ZN4listI7keylistIjNSt3__18functionIFvRN5Acorn7ContextEEEEEEixEm, symObjAddr: 0x49E80, symBinAddr: 0x10004B170, symSize: 0x74 }
  - { offsetInCU: 0xF0B4B, offset: 0xF0B4B, size: 0x8, addend: 0x0, symName: __ZN3mapIjNSt3__18functionIFvRN5Acorn7ContextEEEEE5hashTIjEEjRKT_, symObjAddr: 0x49EF4, symBinAddr: 0x10004B1E4, symSize: 0x8C }
  - { offsetInCU: 0xF0B88, offset: 0xF0B88, size: 0x8, addend: 0x0, symName: __ZN7keylistIjNSt3__18functionIFvRN5Acorn7ContextEEEEE12getOrDefaultIRS6_EES9_RKjOT_, symObjAddr: 0x49F80, symBinAddr: 0x10004B270, symSize: 0x1D0 }
  - { offsetInCU: 0xF0C28, offset: 0xF0C28, size: 0x8, addend: 0x0, symName: __ZN4listI5entryIjNSt3__18functionIFvRN5Acorn7ContextEEEEEE5beginEv, symObjAddr: 0x4A150, symBinAddr: 0x10004B440, symSize: 0x60 }
  - { offsetInCU: 0xF0C4E, offset: 0xF0C4E, size: 0x8, addend: 0x0, symName: __ZN4listI5entryIjNSt3__18functionIFvRN5Acorn7ContextEEEEEE3endEv, symObjAddr: 0x4A1B0, symBinAddr: 0x10004B4A0, symSize: 0xB0 }
  - { offsetInCU: 0xF0C74, offset: 0xF0C74, size: 0x8, addend: 0x0, symName: __ZNKSt3__110__function12__value_funcIFvRN5Acorn7ContextEEEclB8ue170006ES4_, symObjAddr: 0x4A260, symBinAddr: 0x10004B550, symSize: 0x148 }
  - { offsetInCU: 0xF0CA9, offset: 0xF0CA9, size: 0x8, addend: 0x0, symName: __ZN3Log4Span8end_lineEv, symObjAddr: 0x4A3A8, symBinAddr: 0x10004B698, symSize: 0x4C8 }
  - { offsetInCU: 0xF0CE0, offset: 0xF0CE0, size: 0x8, addend: 0x0, symName: __ZN3Log4Line3endEv, symObjAddr: 0x4A870, symBinAddr: 0x10004BB60, symSize: 0x380 }
  - { offsetInCU: 0xF0D2A, offset: 0xF0D2A, size: 0x8, addend: 0x0, symName: __ZN3Log7SeqLine9to_stringEv, symObjAddr: 0x4ABF0, symBinAddr: 0x10004BEE0, symSize: 0x920 }
  - { offsetInCU: 0xF0DBB, offset: 0xF0DBB, size: 0x8, addend: 0x0, symName: __ZNKSt3__16chrono8durationIxNS_5ratioILl1ELl1000000000EEEE5countB8ue170006Ev, symObjAddr: 0x4BAEC, symBinAddr: 0x10004CDDC, symSize: 0x60 }
  - { offsetInCU: 0xF0DEC, offset: 0xF0DEC, size: 0x8, addend: 0x0, symName: __ZNKSt3__16chrono15__duration_castINS0_8durationIxNS_5ratioILl1ELl1000000000EEEEES5_NS3_ILl1ELl1EEELb1ELb1EEclB8ue170006ERKS5_, symObjAddr: 0x4BB4C, symBinAddr: 0x10004CE3C, symSize: 0x290 }
  - { offsetInCU: 0xF0E22, offset: 0xF0E22, size: 0x8, addend: 0x0, symName: __ZNKSt3__16chrono10time_pointINS0_12steady_clockENS0_8durationIxNS_5ratioILl1ELl1000000000EEEEEE16time_since_epochB8ue170006Ev, symObjAddr: 0x4C110, symBinAddr: 0x10004D400, symSize: 0x1FC }
  - { offsetInCU: 0xF0E49, offset: 0xF0E49, size: 0x8, addend: 0x0, symName: __ZN3Log7SeqLine10get_indentEv, symObjAddr: 0x4C30C, symBinAddr: 0x10004D5FC, symSize: 0x1B0 }
  - { offsetInCU: 0xF0E9D, offset: 0xF0E9D, size: 0x8, addend: 0x0, symName: __ZNSt3__112basic_stringIcNS_11char_traitsIcEENS_9allocatorIcEEE6appendB8ue170006ERKS5_, symObjAddr: 0x4C4BC, symBinAddr: 0x10004D7AC, symSize: 0x4C }
  - { offsetInCU: 0xF0ED2, offset: 0xF0ED2, size: 0x8, addend: 0x0, symName: __ZL5ftimed, symObjAddr: 0x4C508, symBinAddr: 0x10004D7F8, symSize: 0x64C }
  - { offsetInCU: 0xF0F00, offset: 0xF0F00, size: 0x8, addend: 0x0, symName: __ZN4listI5g_ptrIN3Log7SeqLineEEE5beginEv, symObjAddr: 0x4CB54, symBinAddr: 0x10004DE44, symSize: 0x60 }
  - { offsetInCU: 0xF0F26, offset: 0xF0F26, size: 0x8, addend: 0x0, symName: __ZN4listI5g_ptrIN3Log7SeqLineEEE3endEv, symObjAddr: 0x4CBB4, symBinAddr: 0x10004DEA4, symSize: 0xA8 }
  - { offsetInCU: 0xF0F4C, offset: 0xF0F4C, size: 0x8, addend: 0x0, symName: __ZL3redRKNSt3__112basic_stringIcNS_11char_traitsIcEENS_9allocatorIcEEEE, symObjAddr: 0x4CC5C, symBinAddr: 0x10004DF4C, symSize: 0x2E8 }
  - { offsetInCU: 0xF0F7A, offset: 0xF0F7A, size: 0x8, addend: 0x0, symName: __ZL6yellowRKNSt3__112basic_stringIcNS_11char_traitsIcEENS_9allocatorIcEEEE, symObjAddr: 0x4CF44, symBinAddr: 0x10004E234, symSize: 0x2E8 }
  - { offsetInCU: 0xF0FA8, offset: 0xF0FA8, size: 0x8, addend: 0x0, symName: __ZN5Acorn7ContextD2Ev, symObjAddr: 0x4D22C, symBinAddr: 0x10004E51C, symSize: 0x3C }
  - { offsetInCU: 0xF0FD5, offset: 0xF0FD5, size: 0x8, addend: 0x0, symName: __ZN5Acorn8AcornColC2Ej, symObjAddr: 0x4D268, symBinAddr: 0x10004E558, symSize: 0x1F4 }
  - { offsetInCU: 0xF100D, offset: 0xF100D, size: 0x8, addend: 0x0, symName: __ZN5Acorn4UnitC2Ev, symObjAddr: 0x4D45C, symBinAddr: 0x10004E74C, symSize: 0xA40 }
  - { offsetInCU: 0xF1038, offset: 0xF1038, size: 0x8, addend: 0x0, symName: __ZN5Acorn13Compiler_UnitC2Ev, symObjAddr: 0x4DE9C, symBinAddr: 0x10004F18C, symSize: 0x2228 }
  - { offsetInCU: 0xF1071, offset: 0xF1071, size: 0x8, addend: 0x0, symName: __ZN4listIS_IjEEC1Ev, symObjAddr: 0x500C4, symBinAddr: 0x1000513B4, symSize: 0x2C }
  - { offsetInCU: 0xF109B, offset: 0xF109B, size: 0x8, addend: 0x0, symName: __ZN4listIN5Acorn10Acorn_Dirt5PatchEEC1Ev, symObjAddr: 0x500F0, symBinAddr: 0x1000513E0, symSize: 0x2C }
  - { offsetInCU: 0xF10C5, offset: 0xF10C5, size: 0x8, addend: 0x0, symName: __ZN5Acorn13Compiler_Unit22make_tokenized_keywordERKNSt3__112basic_stringIcNS1_11char_traitsIcEENS1_9allocatorIcEEEEm, symObjAddr: 0x5011C, symBinAddr: 0x10005140C, symSize: 0x78 }
  - { offsetInCU: 0xF1116, offset: 0xF1116, size: 0x8, addend: 0x0, symName: __ZN4listIN5Acorn10Acorn_Dirt5PatchEED1Ev, symObjAddr: 0x50194, symBinAddr: 0x100051484, symSize: 0x2C }
  - { offsetInCU: 0xF1140, offset: 0xF1140, size: 0x8, addend: 0x0, symName: __ZN4listIS_IjEED1Ev, symObjAddr: 0x501C0, symBinAddr: 0x1000514B0, symSize: 0x2C }
  - { offsetInCU: 0xF116A, offset: 0xF116A, size: 0x8, addend: 0x0, symName: __ZN5Acorn13Compiler_UnitD2Ev, symObjAddr: 0x501EC, symBinAddr: 0x1000514DC, symSize: 0x1E8 }
  - { offsetInCU: 0xF11A3, offset: 0xF11A3, size: 0x8, addend: 0x0, symName: __ZN5Acorn4UnitD2Ev, symObjAddr: 0x503D4, symBinAddr: 0x1000516C4, symSize: 0x88 }
  - { offsetInCU: 0xF11D0, offset: 0xF11D0, size: 0x8, addend: 0x0, symName: __ZN5Acorn13Compiler_UnitD1Ev, symObjAddr: 0x518C4, symBinAddr: 0x100052BB4, symSize: 0x40 }
  - { offsetInCU: 0xF11FC, offset: 0xF11FC, size: 0x8, addend: 0x0, symName: __ZN5Acorn13Compiler_UnitD0Ev, symObjAddr: 0x51904, symBinAddr: 0x100052BF4, symSize: 0x30 }
  - { offsetInCU: 0xF1228, offset: 0xF1228, size: 0x8, addend: 0x0, symName: __ZTv0_n24_N5Acorn13Compiler_UnitD1Ev, symObjAddr: 0x51934, symBinAddr: 0x100052C24, symSize: 0xB0 }
  - { offsetInCU: 0xF123E, offset: 0xF123E, size: 0x8, addend: 0x0, symName: __ZTv0_n24_N5Acorn13Compiler_UnitD0Ev, symObjAddr: 0x519E4, symBinAddr: 0x100052CD4, symSize: 0xA8 }
  - { offsetInCU: 0xF1254, offset: 0xF1254, size: 0x8, addend: 0x0, symName: __ZTv0_n40_N5Acorn13Compiler_Unit4initEv, symObjAddr: 0x51A8C, symBinAddr: 0x100052D7C, symSize: 0xA8 }
  - { offsetInCU: 0xF126B, offset: 0xF126B, size: 0x8, addend: 0x0, symName: __ZN5Acorn4Unit7processENSt3__112basic_stringIcNS1_11char_traitsIcEENS1_9allocatorIcEEEE, symObjAddr: 0x51B34, symBinAddr: 0x100052E24, symSize: 0x4F4 }
  - { offsetInCU: 0xF12C9, offset: 0xF12C9, size: 0x8, addend: 0x0, symName: __ZN5Acorn4Unit3runENS_4NodeE, symObjAddr: 0x52028, symBinAddr: 0x100053318, symSize: 0x234 }
  - { offsetInCU: 0xF1303, offset: 0xF1303, size: 0x8, addend: 0x0, symName: __ZN5Acorn10Acorn_DirtD0Ev, symObjAddr: 0x59598, symBinAddr: 0x10005A888, symSize: 0x30 }
  - { offsetInCU: 0xF132F, offset: 0xF132F, size: 0x8, addend: 0x0, symName: __ZTv0_n32_N5Acorn10Acorn_Dirt4initEv, symObjAddr: 0x595C8, symBinAddr: 0x10005A8B8, symSize: 0xA8 }
  - { offsetInCU: 0xF1346, offset: 0xF1346, size: 0x8, addend: 0x0, symName: __ZTv0_n40_N5Acorn10Acorn_DirtD1Ev, symObjAddr: 0x59670, symBinAddr: 0x10005A960, symSize: 0xB0 }
  - { offsetInCU: 0xF135C, offset: 0xF135C, size: 0x8, addend: 0x0, symName: __ZTv0_n40_N5Acorn10Acorn_DirtD0Ev, symObjAddr: 0x59720, symBinAddr: 0x10005AA10, symSize: 0xA8 }
  - { offsetInCU: 0xF1372, offset: 0xF1372, size: 0x8, addend: 0x0, symName: __ZTv0_n24_N5Acorn10Acorn_DirtD1Ev, symObjAddr: 0x597C8, symBinAddr: 0x10005AAB8, symSize: 0xB0 }
  - { offsetInCU: 0xF1388, offset: 0xF1388, size: 0x8, addend: 0x0, symName: __ZTv0_n24_N5Acorn10Acorn_DirtD0Ev, symObjAddr: 0x59878, symBinAddr: 0x10005AB68, symSize: 0xA8 }
  - { offsetInCU: 0xF139E, offset: 0xF139E, size: 0x8, addend: 0x0, symName: __ZTv0_n40_N5Acorn10Acorn_Dirt4initEv, symObjAddr: 0x59920, symBinAddr: 0x10005AC10, symSize: 0xA8 }
  - { offsetInCU: 0xF13B5, offset: 0xF13B5, size: 0x8, addend: 0x0, symName: __ZTv0_n48_N5Acorn10Acorn_Dirt7processENSt3__112basic_stringIcNS1_11char_traitsIcEENS1_9allocatorIcEEEE, symObjAddr: 0x599C8, symBinAddr: 0x10005ACB8, symSize: 0x340 }
  - { offsetInCU: 0xF13CC, offset: 0xF13CC, size: 0x8, addend: 0x0, symName: __ZTv0_n56_N5Acorn10Acorn_Dirt3runENS_4NodeE, symObjAddr: 0x59D08, symBinAddr: 0x10005AFF8, symSize: 0x32C }
  - { offsetInCU: 0xF13E3, offset: 0xF13E3, size: 0x8, addend: 0x0, symName: __ZN3mapINSt3__112basic_stringIcNS0_11char_traitsIcEENS0_9allocatorIcEEEE5g_ptrIN5Acorn5StageEEEC1Ev, symObjAddr: 0x5A034, symBinAddr: 0x10005B324, symSize: 0x2C }
  - { offsetInCU: 0xF140D, offset: 0xF140D, size: 0x8, addend: 0x0, symName: __ZN5Acorn4Unit9reg_stageENSt3__112basic_stringIcNS1_11char_traitsIcEENS1_9allocatorIcEEEE, symObjAddr: 0x5A060, symBinAddr: 0x10005B350, symSize: 0x494 }
  - { offsetInCU: 0xF146B, offset: 0xF146B, size: 0x8, addend: 0x0, symName: __ZN3mapINSt3__112basic_stringIcNS0_11char_traitsIcEENS0_9allocatorIcEEEE5g_ptrIN5Acorn5StageEEED1Ev, symObjAddr: 0x5A4F4, symBinAddr: 0x10005B7E4, symSize: 0x2C }
  - { offsetInCU: 0xF1497, offset: 0xF1497, size: 0x8, addend: 0x0, symName: __ZN5Acorn4UnitD1Ev, symObjAddr: 0x5A520, symBinAddr: 0x10005B810, symSize: 0x2C }
  - { offsetInCU: 0xF14C4, offset: 0xF14C4, size: 0x8, addend: 0x0, symName: __ZN5Acorn4UnitD0Ev, symObjAddr: 0x5A54C, symBinAddr: 0x10005B83C, symSize: 0x30 }
  - { offsetInCU: 0xF14F1, offset: 0xF14F1, size: 0x8, addend: 0x0, symName: __ZN5Acorn4Unit4initEv, symObjAddr: 0x5A57C, symBinAddr: 0x10005B86C, symSize: 0x10 }
  - { offsetInCU: 0xF1517, offset: 0xF1517, size: 0x8, addend: 0x0, symName: __ZN3mapINSt3__112basic_stringIcNS0_11char_traitsIcEENS0_9allocatorIcEEEE5g_ptrIN5Acorn5StageEEEC2Ev, symObjAddr: 0x5A58C, symBinAddr: 0x10005B87C, symSize: 0x414 }
  - { offsetInCU: 0xF1561, offset: 0xF1561, size: 0x8, addend: 0x0, symName: __ZN4listI7keylistINSt3__112basic_stringIcNS1_11char_traitsIcEENS1_9allocatorIcEEEE5g_ptrIN5Acorn5StageEEEEC1Ev, symObjAddr: 0x5A9A0, symBinAddr: 0x10005BC90, symSize: 0x2C }
  - { offsetInCU: 0xF1591, offset: 0xF1591, size: 0x8, addend: 0x0, symName: __ZN4listI7keylistINSt3__112basic_stringIcNS1_11char_traitsIcEENS1_9allocatorIcEEEE5g_ptrIN5Acorn5StageEEEE4pushISC_EEvOT_, symObjAddr: 0x5A9CC, symBinAddr: 0x10005BCBC, symSize: 0x644 }
  - { offsetInCU: 0xF15F9, offset: 0xF15F9, size: 0x8, addend: 0x0, symName: __ZN7keylistINSt3__112basic_stringIcNS0_11char_traitsIcEENS0_9allocatorIcEEEE5g_ptrIN5Acorn5StageEEEC1Ev, symObjAddr: 0x5B010, symBinAddr: 0x10005C300, symSize: 0x2C }
